
AVRGCC1.elf:     file format elf32-avr

Sections:
Idx Name          Size      VMA       LMA       File off  Algn
  0 .data         0000068e  00800100  0000a6e8  0000a7dc  2**0
                  CONTENTS, ALLOC, LOAD, DATA
  1 .sobjscene_commonprop_epp 00000002  00810100  00810100  0000ae6a  2**0
                  CONTENTS, ALLOC, LOAD, DATA
  2 .sobjstorage_scene_epp 00000104  00810200  00810200  0000ae6c  2**0
                  CONTENTS, ALLOC, LOAD, DATA
  3 .sobjzone_epp 0000003c  00810400  00810400  0000af70  2**0
                  CONTENTS, ALLOC, LOAD, DATA
  4 .text         0000a6e8  00000000  00000000  000000f4  2**1
                  CONTENTS, ALLOC, LOAD, READONLY, CODE
  5 .bss          000003ac  0080078e  0080078e  0000ae6a  2**0
                  ALLOC
  6 .comment      0000005c  00000000  00000000  0000afac  2**0
                  CONTENTS, READONLY
  7 .note.gnu.avr.deviceinfo 0000003c  00000000  00000000  0000b008  2**2
                  CONTENTS, READONLY
  8 .debug_info   00000780  00000000  00000000  0000b044  2**0
                  CONTENTS, READONLY, DEBUGGING
  9 .debug_abbrev 00000718  00000000  00000000  0000b7c4  2**0
                  CONTENTS, READONLY, DEBUGGING
 10 .debug_line   00000169  00000000  00000000  0000bedc  2**0
                  CONTENTS, READONLY, DEBUGGING
 11 .debug_str    0000027d  00000000  00000000  0000c045  2**0
                  CONTENTS, READONLY, DEBUGGING

Disassembly of section .text:

00000000 <__vectors>:
       0:	0c 94 32 0b 	jmp	0x1664	; 0x1664 <__ctors_end>
       4:	0c 94 51 0b 	jmp	0x16a2	; 0x16a2 <__bad_interrupt>
       8:	0c 94 51 0b 	jmp	0x16a2	; 0x16a2 <__bad_interrupt>
       c:	0c 94 51 0b 	jmp	0x16a2	; 0x16a2 <__bad_interrupt>
      10:	0c 94 51 0b 	jmp	0x16a2	; 0x16a2 <__bad_interrupt>
      14:	0c 94 51 0b 	jmp	0x16a2	; 0x16a2 <__bad_interrupt>
      18:	0c 94 51 0b 	jmp	0x16a2	; 0x16a2 <__bad_interrupt>
      1c:	0c 94 51 0b 	jmp	0x16a2	; 0x16a2 <__bad_interrupt>
      20:	0c 94 51 0b 	jmp	0x16a2	; 0x16a2 <__bad_interrupt>
      24:	0c 94 51 0b 	jmp	0x16a2	; 0x16a2 <__bad_interrupt>
      28:	0c 94 51 0b 	jmp	0x16a2	; 0x16a2 <__bad_interrupt>
      2c:	0c 94 51 0b 	jmp	0x16a2	; 0x16a2 <__bad_interrupt>
      30:	0c 94 51 0b 	jmp	0x16a2	; 0x16a2 <__bad_interrupt>
      34:	0c 94 51 0b 	jmp	0x16a2	; 0x16a2 <__bad_interrupt>
      38:	0c 94 51 0b 	jmp	0x16a2	; 0x16a2 <__bad_interrupt>
      3c:	0c 94 01 41 	jmp	0x8202	; 0x8202 <__vector_15>
      40:	0c 94 51 0b 	jmp	0x16a2	; 0x16a2 <__bad_interrupt>
      44:	0c 94 51 0b 	jmp	0x16a2	; 0x16a2 <__bad_interrupt>
      48:	0c 94 51 0b 	jmp	0x16a2	; 0x16a2 <__bad_interrupt>
      4c:	0c 94 51 0b 	jmp	0x16a2	; 0x16a2 <__bad_interrupt>
      50:	0c 94 51 0b 	jmp	0x16a2	; 0x16a2 <__bad_interrupt>
      54:	0c 94 51 0b 	jmp	0x16a2	; 0x16a2 <__bad_interrupt>
      58:	0c 94 51 0b 	jmp	0x16a2	; 0x16a2 <__bad_interrupt>
      5c:	0c 94 51 0b 	jmp	0x16a2	; 0x16a2 <__bad_interrupt>
      60:	0c 94 51 0b 	jmp	0x16a2	; 0x16a2 <__bad_interrupt>
      64:	0c 94 51 0b 	jmp	0x16a2	; 0x16a2 <__bad_interrupt>
      68:	0c 94 51 0b 	jmp	0x16a2	; 0x16a2 <__bad_interrupt>
      6c:	0c 94 51 0b 	jmp	0x16a2	; 0x16a2 <__bad_interrupt>
      70:	0c 94 51 0b 	jmp	0x16a2	; 0x16a2 <__bad_interrupt>
      74:	0c 94 51 0b 	jmp	0x16a2	; 0x16a2 <__bad_interrupt>
      78:	0c 94 51 0b 	jmp	0x16a2	; 0x16a2 <__bad_interrupt>
      7c:	0c 94 51 0b 	jmp	0x16a2	; 0x16a2 <__bad_interrupt>
      80:	0c 94 51 0b 	jmp	0x16a2	; 0x16a2 <__bad_interrupt>
      84:	0c 94 51 0b 	jmp	0x16a2	; 0x16a2 <__bad_interrupt>
      88:	0c 94 51 0b 	jmp	0x16a2	; 0x16a2 <__bad_interrupt>

0000008c <__trampolines_end>:
      8c:	6e 61       	ori	r22, 0x1E	; 30
      8e:	6e 00       	.word	0x006e	; ????

00000090 <__c.2332>:
      90:	69 6e 66 00 00 40 7a 10 f3 5a 00 a0 72 4e 18 09     inf..@z..Z..rN..
      a0:	00 10 a5 d4 e8 00 00 e8 76 48 17 00 00 e4 0b 54     ........vH.....T
      b0:	02 00 00 ca 9a 3b 00 00 00 e1 f5 05 00 00 80 96     .....;..........
      c0:	98 00 00 00 40 42 0f 00 00 00 a0 86 01 00 00 00     ....@B..........
      d0:	10 27 00 00 00 00 e8 03 00 00 00 00 64 00 00 00     .'..........d...
      e0:	00 00 0a 00 00 00 00 00 01 00 00 00 00 00 2c 76     ..............,v
      f0:	d8 88 dc 67 4f 08 23 df c1 df ae 59 e1 b1 b7 96     ...gO.#....Y....
     100:	e5 e3 e4 53 c6 3a e6 51 99 76 96 e8 e6 c2 84 26     ...S.:.Q.v.....&
     110:	eb 89 8c 9b 62 ed 40 7c 6f fc ef bc 9c 9f 40 f2     ....b.@|o.....@.
     120:	ba a5 6f a5 f4 90 05 5a 2a f7 5c 93 6b 6c f9 67     ..o....Z*.\.kl.g
     130:	6d c1 1b fc e0 e4 0d 47 fe f5 20 e6 b5 00 d0 ed     m......G.. .....
     140:	90 2e 03 00 94 35 77 05 00 80 84 1e 08 00 00 20     .....5w........ 
     150:	4e 0a 00 00 00 c8 0c 33 33 33 33 0f 98 6e 12 83     N......3333..n..
     160:	11 41 ef 8d 21 14 89 3b e6 55 16 cf fe e6 db 18     .A..!..;.U......
     170:	d1 84 4b 38 1b f7 7c 1d 90 1d a4 bb e4 24 20 32     ..K8..|......$ 2
     180:	84 72 5e 22 81 00 c9 f1 24 ec a1 e5 3d 27           .r^"....$...='

0000018e <v_others_about_of_house>:
     18e:	2d 56 41 43 49 4f 2d 00 00 00 00 61 6e 74 65 6e     -VACIO-....anten
     19e:	61 00 00 00 00 00 62 69 65 6e 76 65 6e 69 64 61     a.....bienvenida
     1ae:	00 63 68 69 6d 65 6e 65 61 00 00 00 63 69 65 6c     .chimenea...ciel
     1be:	6f 72 72 61 73 6f 00 63 6f 62 65 72 74 69 7a 6f     orraso.cobertizo
     1ce:	00 00 63 6f 6d 70 75 74 65 72 00 00 00 64 6f 62     ..computer...dob
     1de:	6c 65 00 00 00 00 00 00 69 6e 67 72 65 73 6f 00     le......ingreso.
     1ee:	00 00 00 70 61 6e 74 61 6c 6c 61 00 00 00 70 65     ...pantalla...pe
     1fe:	72 73 69 61 6e 61 00 00 00 73 61 6c 69 64 61 00     rsiana...salida.
     20e:	00 00 00 00 73 65 74 6f 00 00 00 00 00 00 00 73     ....seto.......s
     21e:	6f 6c 2d 73 6f 6d 62 72 61 00 74 65 63 74 6f 72     ol-sombra.tector
     22e:	00 00 00 00 00 74 61 62 69 71 75 65 72 69 61 00     .....tabiqueria.
     23e:	74 65 72 72 65 6e 6f 00 00 00 00 74 69 6d 62 72     terreno....timbr
     24e:	65 00 00 00 00 00 74 72 61 67 61 6c 75 7a 00 00     e.....tragaluz..
     25e:	00 31 00 00 00 00 00 00 00 00 00 00 32 00 00 00     .1..........2...
     26e:	00 00 00 00 00 00 00 33 00 00 00 00 00 00 00 00     .......3........
     27e:	00 00 34 00 00 00 00 00 00 00 00 00 00 35 00 00     ..4..........5..
	...
     296:	36 00 00 00 00 00 00 00 00 00 00 37 00 00 00 00     6..........7....
     2a6:	00 00 00 00 00 00 38 00 00 00 00 00 00 00 00 00     ......8.........
     2b6:	00 39 00 00 00 00 00 00 00 00 00 00 31 30 00 00     .9..........10..
     2c6:	00 00 00 00 00 00 00                                .......

000002cd <v_position_or_reference>:
     2cd:	2d 56 41 43 49 4f 2d 00 00 00 00 61 62 61 6a 6f     -VACIO-....abajo
     2dd:	00 00 00 00 00 00 61 6c 74 6f 28 61 29 00 00 00     ......alto(a)...
     2ed:	00 61 6e 74 65 72 69 6f 72 00 00 00 61 72 72 69     .anterior...arri
     2fd:	62 61 00 00 00 00 00 62 61 6a 6f 28 61 29 00 00     ba.....bajo(a)..
     30d:	00 00 63 65 6e 74 72 6f 00 00 00 00 00 63 6f 73     ..centro.....cos
     31d:	74 61 64 6f 00 00 00 00 63 72 75 7a 61 64 6f 00     tado....cruzado.
     32d:	00 00 00 64 65 6c 61 6e 74 65 72 61 00 00 64 65     ...delantera..de
     33d:	72 65 63 68 6f 28 61 29 00 64 69 61 67 6f 6e 61     recho(a).diagona
     34d:	6c 00 00 00 65 73 74 65 00 00 00 00 00 00 00 65     l...este.......e
     35d:	6d 62 2e 70 61 72 65 64 00 00 65 6d 62 2e 70 69     mb.pared..emb.pi
     36d:	73 6f 00 00 00 65 78 74 72 65 6d 6f 00 00 00 00     so...extremo....
     37d:	66 72 65 6e 74 65 00 00 00 00 00 66 6f 6e 64 6f     frente.....fondo
     38d:	00 00 00 00 00 00 69 7a 71 75 69 65 72 64 6f 00     ......izquierdo.
     39d:	00 69 6e 74 2e 31 00 00 00 00 00 00 69 6e 74 2e     .int.1......int.
     3ad:	32 00 00 00 00 00 00 69 6e 74 2e 33 00 00 00 00     2......int.3....
     3bd:	00 00 69 6e 74 2e 34 00 00 00 00 00 00 69 6e 74     ..int.4......int
     3cd:	2e 35 00 00 00 00 00 00 69 6e 74 2e 36 00 00 00     .5......int.6...
     3dd:	00 00 00 69 6e 74 2e 37 00 00 00 00 00 00 69 6e     ...int.7......in
     3ed:	74 2e 38 00 00 00 00 00 00 69 6e 74 2e 39 00 00     t.8......int.9..
     3fd:	00 00 00 00 6c 61 74 65 72 61 6c 00 00 00 00 6d     ....lateral....m
     40d:	69 74 61 64 00 00 00 00 00 00 6e 6f 72 65 73 74     itad......norest
     41d:	65 00 00 00 00 6e 6f 72 6f 65 73 74 65 00 00 00     e....noroeste...
     42d:	6e 6f 72 74 65 00 00 00 00 00 00 6f 65 73 74 65     norte......oeste
     43d:	00 00 00 00 00 00 70 6f 73 74 65 72 69 6f 72 00     ......posterior.
     44d:	00 70 69 73 6f 00 00 00 00 00 00 00 73 65 63 74     .piso.......sect
     45d:	6f 72 20 31 00 00 00 73 65 63 74 6f 72 20 32 00     or 1...sector 2.
     46d:	00 00 73 65 63 74 6f 72 20 33 00 00 00 73 75 72     ..sector 3...sur
	...
     485:	73 75 72 65 73 74 65 00 00 00 00 73 75 72 6f 65     sureste....suroe
     495:	73 74 65 00 00 00 74 65 63 68 6f 00 00 00 00 00     ste...techo.....
     4a5:	00 74 72 61 73 65 72 6f 28 61 29 00                 .trasero(a).

000004b1 <v_types_of_luminary>:
     4b1:	2d 56 41 43 49 4f 2d 00 00 00 00 61 6d 70 6f 6c     -VACIO-....ampol
     4c1:	6c 61 00 00 00 00 61 70 61 6e 74 61 6c 6c 61 64     la....apantallad
     4d1:	00 62 61 6c 61 73 74 72 6f 00 00 00 62 72 61 71     .balastro...braq
     4e1:	75 65 74 65 00 00 00 62 6f 6d 62 69 6c 6c 61 00     uete...bombilla.
     4f1:	00 00 63 61 6e 64 65 6c 61 62 72 6f 00 63 6f 6c     ..candelabro.col
     501:	67 61 6e 74 65 00 00 00 63 72 69 73 74 61 6c 00     gante...cristal.
     511:	00 00 00 63 75 62 6f 00 00 00 00 00 00 00 64 69     ...cubo.......di
     521:	63 72 6f 69 63 6f 00 00 00 64 69 66 75 73 6f 72     croico...difusor
     531:	00 00 00 00 65 73 66 65 72 69 63 6f 00 00 00 65     ....esferico...e
     541:	73 74 61 63 61 00 00 00 00 00 66 61 72 6f 00 00     staca.....faro..
     551:	00 00 00 00 00 66 6c 75 6f 20 66 72 69 6f 00 00     .....fluo frio..
     561:	66 6c 75 6f 42 6c 61 6e 63 6f 00 66 6c 75 6f 72     fluoBlanco.fluor
     571:	65 73 63 2e 00 00 66 6f 63 6f 00 00 00 00 00 00     esc...foco......
     581:	00 66 6f 63 6f 20 41 68 6f 72 72 00 68 61 6c 6f     .foco Ahorr.halo
     591:	67 65 6e 6f 00 00 00 68 61 6c 6f 73 70 6f 74 00     geno...halospot.
     5a1:	00 00 68 6f 72 6e 61 63 69 6e 61 00 00 69 6e 63     ..hornacina..inc
     5b1:	61 6e 64 65 73 63 2e 00 69 6e 64 75 63 63 69 6f     andesc..induccio
     5c1:	6e 00 00 6c 2e 63 6f 6c 67 61 6e 74 65 00 6c 61     n..l.colgante.la
     5d1:	6d 70 2e 6d 65 73 61 00 00 6c 61 6d 70 2e 74 65     mp.mesa..lamp.te
     5e1:	63 68 6f 00 6c 61 6d 70 2e 70 69 65 00 00 00 6c     cho.lamp.pie...l
     5f1:	61 6d 70 61 72 61 00 00 00 00 4c 45 44 00 00 00     ampara....LED...
     601:	00 00 00 00 00 4c 75 7a 00 00 00 00 00 00 00 00     .....Luz........
     611:	6c 75 7a 44 69 72 65 63 74 00 00 6c 75 7a 49 6e     luzDirect..luzIn
     621:	64 69 72 65 63 00 6d 65 72 63 75 72 69 6f 00 00     direc.mercurio..
     631:	00 52 47 42 00 00 00 00 00 00 00 00 6e 69 63 68     .RGB........nich
     641:	6f 00 00 00 00 00 00 70 61 72 61 62 6f 6c 69 63     o......parabolic
     651:	6f 00 70 6c 61 66 6f 6e 00 00 00 00 00 70 6f 73     o.plafon.....pos
     661:	74 65 00 00 00 00 00 00 72 65 66 6c 65 63 74 6f     te......reflecto
     671:	72 00 00 73 6f 64 69 6f 00 00 00 00 00 00 73 70     r..sodio......sp
     681:	6f 74 6c 69 67 68 74 00 00 74 65 6c 65 73 63 6f     otlight..telesco
     691:	70 69 63 00 74 69 72 61 00 00 00 00 00 00 00        pic.tira.......

000006a0 <v_places_of_house>:
     6a0:	2d 56 41 43 49 4f 2d 00 00 00 00 41 6c 65 72 6f     -VACIO-....Alero
     6b0:	00 00 00 00 00 00 41 73 65 6f 00 00 00 00 00 00     ......Aseo......
     6c0:	00 42 61 6c 63 6f 6e 00 00 00 00 00 42 61 72 00     .Balcon.....Bar.
     6d0:	00 00 00 00 00 00 00 42 6f 64 65 67 61 00 00 00     .......Bodega...
     6e0:	00 00 43 65 72 63 6f 00 00 00 00 00 00 43 65 73     ..Cerco......Ces
     6f0:	70 65 64 00 00 00 00 00 43 6f 63 68 65 72 61 00     ped.....Cochera.
     700:	00 00 00 43 6f 63 69 6e 61 00 00 00 00 00 43 6f     ...Cocina.....Co
     710:	6d 65 64 6f 72 00 00 00 00 43 75 61 72 74 6f 53     medor....CuartoS
     720:	65 72 76 00 44 65 73 70 61 63 68 6f 00 00 00 44     erv.Despacho...D
     730:	65 73 70 65 6e 73 61 00 00 00 44 65 73 76 61 6e     espensa...Desvan
     740:	00 00 00 00 00 44 6f 72 6d 69 74 6f 72 69 6f 00     .....Dormitorio.
     750:	45 6e 74 72 2e 41 75 74 6f 00 00 45 6e 74 72 61     Entr.Auto..Entra
     760:	64 61 00 00 00 00 45 73 63 61 6c 65 72 61 00 00     da....Escalera..
     770:	00 45 73 74 75 64 69 6f 00 00 00 00 48 61 62 69     .Estudio....Habi
     780:	74 61 63 69 6f 6e 00 48 61 6c 6c 00 00 00 00 00     tacion.Hall.....
     790:	00 00 4a 61 72 64 69 6e 00 00 00 00 00 4c 61 76     ..Jardin.....Lav
     7a0:	61 64 65 72 6f 00 00 00 4c 6f 62 62 79 00 00 00     adero...Lobby...
     7b0:	00 00 00 50 61 72 65 64 00 00 00 00 00 00 50 61     ...Pared......Pa
     7c0:	73 61 64 69 73 6f 00 00 00 50 61 73 69 6c 6c 6f     sadiso...Pasillo
     7d0:	00 00 00 00 50 61 74 69 6f 00 00 00 00 00 00 50     ....Patio......P
     7e0:	69 6c 65 74 61 00 00 00 00 00 50 69 73 63 69 6e     ileta.....Piscin
     7f0:	61 00 00 00 00 50 69 73 6f 00 00 00 00 00 00 00     a....Piso.......
     800:	50 6c 61 6e 74 61 00 00 00 00 00 50 6f 72 74 69     Planta.....Porti
     810:	63 6f 00 00 00 00 50 75 65 72 74 61 00 00 00 00     co....Puerta....
     820:	00 53 61 6c 61 00 00 00 00 00 00 00 53 61 6c 6f     .Sala.......Salo
     830:	6e 00 00 00 00 00 00 53 65 72 76 69 63 69 6f 73     n......Servicios
     840:	00 00 53 6f 74 61 6e 6f 00 00 00 00 00 54 65 63     ..Sotano.....Tec
     850:	68 6f 00 00 00 00 00 00 54 65 72 72 61 7a 61 00     ho......Terraza.
     860:	00 00 00 56 65 6e 74 61 6e 61 00 00 00 00 56 65     ...Ventana....Ve
     870:	73 74 69 62 75 6c 6f 00 00                          stibulo..

00000879 <v_names_for_scenes>:
     879:	54 6f 64 6f 73 20 30 25 00 00 00 54 6f 64 6f 73     Todos 0%...Todos
     889:	20 32 35 25 00 00 54 6f 64 6f 73 20 35 30 25 00      25%..Todos 50%.
     899:	00 54 6f 64 6f 73 20 37 35 25 00 00 54 6f 64 6f     .Todos 75%..Todo
     8a9:	20 31 30 30 25 00 00 4c 75 7a 20 50 61 73 6f 00      100%..Luz Paso.
     8b9:	00 00 4c 75 7a 44 69 61 72 69 6f 00 00 4c 75 7a     ..LuzDiario..Luz
     8c9:	4e 6f 63 68 65 00 00 00 4c 75 7a 54 61 72 64 65     Noche...LuzTarde
     8d9:	00 00 00 4c 75 7a 56 69 73 69 74 61 00 00 4c 75     ...LuzVisita..Lu
     8e9:	7a 20 43 65 6e 61 00 00 00 4d 69 78 20 31 00 00     z Cena...Mix 1..
     8f9:	00 00 00 00 4d 69 78 20 32 00 00 00 00 00 00 4d     ....Mix 2......M
     909:	69 78 20 33 00 00 00 00 00 00 4d 69 78 20 34 00     ix 3......Mix 4.
     919:	00 00 00 00 00 4d 69 78 20 35 00 00 00 00 00 00     .....Mix 5......
     929:	4d 69 78 20 36 00 00 00 00 00 00 4d 69 78 20 37     Mix 6......Mix 7
     939:	00 00 00 00 00 00 4d 69 78 20 38 00 00 00 00 00     ......Mix 8.....
     949:	00 4d 69 78 20 39 00 00 00 00 00 00 52 65 75 6e     .Mix 9......Reun
     959:	69 6f 6e 00 00 00 00 52 65 63 65 70 63 69 6f 6e     ion....Recepcion
     969:	00 00 4a 75 65 67 6f 00 00 00 00 00 00 4c 65 63     ..Juego......Lec
     979:	74 75 72 61 00 00 00 00 43 61 6c 69 64 6f 00 00     tura....Calido..
     989:	00 00 00 43 6f 6e 66 6f 72 74 00 00 00 00 46 69     ...Confort....Fi
     999:	65 73 74 61 00 00 00 00 00 46 72 69 6f 00 00 00     esta.....Frio...
     9a9:	00 00 00 00 49 6e 74 65 72 6d 65 64 69 6f 00 4e     ....Intermedio.N
     9b9:	61 74 75 72 61 6c 00 00 00 00 4e 65 75 74 72 6f     atural....Neutro
     9c9:	00 00 00 00 00 53 75 74 69 6c 00 00 00 00 00 00     .....Sutil......
     9d9:	44 65 63 6f 72 61 74 69 76 6f 00 41 67 72 61 64     Decorativo.Agrad
     9e9:	61 62 6c 65 00 00 56 65 6c 61 64 61 00 00 00 00     able..Velada....
     9f9:	00 4c 2e 45 6e 74 72 61 64 61 00 00 45 6d 65 72     .L.Entrada..Emer
     a09:	67 65 6e 63 69 61 00                                gencia.

00000a10 <__c.3438>:
     a10:	5a 00                                               Z.

00000a12 <__c.3419>:
     a12:	5a 00                                               Z.

00000a14 <__c.3505>:
     a14:	65 6c 69 6d 69 6e 61 64 61 00                       eliminada.

00000a1e <__c.3503>:
     a1e:	45 73 63 65 6e 61 00                                Escena.

00000a25 <__c.3501>:
     a25:	6f 6b 00                                            ok.

00000a28 <__c.3463>:
     a28:	65 73 63 65 6e 61 73 00                             escenas.

00000a30 <__c.3461>:
     a30:	4e 6f 20 65 78 69 73 74 65 6e 00                    No existen.

00000a3b <__c.3459>:
     a3b:	45 73 63 65 6e 61 3a 00                             Escena:.

00000a43 <__c.3451>:
     a43:	53 61 6c 69 72 3f 00                                Salir?.

00000a4a <__c.3427>:
     a4a:	2a 2a 2a 2a 00                                      ****.

00000a4f <__c.3425>:
     a4f:	2a 00                                               *.

00000a51 <__c.3423>:
     a51:	45 73 63 65 6e 61 3a 00                             Escena:.

00000a59 <__c.3448>:
     a59:	5d 00                                               ].

00000a5b <__c.3446>:
     a5b:	6f 6b 00                                            ok.

00000a5e <__c.3444>:
     a5e:	5b 00                                               [.

00000a60 <__c.3442>:
     a60:	42 75 73 71 75 65 64 61 00                          Busqueda.

00000a69 <__c.3484>:
     a69:	63 61 6d 62 69 6f 73 3f 00                          cambios?.

00000a72 <__c.3482>:
     a72:	47 75 61 72 64 61 72 00                             Guardar.

00000a7a <__c.3480>:
     a7a:	73 65 6c 65 63 63 69 6f 6e 3f 00                    seleccion?.

00000a85 <__c.3478>:
     a85:	43 6f 6e 66 69 72 6d 61 00                          Confirma.

00000a8e <__c.3476>:
     a8e:	73 65 6c 65 63 63 69 6f 6e 3f 00                    seleccion?.

00000a99 <__c.3474>:
     a99:	43 61 6e 63 65 6c 61 72 00                          Cancelar.

00000aa2 <__c.3472>:
     aa2:	53 61 6c 69 72 3f 00                                Salir?.

00000aa9 <__c.3470>:
     aa9:	45 73 63 65 6e 61 20 3f 00                          Escena ?.

00000ab2 <__c.3468>:
     ab2:	4e 6f 6d 62 72 61 72 00                             Nombrar.

00000aba <__c.3425>:
     aba:	41 76 69 73 6f 00                                   Aviso.

00000ac0 <__c.3419>:
     ac0:	5a 36 00                                            Z6.

00000ac3 <__c.3417>:
     ac3:	5a 35 00                                            Z5.

00000ac6 <__c.3415>:
     ac6:	5a 34 00                                            Z4.

00000ac9 <__c.3413>:
     ac9:	5a 33 00                                            Z3.

00000acc <__c.3411>:
     acc:	5a 32 00                                            Z2.

00000acf <__c.3409>:
     acf:	5a 31 00                                            Z1.

00000ad2 <Arial_Bold_14>:
     ad2:	22 08 0a 0e 20 60 04 02 05 06 07 08 09 02 03 03     "... `..........
     ae2:	05 08 02 04 02 04 07 04 07 07 07 07 07 07 07 07     ................
     af2:	02 02 07 07 07 08 0e 09 08 08 08 07 07 09 08 02     ................
     b02:	07 08 07 0b 08 09 07 09 09 07 08 08 09 0d 07 08     ................
     b12:	08 04 04 04 06 08 03 07 07 06 07 07 05 07 07 02     ................
     b22:	03 06 02 0a 07 07 07 07 05 06 05 07 07 0b 06 07     ................
     b32:	05 05 01 05 07 08 00 00 00 00 00 00 00 00 fe fe     ................
     b42:	18 18 1e 1e 00 1e 1e 00 00 00 00 00 90 f8 9e 90     ................
     b52:	f8 9e 1c 00 00 1c 00 00 18 3c 26 ff 66 cc 88 04     .........<&.f...
     b62:	0c 18 3c 18 0c 04 1c 22 1c c0 30 8e 40 80 00 00     ..<...."..0.@...
     b72:	18 04 00 0c 10 0c 80 cc 7e 72 f2 de 0c 80 00 0c     ........~r......
     b82:	1c 10 10 10 1c 0c 1c 10 1e 1e 00 00 f0 fc 06 1c     ................
     b92:	7c c0 06 fc f0 c0 7c 1c 14 14 0e 14 14 00 00 00     |.....|.........
     ba2:	00 00 60 60 60 fc fc 60 60 60 00 00 00 0c 0c 00     ..```..```......
     bb2:	00 00 00 00 58 38 c0 c0 c0 c0 00 00 00 00 00 00     ....X8..........
     bc2:	18 18 00 c0 38 06 18 04 00 00 f8 fc 0e 06 0e fc     ....8...........
     bd2:	f8 04 0c 1c 18 1c 0c 04 18 0c fe fe 00 00 1c 1c     ................
     be2:	18 1c 86 c6 66 3e 1c 18 1c 1c 18 18 18 18 88 8c     ....f>..........
     bf2:	06 26 26 fe dc 04 0c 1c 18 18 0c 04 c0 e0 b8 8c     .&&.............
     c02:	fe fe 80 04 04 04 04 1c 1c 04 70 7e 3e 36 36 f6     ..........p~>66.
     c12:	c6 0c 1c 18 18 18 0c 04 f8 fc 6e 66 66 ee cc 04     ..........nff...
     c22:	0c 18 18 18 1c 0c 06 06 06 e6 76 1e 06 00 00 1c     ..........v.....
     c32:	1c 00 00 00 9c fe 66 66 66 fe 9c 0c 1c 18 18 18     ......fff.......
     c42:	1c 0c 3c 7e 66 66 66 fc f8 0c 1c 18 18 1c 0c 04     ..<~fff.........
     c52:	18 18 18 18 18 18 58 38 60 60 f0 f0 98 98 0c 00     ......X8``......
     c62:	00 00 00 04 04 0c d8 d8 d8 d8 d8 d8 d8 00 00 00     ................
     c72:	00 00 00 00 0c 98 98 f0 f0 60 60 0c 04 04 00 00     .........``.....
     c82:	00 00 08 0c 06 c6 e6 76 3c 18 00 00 00 18 18 00     .......v<.......
     c92:	00 00 e0 30 08 c4 f6 3a 1a 1a f2 fa 7e 04 08 f0     ...0...:....~...
     ca2:	0c 30 60 4c 9c 98 98 8c 9c 9c 90 48 4c 20 00 c0     .0`L.......HL ..
     cb2:	f8 be 86 be f8 c0 00 18 1c 04 04 04 04 04 1c 18     ................
     cc2:	fe fe 66 66 66 66 fe dc 1c 1c 18 18 18 18 1c 0c     ..ffff..........
     cd2:	f8 fc 0e 06 06 0e 9c 08 04 0c 1c 18 18 1c 0c 04     ................
     ce2:	fe fe 06 06 06 0e fc f8 1c 1c 18 18 18 1c 0c 04     ................
     cf2:	fe fe 66 66 66 66 66 1c 1c 18 18 18 18 18 fe fe     ..fffff.........
     d02:	66 66 66 66 06 1c 1c 00 00 00 00 00 f8 fc 0e 06     ffff............
     d12:	06 c6 ce dc c8 04 0c 1c 18 18 18 18 0c 04 fe fe     ................
     d22:	60 60 60 60 fe fe 1c 1c 00 00 00 00 1c 1c fe fe     ````............
     d32:	1c 1c 80 80 00 00 00 fe fe 0c 1c 18 18 18 1c 0c     ................
     d42:	fe fe 60 30 78 ec 86 02 1c 1c 00 00 00 04 1c 18     ..`0x...........
     d52:	fe fe 00 00 00 00 00 1c 1c 18 18 18 18 18 fe fe     ................
     d62:	0e 7c e0 00 e0 7c 0e fe fe 1c 1c 00 00 0c 1c 0c     .|...|..........
     d72:	00 00 1c 1c fe fe 1c 78 e0 80 fe fe 1c 1c 00 00     .......x........
     d82:	04 0c 1c 1c f8 fc 0e 06 06 06 0e fc f8 04 0c 1c     ................
     d92:	18 18 18 1c 0c 04 fe fe 66 66 66 7e 3c 1c 1c 00     ........fff~<...
     da2:	00 00 00 00 f8 fc 0e 06 86 06 0e fc f8 04 0c 1c     ................
     db2:	18 18 1c 0c 1c 24 fe fe 66 66 e6 e6 be 1c 00 1c     .....$..ff......
     dc2:	1c 00 00 00 0c 1c 18 10 3c 7e 66 66 66 ee cc 0c     ........<~fff...
     dd2:	1c 18 18 18 1c 0c 06 06 06 fe fe 06 06 06 00 00     ................
     de2:	00 1c 1c 00 00 00 fe fe 00 00 00 00 fe fe 04 0c     ................
     df2:	1c 18 18 1c 0c 04 02 1e fc e0 00 e0 fc 1e 02 00     ................
     e02:	00 00 1c 1c 1c 00 00 00 06 fe f8 00 f0 fe 0e fe     ................
     e12:	f0 00 f8 fe 06 00 00 1c 1c 1c 00 00 00 1c 1c 1c     ................
     e22:	00 00 06 0e f8 f0 f8 0e 06 18 1c 04 00 04 1c 18     ................
     e32:	06 0e 38 f0 f0 38 0e 06 00 00 00 1c 1c 00 00 00     ..8..8..........
     e42:	06 06 86 e6 76 1e 0e 06 18 1c 1c 18 18 18 18 18     ....v...........
     e52:	fe fe 06 06 fc fc c0 c0 06 38 c0 00 00 00 04 18     .........8......
     e62:	06 06 fe fe c0 c0 fc fc 20 38 0e 0e 38 20 00 00     ........ 8..8 ..
	...
     e7e:	80 80 80 80 80 80 80 80 02 06 04 00 00 00 10 98     ................
     e8e:	d8 58 f8 f0 00 0c 1c 18 18 0c 1c 10 fe fe 30 18     .X............0.
     e9e:	38 f0 e0 1c 1c 0c 18 1c 0c 04 e0 f0 18 18 38 30     8.............80
     eae:	04 0c 18 18 1c 0c e0 f0 38 18 30 fe fe 04 0c 1c     ........8.0.....
     ebe:	18 0c 1c 1c e0 f0 d8 d8 d8 f0 e0 04 0c 18 18 18     ................
     ece:	18 08 18 fc fe 1a 1a 00 1c 1c 00 00 e0 f0 38 18     ..............8.
     ede:	30 f8 f8 64 ec dc d8 cc fc 7c fe fe 30 18 18 f8     0..d.....|..0...
     eee:	f0 1c 1c 00 00 00 1c 1c fa fa 1c 1c 00 fa fa c0     ................
     efe:	fc 7c fe fe e0 f0 98 08 1c 1c 00 04 1c 18 fe fe     .|..............
     f0e:	1c 1c f8 f8 10 18 f8 f0 18 18 f8 f0 1c 1c 00 00     ................
     f1e:	1c 1c 00 00 1c 1c f8 f8 30 18 18 f8 f0 1c 1c 00     ........0.......
     f2e:	00 00 1c 1c e0 f0 38 18 38 f0 e0 04 0c 1c 18 1c     ......8.8.......
     f3e:	0c 04 f8 f8 30 18 38 f0 e0 fc fc 0c 18 1c 0c 04     ....0.8.........
     f4e:	e0 f0 38 18 30 f8 f8 04 0c 1c 18 0c fc fc f8 f8     ..8.0...........
     f5e:	30 18 18 1c 1c 00 00 00 70 f8 d8 d8 d8 90 08 18     0.......p.......
     f6e:	18 18 1c 0c 18 fc fe 18 18 00 0c 1c 18 18 f8 f8     ................
     f7e:	00 00 00 f8 f8 0c 1c 18 18 0c 1c 1c 38 f8 c0 00     ............8...
     f8e:	c0 f8 38 00 00 1c 1c 1c 00 00 18 f8 e0 00 f0 38     ..8............8
     f9e:	f0 00 e0 f8 18 00 00 1c 1c 0c 00 0c 1c 1c 00 00     ................
     fae:	18 38 e0 e0 38 18 18 1c 04 04 1c 18 18 f8 e0 00     .8..8...........
     fbe:	e0 f8 18 00 84 fc f8 3c 04 00 18 98 d8 78 38 1c     .......<.....x8.
     fce:	1c 18 18 18 80 fc 7e 06 06 00 7c fc c0 c0 fe fc     ......~...|.....
     fde:	06 06 7e fc 80 c0 c0 fc 7c 00 60 30 30 70 60 60     ..~.....|.`00p``
     fee:	30 00 00 00 00 00 00 00 fe 02 02 02 02 02 02 fe     0...............
     ffe:	1c 10 10 10 10 10 10 1c                             ........

00001006 <SC>:
    1006:	1a 4c 06 0d 20 60 00 01 03 06 05 09 09 01 03 03     .L.. `..........
    1016:	05 07 02 03 01 03 05 03 05 05 06 05 05 05 05 05     ................
    1026:	01 02 06 06 06 04 0a 08 07 07 08 07 06 08 08 03     ................
    1036:	04 08 07 0b 08 08 06 08 08 05 07 08 07 0b 08 08     ................
    1046:	07 03 03 02 06 06 02 05 05 04 06 04 04 05 06 03     ................
    1056:	02 06 03 09 06 05 06 06 04 04 03 06 06 09 05 07     ................
    1066:	05 03 01 03 05 06 fe 10 0e 00 0e 00 00 00 d0 78     ...............x
    1076:	56 50 f8 56 18 00 00 18 00 00 1c 12 ff 22 c4 08     VP.V........."..
    1086:	10 38 10 08 0c 12 8c 40 30 08 86 40 80 00 10 08     .8.....@0..@....
    1096:	00 00 00 08 10 08 c0 20 3c d2 8a 46 30 10 00 08     ....... <..F0...
    10a6:	10 10 10 08 10 10 10 08 0e 00 f0 0c 02 08 30 40     ..............0@
    10b6:	02 0c f0 40 30 08 14 08 3e 08 14 00 00 00 00 00     ...@0...>.......
    10c6:	20 20 20 fc 20 20 20 00 00 00 08 00 00 00 00 00        .   .........
    10d6:	50 30 80 80 80 00 00 00 00 10 00 f8 06 18 00 00     P0..............
    10e6:	fc 02 02 02 fc 08 10 10 10 08 04 fe 00 10 18 10     ................
    10f6:	04 02 82 42 3c 10 18 10 10 18 04 02 22 32 cc 10     ...B<......."2..
    1106:	10 10 10 08 c0 a0 90 8c fe 80 00 00 00 00 18 00     ................
    1116:	00 0c 0a 12 e2 10 10 10 08 00 f0 28 14 12 e2 08     ...........(....
    1126:	10 10 10 08 04 02 02 f2 0e 00 00 18 00 00 8c 52     ...............R
    1136:	62 52 8c 08 10 10 10 08 3c 42 42 c2 7c 10 10 08     bR......<BB.|...
    1146:	00 00 10 10 10 00 50 30 20 50 50 50 88 88 00 00     ......P0 PPP....
    1156:	00 00 00 00 50 50 50 50 50 50 00 00 00 00 00 00     ....PPPPPP......
    1166:	88 88 50 50 50 20 00 00 00 00 00 00 0c c2 22 1c     ..PPP ........".
    1176:	00 10 00 00 f0 08 e4 12 0a 0a 92 7a 04 f8 18 20     ...........z... 
    1186:	48 90 90 88 88 90 48 20 00 80 78 46 58 60 80 00     H.....H ..xFX`..
    1196:	10 18 10 00 00 10 18 10 02 fe 22 22 22 3c c0 10     .........."""<..
    11a6:	18 10 10 10 10 08 f8 04 02 02 02 04 8e 00 08 10     ................
    11b6:	10 10 08 00 02 fe 02 02 02 02 04 f8 10 18 10 10     ................
    11c6:	10 10 08 00 02 fe 22 22 72 06 00 10 18 10 10 10     ......""r.......
    11d6:	10 08 02 fe 22 22 72 06 10 18 10 00 00 00 f8 04     ....""r.........
    11e6:	02 02 02 24 ee 20 00 08 10 10 10 10 08 00 02 fe     ...$. ..........
    11f6:	22 20 20 22 fe 02 10 18 10 00 00 10 18 10 02 fe     "  "............
    1206:	02 10 18 10 00 02 fe 02 18 10 08 00 02 fe 22 50     .............."P
    1216:	88 06 02 02 10 18 10 00 00 18 10 10 02 fe 02 00     ................
    1226:	00 00 00 10 18 10 10 10 10 08 02 fe 06 38 c0 00     .............8..
    1236:	e0 18 06 fe 02 10 18 10 00 00 18 00 00 10 18 10     ................
    1246:	02 fe 08 10 60 82 fe 02 10 18 10 00 00 00 18 00     ....`...........
    1256:	f8 04 02 02 02 02 04 f8 00 08 10 10 10 10 08 00     ................
    1266:	02 fe 22 22 22 1c 10 18 10 00 00 00 f8 04 02 02     .."""...........
    1276:	02 02 04 f8 00 08 10 10 30 50 48 40 02 fe 22 22     ........0PH@..""
    1286:	e2 1c 00 00 10 18 10 00 00 08 10 10 0c 12 22 22     ..............""
    1296:	c6 18 10 10 10 08 06 02 02 fe 02 02 06 00 00 10     ................
    12a6:	18 10 00 00 02 fe 02 00 00 02 fe 02 00 08 10 10     ................
    12b6:	10 10 08 00 02 1e e2 00 e2 1e 02 00 00 00 18 00     ................
    12c6:	00 00 02 1e e2 80 62 1e e2 80 72 0e 02 00 00 00     ......b...r.....
    12d6:	18 00 00 00 18 00 00 00 02 06 8a 70 70 8a 06 02     ...........pp...
    12e6:	10 18 10 00 00 10 18 10 02 06 3a c0 30 0a 06 02     ..........:.0...
    12f6:	00 00 10 18 10 00 00 00 00 86 42 32 0a 06 82 10     ..........B2....
    1306:	18 10 10 10 10 18 fe 02 02 78 40 40 06 f8 00 00     .........x@@....
    1316:	00 18 02 fe 40 78 10 0c 02 02 0c 10 00 00 00 00     ....@x..........
	...
    132e:	80 80 80 80 80 80 04 08 00 00 a0 50 50 e0 00 08     ...........PP...
    133e:	10 10 18 10 fe 20 10 10 e0 08 10 10 10 08 e0 10     ..... ..........
    134e:	10 30 08 10 10 08 e0 10 10 22 fe 00 08 10 10 08     .0......."......
    135e:	18 10 e0 50 50 60 08 10 10 08 10 fc 12 02 10 18     ...PP`..........
    136e:	10 00 60 90 90 70 10 68 90 90 90 60 02 fe 20 10     ..`..p.h...`.. .
    137e:	e0 00 10 18 10 00 18 10 10 f2 00 10 18 10 10 f2     ................
    138e:	80 78 02 fe 40 b0 10 00 10 18 10 00 18 10 02 fe     .x..@...........
    139e:	00 10 18 10 10 f0 20 10 e0 20 10 e0 00 10 18 10     ...... .. ......
    13ae:	00 18 10 00 18 10 10 f0 20 10 e0 00 10 18 10 00     ........ .......
    13be:	18 10 e0 10 10 10 e0 08 10 10 10 08 10 f0 20 10     .............. .
    13ce:	10 e0 80 f8 88 10 10 08 e0 10 10 20 f0 00 08 10     ........... ....
    13de:	10 88 f8 80 10 f0 20 10 10 18 10 00 60 50 90 b0     ...... .....`P..
    13ee:	18 10 10 08 10 fc 10 00 18 10 10 f0 00 10 f0 00     ................
    13fe:	00 08 10 10 18 10 30 d0 00 c0 30 10 00 00 18 00     ......0...0.....
    140e:	00 00 10 f0 00 90 f0 10 c0 30 10 00 00 18 00 00     .........0......
    141e:	18 00 00 00 10 30 c0 30 10 10 18 00 18 10 10 70     .....0.0.......p
    142e:	90 00 d0 30 10 80 80 48 30 08 00 00 30 10 d0 30     ...0...H0...0..0
    143e:	10 10 18 10 10 18 40 bc 02 00 38 40 fe 78 02 bc     ......@...8@.x..
    144e:	40 40 38 00 80 40 c0 80 40 00 00 00 00 00 fc 04     @@8..@..@.......
    145e:	04 04 04 fc 18 10 10 10 10 18                       ..........

00001468 <__c.3433>:
    1468:	42 45 4c 49 4d 46 20 48 4f 4d 45 00                 BELIMF HOME.

00001474 <__c.3458>:
    1474:	53 61 6c 69 72 3f 00                                Salir?.

0000147b <__c.3456>:
    147b:	45 73 63 65 6e 61 73 20 3f 00                       Escenas ?.

00001485 <__c.3454>:
    1485:	43 61 6d 62 69 61 72 20 61 00                       Cambiar a.

0000148f <__c.3605>:
    148f:	6f 6b 00                                            ok.

00001492 <__c.3677>:
    1492:	7a 6f 6e 61 73 00                                   zonas.

00001498 <__c.3675>:
    1498:	54 6f 64 61 73 20 6c 61 73 00                       Todas las.

000014a2 <__c.3673>:
    14a2:	53 69 6e 63 72 6f 6e 69 7a 61 00                    Sincroniza.

000014ad <__c.3537>:
    14ad:	65 73 63 65 6e 61 73 00                             escenas.

000014b5 <__c.3535>:
    14b5:	4e 6f 20 65 78 69 73 74 65 6e 00                    No existen.

000014c0 <__c.3533>:
    14c0:	45 73 63 65 6e 61 3a 00                             Escena:.

000014c8 <__c.3525>:
    14c8:	73 69 6e 63 72 6f 6e 69 7a 3f 00                    sincroniz?.

000014d3 <__c.3523>:
    14d3:	43 61 6e 63 65 6c 61 72 00                          Cancelar.

000014dc <__c.3521>:
    14dc:	62 75 73 71 75 65 64 61 3f 00                       busqueda?.

000014e6 <__c.3519>:
    14e6:	43 61 6e 63 65 6c 61 72 00                          Cancelar.

000014ef <__c.3517>:
    14ef:	44 69 6d 6d 69 6e 67 00                             Dimming.

000014f7 <__c.3515>:
    14f7:	53 69 6e 63 72 6f 6e 69 7a 61 00                    Sincroniza.

00001502 <__c.3513>:
    1502:	7a 6f 6e 61 73 20 3f 00                             zonas ?.

0000150a <__c.3511>:
    150a:	43 61 6d 62 69 61 72 20 61 20 00                    Cambiar a .

00001515 <__c.3509>:
    1515:	65 73 63 65 6e 61 20 3f 00                          escena ?.

0000151e <__c.3507>:
    151e:	42 75 73 63 61 72 00                                Buscar.

00001525 <__c.3505>:
    1525:	53 61 6c 69 72 3f 00                                Salir?.

0000152c <__c.3488>:
    152c:	53 61 6c 69 72 3f 00                                Salir?.

00001533 <__c.3486>:
    1533:	65 6a 65 63 75 74 61 64 6f 00                       ejecutado.

0000153d <__c.3484>:
    153d:	43 61 6d 62 69 6f 00                                Cambio.

00001544 <__c.3482>:
    1544:	63 61 6d 62 69 6f 73 3f 00                          cambios?.

0000154d <__c.3480>:
    154d:	41 63 65 70 74 61 72 00                             Aceptar.

00001555 <__c.3471>:
    1555:	53 45 4c 45 43 54 00                                SELECT.

0000155c <__c.3469>:
    155c:	44 69 6d 6d 61 62 6c 65 00                          Dimmable.

00001565 <__c.3467>:
    1565:	4e 6f 2d 44 69 6d 6d 00                             No-Dimm.

0000156d <__c.3415>:
    156d:	5d 00                                               ].

0000156f <__c.3413>:
    156f:	4e 6f 00                                            No.

00001572 <__c.3411>:
    1572:	5b 00                                               [.

00001574 <__c.3409>:
    1574:	5d 00                                               ].

00001576 <__c.3407>:
    1576:	53 69 00                                            Si.

00001579 <__c.3405>:
    1579:	5b 00                                               [.

0000157b <months_ofthe_year>:
    157b:	45 6e 65 00 46 65 62 00 4d 61 72 00 41 62 72 00     Ene.Feb.Mar.Abr.
    158b:	4d 61 79 00 4a 75 6e 00 4a 75 6c 00 41 67 6f 00     May.Jun.Jul.Ago.
    159b:	53 65 74 00 4f 63 74 00 4e 6f 76 00 44 69 63 00     Set.Oct.Nov.Dic.

000015ab <days_ofthe_week>:
    15ab:	44 6f 6d 00 4c 75 6e 00 4d 61 72 00 4d 69 65 00     Dom.Lun.Mar.Mie.
    15bb:	4a 75 65 00 56 69 65 00 53 61 62 00                 Jue.Vie.Sab.

000015c7 <__c.3487>:
    15c7:	43 61 6d 70 6f 3a 00                                Campo:.

000015ce <__c.3485>:
    15ce:	5a 6f 6e 61 3a 00                                   Zona:.

000015d4 <__c.3483>:
    15d4:	73 65 6c 65 63 63 69 6f 6e 65 00                    seleccione.

000015df <__c.3481>:
    15df:	4e 6f 6d 62 72 61 72 00                             Nombrar.

000015e7 <__c.3507>:
    15e7:	44 69 63 63 69 6f 6e 61 72 69 6f 00                 Diccionario.

000015f3 <__c.3539>:
    15f3:	47 75 61 72 64 61 64 6f 21 00                       Guardado!.

000015fd <__c.3557>:
    15fd:	53 61 6c 69 72 20 3f 00                             Salir ?.

00001605 <__c.3555>:
    1605:	6e 6f 6d 62 72 65 20 3f 00                          nombre ?.

0000160e <__c.3553>:
    160e:	4e 75 65 76 6f 00                                   Nuevo.

00001614 <__c.3551>:
    1614:	63 61 6d 62 69 6f 20 3f 00                          cambio ?.

0000161d <__c.3549>:
    161d:	47 75 61 72 64 61 72 00                             Guardar.

00001625 <__c.3547>:
    1625:	44 69 63 63 69 6f 6e 61 72 69 6f 00                 Diccionario.

00001631 <__c.3492>:
    1631:	53 61 6c 69 72 3f 00                                Salir?.

00001638 <vNombreASCII_DBase_To_Name_Zone>:
    1638:	41 6d 62 69 65 6e 74 65 00 00 00 4c 75 6d 69 6e     Ambiente...Lumin
    1648:	61 72 69 61 00 00 50 6f 73 69 63 69 6f 6e 00 00     aria..Posicion..
    1658:	00 4f 74 72 6f 73 00 00 00 00 00 00                 .Otros......

00001664 <__ctors_end>:
    1664:	11 24       	eor	r1, r1
    1666:	1f be       	out	0x3f, r1	; 63
    1668:	cf ef       	ldi	r28, 0xFF	; 255
    166a:	d0 e1       	ldi	r29, 0x10	; 16
    166c:	de bf       	out	0x3e, r29	; 62
    166e:	cd bf       	out	0x3d, r28	; 61

00001670 <__do_copy_data>:
    1670:	17 e0       	ldi	r17, 0x07	; 7
    1672:	a0 e0       	ldi	r26, 0x00	; 0
    1674:	b1 e0       	ldi	r27, 0x01	; 1
    1676:	e8 ee       	ldi	r30, 0xE8	; 232
    1678:	f6 ea       	ldi	r31, 0xA6	; 166
    167a:	00 e0       	ldi	r16, 0x00	; 0
    167c:	0b bf       	out	0x3b, r16	; 59
    167e:	02 c0       	rjmp	.+4      	; 0x1684 <__do_copy_data+0x14>
    1680:	07 90       	elpm	r0, Z+
    1682:	0d 92       	st	X+, r0
    1684:	ae 38       	cpi	r26, 0x8E	; 142
    1686:	b1 07       	cpc	r27, r17
    1688:	d9 f7       	brne	.-10     	; 0x1680 <__do_copy_data+0x10>

0000168a <__do_clear_bss>:
    168a:	2b e0       	ldi	r18, 0x0B	; 11
    168c:	ae e8       	ldi	r26, 0x8E	; 142
    168e:	b7 e0       	ldi	r27, 0x07	; 7
    1690:	01 c0       	rjmp	.+2      	; 0x1694 <.do_clear_bss_start>

00001692 <.do_clear_bss_loop>:
    1692:	1d 92       	st	X+, r1

00001694 <.do_clear_bss_start>:
    1694:	aa 33       	cpi	r26, 0x3A	; 58
    1696:	b2 07       	cpc	r27, r18
    1698:	e1 f7       	brne	.-8      	; 0x1692 <.do_clear_bss_loop>
    169a:	0e 94 3d 2c 	call	0x587a	; 0x587a <main>
    169e:	0c 94 72 53 	jmp	0xa6e4	; 0xa6e4 <_exit>

000016a2 <__bad_interrupt>:
    16a2:	0c 94 00 00 	jmp	0	; 0x0 <__vectors>

000016a6 <InitBuzzer>:
    16a6:	e4 e0       	ldi	r30, 0x04	; 4
    16a8:	f8 e0       	ldi	r31, 0x08	; 8
    16aa:	80 81       	ld	r24, Z
    16ac:	81 60       	ori	r24, 0x01	; 1
    16ae:	80 83       	st	Z, r24
    16b0:	e4 e6       	ldi	r30, 0x64	; 100
    16b2:	f0 e0       	ldi	r31, 0x00	; 0
    16b4:	80 81       	ld	r24, Z
    16b6:	80 61       	ori	r24, 0x10	; 16
    16b8:	80 83       	st	Z, r24
    16ba:	08 95       	ret

000016bc <Buzzer_SimpleSound0>:
    16bc:	80 91 ff 07 	lds	r24, 0x07FF	; 0x8007ff <Buzzer>
    16c0:	81 11       	cpse	r24, r1
    16c2:	0c c0       	rjmp	.+24     	; 0x16dc <Buzzer_SimpleSound0+0x20>
    16c4:	10 92 00 08 	sts	0x0800, r1	; 0x800800 <Buzzer+0x1>
    16c8:	80 91 65 00 	lds	r24, 0x0065	; 0x800065 <__TEXT_REGION_LENGTH__+0x7e0065>
    16cc:	80 61       	ori	r24, 0x10	; 16
    16ce:	80 93 65 00 	sts	0x0065, r24	; 0x800065 <__TEXT_REGION_LENGTH__+0x7e0065>
    16d2:	80 91 ff 07 	lds	r24, 0x07FF	; 0x8007ff <Buzzer>
    16d6:	8f 5f       	subi	r24, 0xFF	; 255
    16d8:	80 93 ff 07 	sts	0x07FF, r24	; 0x8007ff <Buzzer>
    16dc:	80 91 ff 07 	lds	r24, 0x07FF	; 0x8007ff <Buzzer>
    16e0:	81 30       	cpi	r24, 0x01	; 1
    16e2:	d1 f4       	brne	.+52     	; 0x1718 <Buzzer_SimpleSound0+0x5c>
    16e4:	80 91 00 08 	lds	r24, 0x0800	; 0x800800 <Buzzer+0x1>
    16e8:	8f 5f       	subi	r24, 0xFF	; 255
    16ea:	80 93 00 08 	sts	0x0800, r24	; 0x800800 <Buzzer+0x1>
    16ee:	88 30       	cpi	r24, 0x08	; 8
    16f0:	98 f0       	brcs	.+38     	; 0x1718 <Buzzer_SimpleSound0+0x5c>
    16f2:	80 91 65 00 	lds	r24, 0x0065	; 0x800065 <__TEXT_REGION_LENGTH__+0x7e0065>
    16f6:	8f 7e       	andi	r24, 0xEF	; 239
    16f8:	80 93 65 00 	sts	0x0065, r24	; 0x800065 <__TEXT_REGION_LENGTH__+0x7e0065>
    16fc:	10 92 00 08 	sts	0x0800, r1	; 0x800800 <Buzzer+0x1>
    1700:	10 92 ff 07 	sts	0x07FF, r1	; 0x8007ff <Buzzer>
    1704:	80 91 05 08 	lds	r24, 0x0805	; 0x800805 <Buzzer+0x6>
    1708:	8e 7f       	andi	r24, 0xFE	; 254
    170a:	80 93 05 08 	sts	0x0805, r24	; 0x800805 <Buzzer+0x6>
    170e:	80 91 04 08 	lds	r24, 0x0804	; 0x800804 <Buzzer+0x5>
    1712:	8d 7f       	andi	r24, 0xFD	; 253
    1714:	80 93 04 08 	sts	0x0804, r24	; 0x800804 <Buzzer+0x5>
    1718:	08 95       	ret

0000171a <Buzzer_AcceptSound0>:
    171a:	80 91 ff 07 	lds	r24, 0x07FF	; 0x8007ff <Buzzer>
    171e:	81 11       	cpse	r24, r1
    1720:	09 c0       	rjmp	.+18     	; 0x1734 <Buzzer_AcceptSound0+0x1a>
    1722:	10 92 00 08 	sts	0x0800, r1	; 0x800800 <Buzzer+0x1>
    1726:	10 92 01 08 	sts	0x0801, r1	; 0x800801 <Buzzer+0x2>
    172a:	80 91 ff 07 	lds	r24, 0x07FF	; 0x8007ff <Buzzer>
    172e:	8f 5f       	subi	r24, 0xFF	; 255
    1730:	80 93 ff 07 	sts	0x07FF, r24	; 0x8007ff <Buzzer>
    1734:	80 91 ff 07 	lds	r24, 0x07FF	; 0x8007ff <Buzzer>
    1738:	81 30       	cpi	r24, 0x01	; 1
    173a:	61 f5       	brne	.+88     	; 0x1794 <Buzzer_AcceptSound0+0x7a>
    173c:	80 91 65 00 	lds	r24, 0x0065	; 0x800065 <__TEXT_REGION_LENGTH__+0x7e0065>
    1740:	80 61       	ori	r24, 0x10	; 16
    1742:	80 93 65 00 	sts	0x0065, r24	; 0x800065 <__TEXT_REGION_LENGTH__+0x7e0065>
    1746:	80 91 01 08 	lds	r24, 0x0801	; 0x800801 <Buzzer+0x2>
    174a:	8f 5f       	subi	r24, 0xFF	; 255
    174c:	80 93 01 08 	sts	0x0801, r24	; 0x800801 <Buzzer+0x2>
    1750:	80 91 01 08 	lds	r24, 0x0801	; 0x800801 <Buzzer+0x2>
    1754:	81 30       	cpi	r24, 0x01	; 1
    1756:	29 f4       	brne	.+10     	; 0x1762 <Buzzer_AcceptSound0+0x48>
    1758:	83 e0       	ldi	r24, 0x03	; 3
    175a:	80 93 02 08 	sts	0x0802, r24	; 0x800802 <Buzzer+0x3>
    175e:	8d e0       	ldi	r24, 0x0D	; 13
    1760:	08 c0       	rjmp	.+16     	; 0x1772 <Buzzer_AcceptSound0+0x58>
    1762:	80 91 01 08 	lds	r24, 0x0801	; 0x800801 <Buzzer+0x2>
    1766:	82 30       	cpi	r24, 0x02	; 2
    1768:	39 f4       	brne	.+14     	; 0x1778 <Buzzer_AcceptSound0+0x5e>
    176a:	86 e0       	ldi	r24, 0x06	; 6
    176c:	80 93 02 08 	sts	0x0802, r24	; 0x800802 <Buzzer+0x3>
    1770:	8c e0       	ldi	r24, 0x0C	; 12
    1772:	80 93 03 08 	sts	0x0803, r24	; 0x800803 <Buzzer+0x4>
    1776:	09 c0       	rjmp	.+18     	; 0x178a <Buzzer_AcceptSound0+0x70>
    1778:	80 91 01 08 	lds	r24, 0x0801	; 0x800801 <Buzzer+0x2>
    177c:	83 30       	cpi	r24, 0x03	; 3
    177e:	29 f4       	brne	.+10     	; 0x178a <Buzzer_AcceptSound0+0x70>
    1780:	8e e1       	ldi	r24, 0x1E	; 30
    1782:	80 93 02 08 	sts	0x0802, r24	; 0x800802 <Buzzer+0x3>
    1786:	10 92 03 08 	sts	0x0803, r1	; 0x800803 <Buzzer+0x4>
    178a:	80 91 ff 07 	lds	r24, 0x07FF	; 0x8007ff <Buzzer>
    178e:	8f 5f       	subi	r24, 0xFF	; 255
    1790:	80 93 ff 07 	sts	0x07FF, r24	; 0x8007ff <Buzzer>
    1794:	80 91 ff 07 	lds	r24, 0x07FF	; 0x8007ff <Buzzer>
    1798:	82 30       	cpi	r24, 0x02	; 2
    179a:	a9 f4       	brne	.+42     	; 0x17c6 <Buzzer_AcceptSound0+0xac>
    179c:	80 91 00 08 	lds	r24, 0x0800	; 0x800800 <Buzzer+0x1>
    17a0:	8f 5f       	subi	r24, 0xFF	; 255
    17a2:	80 93 00 08 	sts	0x0800, r24	; 0x800800 <Buzzer+0x1>
    17a6:	90 91 02 08 	lds	r25, 0x0802	; 0x800802 <Buzzer+0x3>
    17aa:	89 13       	cpse	r24, r25
    17ac:	0c c0       	rjmp	.+24     	; 0x17c6 <Buzzer_AcceptSound0+0xac>
    17ae:	10 92 00 08 	sts	0x0800, r1	; 0x800800 <Buzzer+0x1>
    17b2:	80 91 65 00 	lds	r24, 0x0065	; 0x800065 <__TEXT_REGION_LENGTH__+0x7e0065>
    17b6:	8f 7e       	andi	r24, 0xEF	; 239
    17b8:	80 93 65 00 	sts	0x0065, r24	; 0x800065 <__TEXT_REGION_LENGTH__+0x7e0065>
    17bc:	80 91 ff 07 	lds	r24, 0x07FF	; 0x8007ff <Buzzer>
    17c0:	8f 5f       	subi	r24, 0xFF	; 255
    17c2:	80 93 ff 07 	sts	0x07FF, r24	; 0x8007ff <Buzzer>
    17c6:	80 91 ff 07 	lds	r24, 0x07FF	; 0x8007ff <Buzzer>
    17ca:	83 30       	cpi	r24, 0x03	; 3
    17cc:	e1 f4       	brne	.+56     	; 0x1806 <Buzzer_AcceptSound0+0xec>
    17ce:	80 91 01 08 	lds	r24, 0x0801	; 0x800801 <Buzzer+0x2>
    17d2:	83 30       	cpi	r24, 0x03	; 3
    17d4:	78 f4       	brcc	.+30     	; 0x17f4 <Buzzer_AcceptSound0+0xda>
    17d6:	80 91 00 08 	lds	r24, 0x0800	; 0x800800 <Buzzer+0x1>
    17da:	8f 5f       	subi	r24, 0xFF	; 255
    17dc:	80 93 00 08 	sts	0x0800, r24	; 0x800800 <Buzzer+0x1>
    17e0:	90 91 03 08 	lds	r25, 0x0803	; 0x800803 <Buzzer+0x4>
    17e4:	89 13       	cpse	r24, r25
    17e6:	0f c0       	rjmp	.+30     	; 0x1806 <Buzzer_AcceptSound0+0xec>
    17e8:	10 92 00 08 	sts	0x0800, r1	; 0x800800 <Buzzer+0x1>
    17ec:	81 e0       	ldi	r24, 0x01	; 1
    17ee:	80 93 ff 07 	sts	0x07FF, r24	; 0x8007ff <Buzzer>
    17f2:	08 95       	ret
    17f4:	80 91 04 08 	lds	r24, 0x0804	; 0x800804 <Buzzer+0x5>
    17f8:	8d 7f       	andi	r24, 0xFD	; 253
    17fa:	80 93 04 08 	sts	0x0804, r24	; 0x800804 <Buzzer+0x5>
    17fe:	10 92 01 08 	sts	0x0801, r1	; 0x800801 <Buzzer+0x2>
    1802:	10 92 ff 07 	sts	0x07FF, r1	; 0x8007ff <Buzzer>
    1806:	08 95       	ret

00001808 <BuzzerScheduler>:
    1808:	80 91 04 08 	lds	r24, 0x0804	; 0x800804 <Buzzer+0x5>
    180c:	81 ff       	sbrs	r24, 1
    180e:	0a c0       	rjmp	.+20     	; 0x1824 <BuzzerScheduler+0x1c>
    1810:	80 91 05 08 	lds	r24, 0x0805	; 0x800805 <Buzzer+0x6>
    1814:	80 fd       	sbrc	r24, 0
    1816:	0c 94 5e 0b 	jmp	0x16bc	; 0x16bc <Buzzer_SimpleSound0>
    181a:	80 91 05 08 	lds	r24, 0x0805	; 0x800805 <Buzzer+0x6>
    181e:	81 fd       	sbrc	r24, 1
    1820:	0c 94 8d 0b 	jmp	0x171a	; 0x171a <Buzzer_AcceptSound0>
    1824:	08 95       	ret

00001826 <TIMER0_IsActiveFading>:
    1826:	80 91 37 08 	lds	r24, 0x0837	; 0x800837 <ps_fading_inbk>
    182a:	80 ff       	sbrs	r24, 0
    182c:	05 c0       	rjmp	.+10     	; 0x1838 <TIMER0_IsActiveFading+0x12>
    182e:	80 91 37 08 	lds	r24, 0x0837	; 0x800837 <ps_fading_inbk>
    1832:	82 60       	ori	r24, 0x02	; 2
    1834:	80 93 37 08 	sts	0x0837, r24	; 0x800837 <ps_fading_inbk>
    1838:	08 95       	ret

0000183a <TimmingHandler_BlinkCaption>:
    183a:	80 91 07 08 	lds	r24, 0x0807	; 0x800807 <bfCommonProcess0>
    183e:	82 60       	ori	r24, 0x02	; 2
    1840:	80 93 07 08 	sts	0x0807, r24	; 0x800807 <bfCommonProcess0>
    1844:	08 95       	ret

00001846 <ScheduleTimmerKeepAlive_BLGLCD>:
    1846:	80 91 0f 08 	lds	r24, 0x080F	; 0x80080f <DimmHandler+0x7>
    184a:	81 30       	cpi	r24, 0x01	; 1
    184c:	61 f4       	brne	.+24     	; 0x1866 <ScheduleTimmerKeepAlive_BLGLCD+0x20>
    184e:	10 92 0e 08 	sts	0x080E, r1	; 0x80080e <DimmHandler+0x6>
    1852:	10 92 0d 08 	sts	0x080D, r1	; 0x80080d <DimmHandler+0x5>
    1856:	82 e0       	ldi	r24, 0x02	; 2
    1858:	80 93 08 08 	sts	0x0808, r24	; 0x800808 <DimmHandler>
    185c:	80 91 0f 08 	lds	r24, 0x080F	; 0x80080f <DimmHandler+0x7>
    1860:	8f 5f       	subi	r24, 0xFF	; 255
    1862:	80 93 0f 08 	sts	0x080F, r24	; 0x80080f <DimmHandler+0x7>
    1866:	80 91 0f 08 	lds	r24, 0x080F	; 0x80080f <DimmHandler+0x7>
    186a:	82 30       	cpi	r24, 0x02	; 2
    186c:	89 f4       	brne	.+34     	; 0x1890 <ScheduleTimmerKeepAlive_BLGLCD+0x4a>
    186e:	80 91 0d 08 	lds	r24, 0x080D	; 0x80080d <DimmHandler+0x5>
    1872:	90 91 0e 08 	lds	r25, 0x080E	; 0x80080e <DimmHandler+0x6>
    1876:	01 96       	adiw	r24, 0x01	; 1
    1878:	90 93 0e 08 	sts	0x080E, r25	; 0x80080e <DimmHandler+0x6>
    187c:	80 93 0d 08 	sts	0x080D, r24	; 0x80080d <DimmHandler+0x5>
    1880:	80 3a       	cpi	r24, 0xA0	; 160
    1882:	9f 40       	sbci	r25, 0x0F	; 15
    1884:	29 f4       	brne	.+10     	; 0x1890 <ScheduleTimmerKeepAlive_BLGLCD+0x4a>
    1886:	81 e0       	ldi	r24, 0x01	; 1
    1888:	80 93 08 08 	sts	0x0808, r24	; 0x800808 <DimmHandler>
    188c:	10 92 0f 08 	sts	0x080F, r1	; 0x80080f <DimmHandler+0x7>
    1890:	08 95       	ret

00001892 <PWM_Handler_BackLight_GLCD>:
    1892:	80 91 0b 08 	lds	r24, 0x080B	; 0x80080b <DimmHandler+0x3>
    1896:	8f 5f       	subi	r24, 0xFF	; 255
    1898:	80 93 0b 08 	sts	0x080B, r24	; 0x80080b <DimmHandler+0x3>
    189c:	80 91 0b 08 	lds	r24, 0x080B	; 0x80080b <DimmHandler+0x3>
    18a0:	8c 30       	cpi	r24, 0x0C	; 12
    18a2:	49 f4       	brne	.+18     	; 0x18b6 <PWM_Handler_BackLight_GLCD+0x24>
    18a4:	10 92 0b 08 	sts	0x080B, r1	; 0x80080b <DimmHandler+0x3>
    18a8:	80 91 0c 08 	lds	r24, 0x080C	; 0x80080c <DimmHandler+0x4>
    18ac:	88 23       	and	r24, r24
    18ae:	11 f0       	breq	.+4      	; 0x18b4 <PWM_Handler_BackLight_GLCD+0x22>
    18b0:	dc 98       	cbi	0x1b, 4	; 27
    18b2:	01 c0       	rjmp	.+2      	; 0x18b6 <PWM_Handler_BackLight_GLCD+0x24>
    18b4:	dc 9a       	sbi	0x1b, 4	; 27
    18b6:	90 91 0b 08 	lds	r25, 0x080B	; 0x80080b <DimmHandler+0x3>
    18ba:	80 91 0c 08 	lds	r24, 0x080C	; 0x80080c <DimmHandler+0x4>
    18be:	98 13       	cpse	r25, r24
    18c0:	01 c0       	rjmp	.+2      	; 0x18c4 <PWM_Handler_BackLight_GLCD+0x32>
    18c2:	dc 9a       	sbi	0x1b, 4	; 27
    18c4:	08 95       	ret

000018c6 <SchedulerEvent_PWM_BLGLCD>:
    18c6:	20 91 08 08 	lds	r18, 0x0808	; 0x800808 <DimmHandler>
    18ca:	21 30       	cpi	r18, 0x01	; 1
    18cc:	09 f5       	brne	.+66     	; 0x1910 <SchedulerEvent_PWM_BLGLCD+0x4a>
    18ce:	80 91 09 08 	lds	r24, 0x0809	; 0x800809 <DimmHandler+0x1>
    18d2:	90 91 0a 08 	lds	r25, 0x080A	; 0x80080a <DimmHandler+0x2>
    18d6:	01 96       	adiw	r24, 0x01	; 1
    18d8:	90 93 0a 08 	sts	0x080A, r25	; 0x80080a <DimmHandler+0x2>
    18dc:	80 93 09 08 	sts	0x0809, r24	; 0x800809 <DimmHandler+0x1>
    18e0:	81 3b       	cpi	r24, 0xB1	; 177
    18e2:	91 40       	sbci	r25, 0x01	; 1
    18e4:	11 f5       	brne	.+68     	; 0x192a <SchedulerEvent_PWM_BLGLCD+0x64>
    18e6:	10 92 0a 08 	sts	0x080A, r1	; 0x80080a <DimmHandler+0x2>
    18ea:	10 92 09 08 	sts	0x0809, r1	; 0x800809 <DimmHandler+0x1>
    18ee:	80 91 0c 08 	lds	r24, 0x080C	; 0x80080c <DimmHandler+0x4>
    18f2:	82 30       	cpi	r24, 0x02	; 2
    18f4:	30 f0       	brcs	.+12     	; 0x1902 <SchedulerEvent_PWM_BLGLCD+0x3c>
    18f6:	80 91 0c 08 	lds	r24, 0x080C	; 0x80080c <DimmHandler+0x4>
    18fa:	81 50       	subi	r24, 0x01	; 1
    18fc:	80 93 0c 08 	sts	0x080C, r24	; 0x80080c <DimmHandler+0x4>
    1900:	02 c0       	rjmp	.+4      	; 0x1906 <SchedulerEvent_PWM_BLGLCD+0x40>
    1902:	20 93 0c 08 	sts	0x080C, r18	; 0x80080c <DimmHandler+0x4>
    1906:	80 91 0c 08 	lds	r24, 0x080C	; 0x80080c <DimmHandler+0x4>
    190a:	81 30       	cpi	r24, 0x01	; 1
    190c:	71 f4       	brne	.+28     	; 0x192a <SchedulerEvent_PWM_BLGLCD+0x64>
    190e:	0b c0       	rjmp	.+22     	; 0x1926 <SchedulerEvent_PWM_BLGLCD+0x60>
    1910:	80 91 08 08 	lds	r24, 0x0808	; 0x800808 <DimmHandler>
    1914:	82 30       	cpi	r24, 0x02	; 2
    1916:	49 f4       	brne	.+18     	; 0x192a <SchedulerEvent_PWM_BLGLCD+0x64>
    1918:	8c e0       	ldi	r24, 0x0C	; 12
    191a:	80 93 0c 08 	sts	0x080C, r24	; 0x80080c <DimmHandler+0x4>
    191e:	10 92 0a 08 	sts	0x080A, r1	; 0x80080a <DimmHandler+0x2>
    1922:	10 92 09 08 	sts	0x0809, r1	; 0x800809 <DimmHandler+0x1>
    1926:	10 92 08 08 	sts	0x0808, r1	; 0x800808 <DimmHandler>
    192a:	0c 94 49 0c 	jmp	0x1892	; 0x1892 <PWM_Handler_BackLight_GLCD>

0000192e <updatedc>:
    192e:	cf 92       	push	r12
    1930:	df 92       	push	r13
    1932:	ef 92       	push	r14
    1934:	ff 92       	push	r15
    1936:	0f 93       	push	r16
    1938:	1f 93       	push	r17
    193a:	cf 93       	push	r28
    193c:	df 93       	push	r29
    193e:	eb 01       	movw	r28, r22
    1940:	e8 2f       	mov	r30, r24
    1942:	f0 e0       	ldi	r31, 0x00	; 0
    1944:	ee 0f       	add	r30, r30
    1946:	ff 1f       	adc	r31, r31
    1948:	ee 5f       	subi	r30, 0xFE	; 254
    194a:	fe 4f       	sbci	r31, 0xFE	; 254
    194c:	00 81       	ld	r16, Z
    194e:	11 81       	ldd	r17, Z+1	; 0x01
    1950:	80 91 01 01 	lds	r24, 0x0101	; 0x800101 <NUM_ELEM_DENTRO_BAR>
    1954:	60 91 00 01 	lds	r22, 0x0100	; 0x800100 <__DATA_REGION_ORIGIN__>
    1958:	86 9f       	mul	r24, r22
    195a:	b0 01       	movw	r22, r0
    195c:	11 24       	eor	r1, r1
    195e:	07 2e       	mov	r0, r23
    1960:	00 0c       	add	r0, r0
    1962:	88 0b       	sbc	r24, r24
    1964:	99 0b       	sbc	r25, r25
    1966:	0e 94 23 50 	call	0xa046	; 0xa046 <__floatsisf>
    196a:	9b 01       	movw	r18, r22
    196c:	ac 01       	movw	r20, r24
    196e:	60 e0       	ldi	r22, 0x00	; 0
    1970:	70 ec       	ldi	r23, 0xC0	; 192
    1972:	8f e7       	ldi	r24, 0x7F	; 127
    1974:	94 ec       	ldi	r25, 0xC4	; 196
    1976:	0e 94 80 4f 	call	0x9f00	; 0x9f00 <__divsf3>
    197a:	6b 01       	movw	r12, r22
    197c:	7c 01       	movw	r14, r24
    197e:	be 01       	movw	r22, r28
    1980:	80 e0       	ldi	r24, 0x00	; 0
    1982:	90 e0       	ldi	r25, 0x00	; 0
    1984:	0e 94 21 50 	call	0xa042	; 0xa042 <__floatunsisf>
    1988:	9b 01       	movw	r18, r22
    198a:	ac 01       	movw	r20, r24
    198c:	c7 01       	movw	r24, r14
    198e:	b6 01       	movw	r22, r12
    1990:	0e 94 d8 50 	call	0xa1b0	; 0xa1b0 <__mulsf3>
    1994:	20 e0       	ldi	r18, 0x00	; 0
    1996:	30 ec       	ldi	r19, 0xC0	; 192
    1998:	4f e7       	ldi	r20, 0x7F	; 127
    199a:	54 e4       	ldi	r21, 0x44	; 68
    199c:	0e 94 0f 4f 	call	0x9e1e	; 0x9e1e <__addsf3>
    19a0:	0e 94 f2 4f 	call	0x9fe4	; 0x9fe4 <__fixunssfsi>
    19a4:	f8 01       	movw	r30, r16
    19a6:	71 83       	std	Z+1, r23	; 0x01
    19a8:	60 83       	st	Z, r22
    19aa:	df 91       	pop	r29
    19ac:	cf 91       	pop	r28
    19ae:	1f 91       	pop	r17
    19b0:	0f 91       	pop	r16
    19b2:	ff 90       	pop	r15
    19b4:	ef 90       	pop	r14
    19b6:	df 90       	pop	r13
    19b8:	cf 90       	pop	r12
    19ba:	08 95       	ret

000019bc <dimming_up>:
    19bc:	ef 92       	push	r14
    19be:	ff 92       	push	r15
    19c0:	1f 93       	push	r17
    19c2:	cf 93       	push	r28
    19c4:	df 93       	push	r29
    19c6:	18 2f       	mov	r17, r24
    19c8:	e8 2e       	mov	r14, r24
    19ca:	f1 2c       	mov	r15, r1
    19cc:	84 e2       	ldi	r24, 0x24	; 36
    19ce:	18 9f       	mul	r17, r24
    19d0:	e0 01       	movw	r28, r0
    19d2:	11 24       	eor	r1, r1
    19d4:	ce 59       	subi	r28, 0x9E	; 158
    19d6:	d5 4f       	sbci	r29, 0xF5	; 245
    19d8:	8f 8d       	ldd	r24, Y+31	; 0x1f
    19da:	81 11       	cpse	r24, r1
    19dc:	1b c0       	rjmp	.+54     	; 0x1a14 <dimming_up+0x58>
    19de:	88 85       	ldd	r24, Y+8	; 0x08
    19e0:	99 85       	ldd	r25, Y+9	; 0x09
    19e2:	01 97       	sbiw	r24, 0x01	; 1
    19e4:	b9 f4       	brne	.+46     	; 0x1a14 <dimming_up+0x58>
    19e6:	2d 8d       	ldd	r18, Y+29	; 0x1d
    19e8:	3e 8d       	ldd	r19, Y+30	; 0x1e
    19ea:	88 85       	ldd	r24, Y+8	; 0x08
    19ec:	99 85       	ldd	r25, Y+9	; 0x09
    19ee:	82 0f       	add	r24, r18
    19f0:	93 1f       	adc	r25, r19
    19f2:	99 87       	std	Y+9, r25	; 0x09
    19f4:	88 87       	std	Y+8, r24	; 0x08
    19f6:	60 e0       	ldi	r22, 0x00	; 0
    19f8:	80 e0       	ldi	r24, 0x00	; 0
    19fa:	0e 94 a1 3f 	call	0x7f42	; 0x7f42 <playsound>
    19fe:	80 91 37 08 	lds	r24, 0x0837	; 0x800837 <ps_fading_inbk>
    1a02:	82 ff       	sbrs	r24, 2
    1a04:	0d c0       	rjmp	.+26     	; 0x1a20 <dimming_up+0x64>
    1a06:	68 85       	ldd	r22, Y+8	; 0x08
    1a08:	79 85       	ldd	r23, Y+9	; 0x09
    1a0a:	4f ef       	ldi	r20, 0xFF	; 255
    1a0c:	81 2f       	mov	r24, r17
    1a0e:	0e 94 57 1f 	call	0x3eae	; 0x3eae <direct_fillclear_barlevel>
    1a12:	06 c0       	rjmp	.+12     	; 0x1a20 <dimming_up+0x64>
    1a14:	e0 91 30 02 	lds	r30, 0x0230	; 0x800230 <graphbarlevel>
    1a18:	f0 91 31 02 	lds	r31, 0x0231	; 0x800231 <graphbarlevel+0x1>
    1a1c:	81 2f       	mov	r24, r17
    1a1e:	09 95       	icall
    1a20:	84 e2       	ldi	r24, 0x24	; 36
    1a22:	8e 9d       	mul	r24, r14
    1a24:	f0 01       	movw	r30, r0
    1a26:	8f 9d       	mul	r24, r15
    1a28:	f0 0d       	add	r31, r0
    1a2a:	11 24       	eor	r1, r1
    1a2c:	ee 59       	subi	r30, 0x9E	; 158
    1a2e:	f5 4f       	sbci	r31, 0xF5	; 245
    1a30:	60 85       	ldd	r22, Z+8	; 0x08
    1a32:	71 85       	ldd	r23, Z+9	; 0x09
    1a34:	81 2f       	mov	r24, r17
    1a36:	df 91       	pop	r29
    1a38:	cf 91       	pop	r28
    1a3a:	1f 91       	pop	r17
    1a3c:	ff 90       	pop	r15
    1a3e:	ef 90       	pop	r14
    1a40:	0c 94 97 0c 	jmp	0x192e	; 0x192e <updatedc>

00001a44 <dimming_down>:
    1a44:	ef 92       	push	r14
    1a46:	ff 92       	push	r15
    1a48:	1f 93       	push	r17
    1a4a:	cf 93       	push	r28
    1a4c:	df 93       	push	r29
    1a4e:	18 2f       	mov	r17, r24
    1a50:	e8 2e       	mov	r14, r24
    1a52:	f1 2c       	mov	r15, r1
    1a54:	84 e2       	ldi	r24, 0x24	; 36
    1a56:	18 9f       	mul	r17, r24
    1a58:	e0 01       	movw	r28, r0
    1a5a:	11 24       	eor	r1, r1
    1a5c:	ce 59       	subi	r28, 0x9E	; 158
    1a5e:	d5 4f       	sbci	r29, 0xF5	; 245
    1a60:	28 85       	ldd	r18, Y+8	; 0x08
    1a62:	39 85       	ldd	r19, Y+9	; 0x09
    1a64:	8d 8d       	ldd	r24, Y+29	; 0x1d
    1a66:	9e 8d       	ldd	r25, Y+30	; 0x1e
    1a68:	82 17       	cp	r24, r18
    1a6a:	93 07       	cpc	r25, r19
    1a6c:	38 f1       	brcs	.+78     	; 0x1abc <dimming_down+0x78>
    1a6e:	8f 8d       	ldd	r24, Y+31	; 0x1f
    1a70:	81 11       	cpse	r24, r1
    1a72:	24 c0       	rjmp	.+72     	; 0x1abc <dimming_down+0x78>
    1a74:	28 85       	ldd	r18, Y+8	; 0x08
    1a76:	39 85       	ldd	r19, Y+9	; 0x09
    1a78:	8d 8d       	ldd	r24, Y+29	; 0x1d
    1a7a:	9e 8d       	ldd	r25, Y+30	; 0x1e
    1a7c:	28 17       	cp	r18, r24
    1a7e:	39 07       	cpc	r19, r25
    1a80:	e9 f4       	brne	.+58     	; 0x1abc <dimming_down+0x78>
    1a82:	60 e0       	ldi	r22, 0x00	; 0
    1a84:	80 e0       	ldi	r24, 0x00	; 0
    1a86:	0e 94 a1 3f 	call	0x7f42	; 0x7f42 <playsound>
    1a8a:	80 91 37 08 	lds	r24, 0x0837	; 0x800837 <ps_fading_inbk>
    1a8e:	82 ff       	sbrs	r24, 2
    1a90:	0a c0       	rjmp	.+20     	; 0x1aa6 <dimming_down+0x62>
    1a92:	6d 8d       	ldd	r22, Y+29	; 0x1d
    1a94:	7e 8d       	ldd	r23, Y+30	; 0x1e
    1a96:	80 91 00 01 	lds	r24, 0x0100	; 0x800100 <__DATA_REGION_ORIGIN__>
    1a9a:	68 0f       	add	r22, r24
    1a9c:	71 1d       	adc	r23, r1
    1a9e:	40 e0       	ldi	r20, 0x00	; 0
    1aa0:	81 2f       	mov	r24, r17
    1aa2:	0e 94 57 1f 	call	0x3eae	; 0x3eae <direct_fillclear_barlevel>
    1aa6:	84 e2       	ldi	r24, 0x24	; 36
    1aa8:	8e 9d       	mul	r24, r14
    1aaa:	f0 01       	movw	r30, r0
    1aac:	8f 9d       	mul	r24, r15
    1aae:	f0 0d       	add	r31, r0
    1ab0:	11 24       	eor	r1, r1
    1ab2:	ee 59       	subi	r30, 0x9E	; 158
    1ab4:	f5 4f       	sbci	r31, 0xF5	; 245
    1ab6:	11 86       	std	Z+9, r1	; 0x09
    1ab8:	10 86       	std	Z+8, r1	; 0x08
    1aba:	06 c0       	rjmp	.+12     	; 0x1ac8 <dimming_down+0x84>
    1abc:	e0 91 32 02 	lds	r30, 0x0232	; 0x800232 <graphbarlevel+0x2>
    1ac0:	f0 91 33 02 	lds	r31, 0x0233	; 0x800233 <graphbarlevel+0x3>
    1ac4:	81 2f       	mov	r24, r17
    1ac6:	09 95       	icall
    1ac8:	84 e2       	ldi	r24, 0x24	; 36
    1aca:	8e 9d       	mul	r24, r14
    1acc:	f0 01       	movw	r30, r0
    1ace:	8f 9d       	mul	r24, r15
    1ad0:	f0 0d       	add	r31, r0
    1ad2:	11 24       	eor	r1, r1
    1ad4:	ee 59       	subi	r30, 0x9E	; 158
    1ad6:	f5 4f       	sbci	r31, 0xF5	; 245
    1ad8:	60 85       	ldd	r22, Z+8	; 0x08
    1ada:	71 85       	ldd	r23, Z+9	; 0x09
    1adc:	81 2f       	mov	r24, r17
    1ade:	df 91       	pop	r29
    1ae0:	cf 91       	pop	r28
    1ae2:	1f 91       	pop	r17
    1ae4:	ff 90       	pop	r15
    1ae6:	ef 90       	pop	r14
    1ae8:	0c 94 97 0c 	jmp	0x192e	; 0x192e <updatedc>

00001aec <dimming>:
    1aec:	61 30       	cpi	r22, 0x01	; 1
    1aee:	11 f4       	brne	.+4      	; 0x1af4 <dimming+0x8>
    1af0:	0c 94 de 0c 	jmp	0x19bc	; 0x19bc <dimming_up>
    1af4:	0c 94 22 0d 	jmp	0x1a44	; 0x1a44 <dimming_down>

00001af8 <if_fadingactive_nextdc_else_dc>:
    1af8:	94 e2       	ldi	r25, 0x24	; 36
    1afa:	89 9f       	mul	r24, r25
    1afc:	f0 01       	movw	r30, r0
    1afe:	11 24       	eor	r1, r1
    1b00:	df 01       	movw	r26, r30
    1b02:	a6 58       	subi	r26, 0x86	; 134
    1b04:	b5 4f       	sbci	r27, 0xF5	; 245
    1b06:	8c 91       	ld	r24, X
    1b08:	ee 59       	subi	r30, 0x9E	; 158
    1b0a:	f5 4f       	sbci	r31, 0xF5	; 245
    1b0c:	80 ff       	sbrs	r24, 0
    1b0e:	03 c0       	rjmp	.+6      	; 0x1b16 <if_fadingactive_nextdc_else_dc+0x1e>
    1b10:	85 85       	ldd	r24, Z+13	; 0x0d
    1b12:	96 85       	ldd	r25, Z+14	; 0x0e
    1b14:	08 95       	ret
    1b16:	80 85       	ldd	r24, Z+8	; 0x08
    1b18:	91 85       	ldd	r25, Z+9	; 0x09
    1b1a:	08 95       	ret

00001b1c <setting_preupdate_dc>:
    1b1c:	24 e2       	ldi	r18, 0x24	; 36
    1b1e:	82 9f       	mul	r24, r18
    1b20:	c0 01       	movw	r24, r0
    1b22:	11 24       	eor	r1, r1
    1b24:	fc 01       	movw	r30, r24
    1b26:	ee 59       	subi	r30, 0x9E	; 158
    1b28:	f5 4f       	sbci	r31, 0xF5	; 245
    1b2a:	86 81       	ldd	r24, Z+6	; 0x06
    1b2c:	81 30       	cpi	r24, 0x01	; 1
    1b2e:	31 f4       	brne	.+12     	; 0x1b3c <setting_preupdate_dc+0x20>
    1b30:	87 81       	ldd	r24, Z+7	; 0x07
    1b32:	81 30       	cpi	r24, 0x01	; 1
    1b34:	59 f4       	brne	.+22     	; 0x1b4c <setting_preupdate_dc+0x30>
    1b36:	76 87       	std	Z+14, r23	; 0x0e
    1b38:	65 87       	std	Z+13, r22	; 0x0d
    1b3a:	08 95       	ret
    1b3c:	86 81       	ldd	r24, Z+6	; 0x06
    1b3e:	81 11       	cpse	r24, r1
    1b40:	05 c0       	rjmp	.+10     	; 0x1b4c <setting_preupdate_dc+0x30>
    1b42:	87 81       	ldd	r24, Z+7	; 0x07
    1b44:	81 11       	cpse	r24, r1
    1b46:	02 c0       	rjmp	.+4      	; 0x1b4c <setting_preupdate_dc+0x30>
    1b48:	71 87       	std	Z+9, r23	; 0x09
    1b4a:	60 87       	std	Z+8, r22	; 0x08
    1b4c:	08 95       	ret

00001b4e <updatedc_acctypeofload>:
    1b4e:	94 e2       	ldi	r25, 0x24	; 36
    1b50:	89 9f       	mul	r24, r25
    1b52:	f0 01       	movw	r30, r0
    1b54:	11 24       	eor	r1, r1
    1b56:	ee 59       	subi	r30, 0x9E	; 158
    1b58:	f5 4f       	sbci	r31, 0xF5	; 245
    1b5a:	96 81       	ldd	r25, Z+6	; 0x06
    1b5c:	91 30       	cpi	r25, 0x01	; 1
    1b5e:	29 f4       	brne	.+10     	; 0x1b6a <updatedc_acctypeofload+0x1c>
    1b60:	97 81       	ldd	r25, Z+7	; 0x07
    1b62:	91 30       	cpi	r25, 0x01	; 1
    1b64:	61 f4       	brne	.+24     	; 0x1b7e <updatedc_acctypeofload+0x30>
    1b66:	0c 94 c2 1a 	jmp	0x3584	; 0x3584 <FindKtesOfTimeToExcFading_And_SignNewInitOfFadingZone>
    1b6a:	96 81       	ldd	r25, Z+6	; 0x06
    1b6c:	91 11       	cpse	r25, r1
    1b6e:	07 c0       	rjmp	.+14     	; 0x1b7e <updatedc_acctypeofload+0x30>
    1b70:	97 81       	ldd	r25, Z+7	; 0x07
    1b72:	91 11       	cpse	r25, r1
    1b74:	04 c0       	rjmp	.+8      	; 0x1b7e <updatedc_acctypeofload+0x30>
    1b76:	60 85       	ldd	r22, Z+8	; 0x08
    1b78:	71 85       	ldd	r23, Z+9	; 0x09
    1b7a:	0c 94 97 0c 	jmp	0x192e	; 0x192e <updatedc>
    1b7e:	08 95       	ret

00001b80 <dcporcentz>:
    1b80:	cf 92       	push	r12
    1b82:	df 92       	push	r13
    1b84:	ef 92       	push	r14
    1b86:	ff 92       	push	r15
    1b88:	0f 93       	push	r16
    1b8a:	1f 93       	push	r17
    1b8c:	cf 93       	push	r28
    1b8e:	df 93       	push	r29
    1b90:	cd b7       	in	r28, 0x3d	; 61
    1b92:	de b7       	in	r29, 0x3e	; 62
    1b94:	27 97       	sbiw	r28, 0x07	; 7
    1b96:	0f b6       	in	r0, 0x3f	; 63
    1b98:	f8 94       	cli
    1b9a:	de bf       	out	0x3e, r29	; 62
    1b9c:	0f be       	out	0x3f, r0	; 63
    1b9e:	cd bf       	out	0x3d, r28	; 61
    1ba0:	10 91 01 01 	lds	r17, 0x0101	; 0x800101 <NUM_ELEM_DENTRO_BAR>
    1ba4:	00 91 00 01 	lds	r16, 0x0100	; 0x800100 <__DATA_REGION_ORIGIN__>
    1ba8:	bc 01       	movw	r22, r24
    1baa:	80 e0       	ldi	r24, 0x00	; 0
    1bac:	90 e0       	ldi	r25, 0x00	; 0
    1bae:	0e 94 21 50 	call	0xa042	; 0xa042 <__floatunsisf>
    1bb2:	20 e0       	ldi	r18, 0x00	; 0
    1bb4:	30 e0       	ldi	r19, 0x00	; 0
    1bb6:	48 ec       	ldi	r20, 0xC8	; 200
    1bb8:	52 e4       	ldi	r21, 0x42	; 66
    1bba:	0e 94 d8 50 	call	0xa1b0	; 0xa1b0 <__mulsf3>
    1bbe:	6b 01       	movw	r12, r22
    1bc0:	7c 01       	movw	r14, r24
    1bc2:	10 9f       	mul	r17, r16
    1bc4:	b0 01       	movw	r22, r0
    1bc6:	11 24       	eor	r1, r1
    1bc8:	07 2e       	mov	r0, r23
    1bca:	00 0c       	add	r0, r0
    1bcc:	88 0b       	sbc	r24, r24
    1bce:	99 0b       	sbc	r25, r25
    1bd0:	0e 94 23 50 	call	0xa046	; 0xa046 <__floatsisf>
    1bd4:	9b 01       	movw	r18, r22
    1bd6:	ac 01       	movw	r20, r24
    1bd8:	c7 01       	movw	r24, r14
    1bda:	b6 01       	movw	r22, r12
    1bdc:	0e 94 80 4f 	call	0x9f00	; 0x9f00 <__divsf3>
    1be0:	9f 93       	push	r25
    1be2:	8f 93       	push	r24
    1be4:	7f 93       	push	r23
    1be6:	6f 93       	push	r22
    1be8:	84 e8       	ldi	r24, 0x84	; 132
    1bea:	97 e0       	ldi	r25, 0x07	; 7
    1bec:	9f 93       	push	r25
    1bee:	8f 93       	push	r24
    1bf0:	ce 01       	movw	r24, r28
    1bf2:	01 96       	adiw	r24, 0x01	; 1
    1bf4:	7c 01       	movw	r14, r24
    1bf6:	9f 93       	push	r25
    1bf8:	8f 93       	push	r24
    1bfa:	0e 94 e5 52 	call	0xa5ca	; 0xa5ca <sprintf>
    1bfe:	4f ef       	ldi	r20, 0xFF	; 255
    1c00:	64 e4       	ldi	r22, 0x44	; 68
    1c02:	75 e2       	ldi	r23, 0x25	; 37
    1c04:	86 e0       	ldi	r24, 0x06	; 6
    1c06:	90 e1       	ldi	r25, 0x10	; 16
    1c08:	0e 94 47 25 	call	0x4a8e	; 0x4a8e <ks0108SelectFont>
    1c0c:	00 e0       	ldi	r16, 0x00	; 0
    1c0e:	2c e0       	ldi	r18, 0x0C	; 12
    1c10:	44 e2       	ldi	r20, 0x24	; 36
    1c12:	6f e2       	ldi	r22, 0x2F	; 47
    1c14:	8a e0       	ldi	r24, 0x0A	; 10
    1c16:	0e 94 61 28 	call	0x50c2	; 0x50c2 <ks0108FillRect>
    1c1a:	6f e2       	ldi	r22, 0x2F	; 47
    1c1c:	8a e0       	ldi	r24, 0x0A	; 10
    1c1e:	0e 94 da 25 	call	0x4bb4	; 0x4bb4 <ks0108GotoXY>
    1c22:	c7 01       	movw	r24, r14
    1c24:	0e 94 e9 2b 	call	0x57d2	; 0x57d2 <ks0108Puts>
    1c28:	89 e8       	ldi	r24, 0x89	; 137
    1c2a:	97 e0       	ldi	r25, 0x07	; 7
    1c2c:	0e 94 e9 2b 	call	0x57d2	; 0x57d2 <ks0108Puts>
    1c30:	0f b6       	in	r0, 0x3f	; 63
    1c32:	f8 94       	cli
    1c34:	de bf       	out	0x3e, r29	; 62
    1c36:	0f be       	out	0x3f, r0	; 63
    1c38:	cd bf       	out	0x3d, r28	; 61
    1c3a:	27 96       	adiw	r28, 0x07	; 7
    1c3c:	0f b6       	in	r0, 0x3f	; 63
    1c3e:	f8 94       	cli
    1c40:	de bf       	out	0x3e, r29	; 62
    1c42:	0f be       	out	0x3f, r0	; 63
    1c44:	cd bf       	out	0x3d, r28	; 61
    1c46:	df 91       	pop	r29
    1c48:	cf 91       	pop	r28
    1c4a:	1f 91       	pop	r17
    1c4c:	0f 91       	pop	r16
    1c4e:	ff 90       	pop	r15
    1c50:	ef 90       	pop	r14
    1c52:	df 90       	pop	r13
    1c54:	cf 90       	pop	r12
    1c56:	08 95       	ret

00001c58 <_PreEx_DimmingUp>:
    1c58:	0f 93       	push	r16
    1c5a:	1f 93       	push	r17
    1c5c:	cf 93       	push	r28
    1c5e:	df 93       	push	r29
    1c60:	94 e2       	ldi	r25, 0x24	; 36
    1c62:	89 9f       	mul	r24, r25
    1c64:	80 01       	movw	r16, r0
    1c66:	11 24       	eor	r1, r1
    1c68:	e8 01       	movw	r28, r16
    1c6a:	ce 59       	subi	r28, 0x9E	; 158
    1c6c:	d5 4f       	sbci	r29, 0xF5	; 245
    1c6e:	9e 81       	ldd	r25, Y+6	; 0x06
    1c70:	91 30       	cpi	r25, 0x01	; 1
    1c72:	41 f5       	brne	.+80     	; 0x1cc4 <_PreEx_DimmingUp+0x6c>
    1c74:	f8 01       	movw	r30, r16
    1c76:	e6 58       	subi	r30, 0x86	; 134
    1c78:	f5 4f       	sbci	r31, 0xF5	; 245
    1c7a:	90 81       	ld	r25, Z
    1c7c:	90 fd       	sbrc	r25, 0
    1c7e:	22 c0       	rjmp	.+68     	; 0x1cc4 <_PreEx_DimmingUp+0x6c>
    1c80:	48 85       	ldd	r20, Y+8	; 0x08
    1c82:	59 85       	ldd	r21, Y+9	; 0x09
    1c84:	90 91 01 01 	lds	r25, 0x0101	; 0x800101 <NUM_ELEM_DENTRO_BAR>
    1c88:	20 91 00 01 	lds	r18, 0x0100	; 0x800100 <__DATA_REGION_ORIGIN__>
    1c8c:	92 9f       	mul	r25, r18
    1c8e:	90 01       	movw	r18, r0
    1c90:	11 24       	eor	r1, r1
    1c92:	42 17       	cp	r20, r18
    1c94:	53 07       	cpc	r21, r19
    1c96:	b0 f4       	brcc	.+44     	; 0x1cc4 <_PreEx_DimmingUp+0x6c>
    1c98:	28 85       	ldd	r18, Y+8	; 0x08
    1c9a:	39 85       	ldd	r19, Y+9	; 0x09
    1c9c:	2f 5f       	subi	r18, 0xFF	; 255
    1c9e:	3f 4f       	sbci	r19, 0xFF	; 255
    1ca0:	39 87       	std	Y+9, r19	; 0x09
    1ca2:	28 87       	std	Y+8, r18	; 0x08
    1ca4:	0e 94 de 0c 	call	0x19bc	; 0x19bc <dimming_up>
    1ca8:	f8 01       	movw	r30, r16
    1caa:	e5 58       	subi	r30, 0x85	; 133
    1cac:	f5 4f       	sbci	r31, 0xF5	; 245
    1cae:	80 81       	ld	r24, Z
    1cb0:	80 ff       	sbrs	r24, 0
    1cb2:	08 c0       	rjmp	.+16     	; 0x1cc4 <_PreEx_DimmingUp+0x6c>
    1cb4:	88 85       	ldd	r24, Y+8	; 0x08
    1cb6:	99 85       	ldd	r25, Y+9	; 0x09
    1cb8:	df 91       	pop	r29
    1cba:	cf 91       	pop	r28
    1cbc:	1f 91       	pop	r17
    1cbe:	0f 91       	pop	r16
    1cc0:	0c 94 c0 0d 	jmp	0x1b80	; 0x1b80 <dcporcentz>
    1cc4:	df 91       	pop	r29
    1cc6:	cf 91       	pop	r28
    1cc8:	1f 91       	pop	r17
    1cca:	0f 91       	pop	r16
    1ccc:	08 95       	ret

00001cce <_PreEx_DimmingDown>:
    1cce:	cf 93       	push	r28
    1cd0:	df 93       	push	r29
    1cd2:	c8 2f       	mov	r28, r24
    1cd4:	d0 e0       	ldi	r29, 0x00	; 0
    1cd6:	94 e2       	ldi	r25, 0x24	; 36
    1cd8:	89 9f       	mul	r24, r25
    1cda:	90 01       	movw	r18, r0
    1cdc:	11 24       	eor	r1, r1
    1cde:	f9 01       	movw	r30, r18
    1ce0:	ee 59       	subi	r30, 0x9E	; 158
    1ce2:	f5 4f       	sbci	r31, 0xF5	; 245
    1ce4:	96 81       	ldd	r25, Z+6	; 0x06
    1ce6:	91 30       	cpi	r25, 0x01	; 1
    1ce8:	a1 f5       	brne	.+104    	; 0x1d52 <_PreEx_DimmingDown+0x84>
    1cea:	d9 01       	movw	r26, r18
    1cec:	a6 58       	subi	r26, 0x86	; 134
    1cee:	b5 4f       	sbci	r27, 0xF5	; 245
    1cf0:	9c 91       	ld	r25, X
    1cf2:	90 fd       	sbrc	r25, 0
    1cf4:	2e c0       	rjmp	.+92     	; 0x1d52 <_PreEx_DimmingDown+0x84>
    1cf6:	40 85       	ldd	r20, Z+8	; 0x08
    1cf8:	51 85       	ldd	r21, Z+9	; 0x09
    1cfa:	45 2b       	or	r20, r21
    1cfc:	51 f1       	breq	.+84     	; 0x1d52 <_PreEx_DimmingDown+0x84>
    1cfe:	40 85       	ldd	r20, Z+8	; 0x08
    1d00:	51 85       	ldd	r21, Z+9	; 0x09
    1d02:	41 50       	subi	r20, 0x01	; 1
    1d04:	51 09       	sbc	r21, r1
    1d06:	51 87       	std	Z+9, r21	; 0x09
    1d08:	40 87       	std	Z+8, r20	; 0x08
    1d0a:	60 85       	ldd	r22, Z+8	; 0x08
    1d0c:	71 85       	ldd	r23, Z+9	; 0x09
    1d0e:	45 8d       	ldd	r20, Z+29	; 0x1d
    1d10:	56 8d       	ldd	r21, Z+30	; 0x1e
    1d12:	46 17       	cp	r20, r22
    1d14:	57 07       	cpc	r21, r23
    1d16:	30 f0       	brcs	.+12     	; 0x1d24 <_PreEx_DimmingDown+0x56>
    1d18:	f9 01       	movw	r30, r18
    1d1a:	e2 59       	subi	r30, 0x92	; 146
    1d1c:	f5 4f       	sbci	r31, 0xF5	; 245
    1d1e:	90 81       	ld	r25, Z
    1d20:	9e 7f       	andi	r25, 0xFE	; 254
    1d22:	90 83       	st	Z, r25
    1d24:	0e 94 22 0d 	call	0x1a44	; 0x1a44 <dimming_down>
    1d28:	24 e2       	ldi	r18, 0x24	; 36
    1d2a:	2c 9f       	mul	r18, r28
    1d2c:	c0 01       	movw	r24, r0
    1d2e:	2d 9f       	mul	r18, r29
    1d30:	90 0d       	add	r25, r0
    1d32:	11 24       	eor	r1, r1
    1d34:	fc 01       	movw	r30, r24
    1d36:	e5 58       	subi	r30, 0x85	; 133
    1d38:	f5 4f       	sbci	r31, 0xF5	; 245
    1d3a:	20 81       	ld	r18, Z
    1d3c:	20 ff       	sbrs	r18, 0
    1d3e:	09 c0       	rjmp	.+18     	; 0x1d52 <_PreEx_DimmingDown+0x84>
    1d40:	fc 01       	movw	r30, r24
    1d42:	ee 59       	subi	r30, 0x9E	; 158
    1d44:	f5 4f       	sbci	r31, 0xF5	; 245
    1d46:	80 85       	ldd	r24, Z+8	; 0x08
    1d48:	91 85       	ldd	r25, Z+9	; 0x09
    1d4a:	df 91       	pop	r29
    1d4c:	cf 91       	pop	r28
    1d4e:	0c 94 c0 0d 	jmp	0x1b80	; 0x1b80 <dcporcentz>
    1d52:	df 91       	pop	r29
    1d54:	cf 91       	pop	r28
    1d56:	08 95       	ret

00001d58 <_dcporcentz_acctypeofload>:
    1d58:	24 e2       	ldi	r18, 0x24	; 36
    1d5a:	82 9f       	mul	r24, r18
    1d5c:	c0 01       	movw	r24, r0
    1d5e:	11 24       	eor	r1, r1
    1d60:	fc 01       	movw	r30, r24
    1d62:	ee 59       	subi	r30, 0x9E	; 158
    1d64:	f5 4f       	sbci	r31, 0xF5	; 245
    1d66:	86 81       	ldd	r24, Z+6	; 0x06
    1d68:	81 30       	cpi	r24, 0x01	; 1
    1d6a:	31 f4       	brne	.+12     	; 0x1d78 <_dcporcentz_acctypeofload+0x20>
    1d6c:	87 81       	ldd	r24, Z+7	; 0x07
    1d6e:	81 30       	cpi	r24, 0x01	; 1
    1d70:	69 f4       	brne	.+26     	; 0x1d8c <_dcporcentz_acctypeofload+0x34>
    1d72:	85 85       	ldd	r24, Z+13	; 0x0d
    1d74:	96 85       	ldd	r25, Z+14	; 0x0e
    1d76:	08 c0       	rjmp	.+16     	; 0x1d88 <_dcporcentz_acctypeofload+0x30>
    1d78:	86 81       	ldd	r24, Z+6	; 0x06
    1d7a:	81 11       	cpse	r24, r1
    1d7c:	07 c0       	rjmp	.+14     	; 0x1d8c <_dcporcentz_acctypeofload+0x34>
    1d7e:	87 81       	ldd	r24, Z+7	; 0x07
    1d80:	81 11       	cpse	r24, r1
    1d82:	04 c0       	rjmp	.+8      	; 0x1d8c <_dcporcentz_acctypeofload+0x34>
    1d84:	80 85       	ldd	r24, Z+8	; 0x08
    1d86:	91 85       	ldd	r25, Z+9	; 0x09
    1d88:	0c 94 c0 0d 	jmp	0x1b80	; 0x1b80 <dcporcentz>
    1d8c:	08 95       	ret

00001d8e <RestoreOnOff_mode1>:
    1d8e:	cf 92       	push	r12
    1d90:	df 92       	push	r13
    1d92:	ef 92       	push	r14
    1d94:	ff 92       	push	r15
    1d96:	0f 93       	push	r16
    1d98:	1f 93       	push	r17
    1d9a:	cf 93       	push	r28
    1d9c:	c8 2f       	mov	r28, r24
    1d9e:	0e 94 7c 0d 	call	0x1af8	; 0x1af8 <if_fadingactive_nextdc_else_dc>
    1da2:	ec 2e       	mov	r14, r28
    1da4:	f1 2c       	mov	r15, r1
    1da6:	24 e2       	ldi	r18, 0x24	; 36
    1da8:	c2 9f       	mul	r28, r18
    1daa:	80 01       	movw	r16, r0
    1dac:	11 24       	eor	r1, r1
    1dae:	f8 01       	movw	r30, r16
    1db0:	ee 59       	subi	r30, 0x9E	; 158
    1db2:	f5 4f       	sbci	r31, 0xF5	; 245
    1db4:	6f 01       	movw	r12, r30
    1db6:	25 8d       	ldd	r18, Z+29	; 0x1d
    1db8:	36 8d       	ldd	r19, Z+30	; 0x1e
    1dba:	28 17       	cp	r18, r24
    1dbc:	39 07       	cpc	r19, r25
    1dbe:	08 f0       	brcs	.+2      	; 0x1dc2 <RestoreOnOff_mode1+0x34>
    1dc0:	50 c0       	rjmp	.+160    	; 0x1e62 <RestoreOnOff_mode1+0xd4>
    1dc2:	8c 2f       	mov	r24, r28
    1dc4:	0e 94 7c 0d 	call	0x1af8	; 0x1af8 <if_fadingactive_nextdc_else_dc>
    1dc8:	20 91 01 01 	lds	r18, 0x0101	; 0x800101 <NUM_ELEM_DENTRO_BAR>
    1dcc:	30 91 00 01 	lds	r19, 0x0100	; 0x800100 <__DATA_REGION_ORIGIN__>
    1dd0:	23 9f       	mul	r18, r19
    1dd2:	90 01       	movw	r18, r0
    1dd4:	11 24       	eor	r1, r1
    1dd6:	87 01       	movw	r16, r14
    1dd8:	00 0f       	add	r16, r16
    1dda:	11 1f       	adc	r17, r17
    1ddc:	82 17       	cp	r24, r18
    1dde:	93 07       	cpc	r25, r19
    1de0:	e9 f4       	brne	.+58     	; 0x1e1c <RestoreOnOff_mode1+0x8e>
    1de2:	f6 01       	movw	r30, r12
    1de4:	82 8d       	ldd	r24, Z+26	; 0x1a
    1de6:	81 30       	cpi	r24, 0x01	; 1
    1de8:	c9 f4       	brne	.+50     	; 0x1e1c <RestoreOnOff_mode1+0x8e>
    1dea:	22 85       	ldd	r18, Z+10	; 0x0a
    1dec:	33 85       	ldd	r19, Z+11	; 0x0b
    1dee:	80 91 01 01 	lds	r24, 0x0101	; 0x800101 <NUM_ELEM_DENTRO_BAR>
    1df2:	90 91 00 01 	lds	r25, 0x0100	; 0x800100 <__DATA_REGION_ORIGIN__>
    1df6:	89 9f       	mul	r24, r25
    1df8:	c0 01       	movw	r24, r0
    1dfa:	11 24       	eor	r1, r1
    1dfc:	28 17       	cp	r18, r24
    1dfe:	39 07       	cpc	r19, r25
    1e00:	68 f4       	brcc	.+26     	; 0x1e1c <RestoreOnOff_mode1+0x8e>
    1e02:	62 85       	ldd	r22, Z+10	; 0x0a
    1e04:	73 85       	ldd	r23, Z+11	; 0x0b
    1e06:	8c 2f       	mov	r24, r28
    1e08:	0e 94 8e 0d 	call	0x1b1c	; 0x1b1c <setting_preupdate_dc>
    1e0c:	0e 0d       	add	r16, r14
    1e0e:	1f 1d       	adc	r17, r15
    1e10:	f8 01       	movw	r30, r16
    1e12:	e8 5c       	subi	r30, 0xC8	; 200
    1e14:	fd 4f       	sbci	r31, 0xFD	; 253
    1e16:	80 81       	ld	r24, Z
    1e18:	81 60       	ori	r24, 0x01	; 1
    1e1a:	54 c0       	rjmp	.+168    	; 0x1ec4 <RestoreOnOff_mode1+0x136>
    1e1c:	84 e2       	ldi	r24, 0x24	; 36
    1e1e:	8e 9d       	mul	r24, r14
    1e20:	f0 01       	movw	r30, r0
    1e22:	8f 9d       	mul	r24, r15
    1e24:	f0 0d       	add	r31, r0
    1e26:	11 24       	eor	r1, r1
    1e28:	df 01       	movw	r26, r30
    1e2a:	ae 59       	subi	r26, 0x9E	; 158
    1e2c:	b5 4f       	sbci	r27, 0xF5	; 245
    1e2e:	18 96       	adiw	r26, 0x08	; 8
    1e30:	8d 91       	ld	r24, X+
    1e32:	9c 91       	ld	r25, X
    1e34:	19 97       	sbiw	r26, 0x09	; 9
    1e36:	1b 96       	adiw	r26, 0x0b	; 11
    1e38:	9c 93       	st	X, r25
    1e3a:	8e 93       	st	-X, r24
    1e3c:	1a 97       	sbiw	r26, 0x0a	; 10
    1e3e:	e2 59       	subi	r30, 0x92	; 146
    1e40:	f5 4f       	sbci	r31, 0xF5	; 245
    1e42:	80 81       	ld	r24, Z
    1e44:	81 60       	ori	r24, 0x01	; 1
    1e46:	80 83       	st	Z, r24
    1e48:	60 e0       	ldi	r22, 0x00	; 0
    1e4a:	70 e0       	ldi	r23, 0x00	; 0
    1e4c:	8c 2f       	mov	r24, r28
    1e4e:	0e 94 8e 0d 	call	0x1b1c	; 0x1b1c <setting_preupdate_dc>
    1e52:	0e 0d       	add	r16, r14
    1e54:	1f 1d       	adc	r17, r15
    1e56:	f8 01       	movw	r30, r16
    1e58:	e0 5d       	subi	r30, 0xD0	; 208
    1e5a:	fd 4f       	sbci	r31, 0xFD	; 253
    1e5c:	86 81       	ldd	r24, Z+6	; 0x06
    1e5e:	87 83       	std	Z+7, r24	; 0x07
    1e60:	32 c0       	rjmp	.+100    	; 0x1ec6 <RestoreOnOff_mode1+0x138>
    1e62:	02 59       	subi	r16, 0x92	; 146
    1e64:	15 4f       	sbci	r17, 0xF5	; 245
    1e66:	f8 01       	movw	r30, r16
    1e68:	80 81       	ld	r24, Z
    1e6a:	80 fd       	sbrc	r24, 0
    1e6c:	18 c0       	rjmp	.+48     	; 0x1e9e <RestoreOnOff_mode1+0x110>
    1e6e:	f6 01       	movw	r30, r12
    1e70:	81 a1       	ldd	r24, Z+33	; 0x21
    1e72:	81 11       	cpse	r24, r1
    1e74:	08 c0       	rjmp	.+16     	; 0x1e86 <RestoreOnOff_mode1+0xf8>
    1e76:	80 91 01 01 	lds	r24, 0x0101	; 0x800101 <NUM_ELEM_DENTRO_BAR>
    1e7a:	60 91 00 01 	lds	r22, 0x0100	; 0x800100 <__DATA_REGION_ORIGIN__>
    1e7e:	86 9f       	mul	r24, r22
    1e80:	b0 01       	movw	r22, r0
    1e82:	11 24       	eor	r1, r1
    1e84:	08 c0       	rjmp	.+16     	; 0x1e96 <RestoreOnOff_mode1+0x108>
    1e86:	f6 01       	movw	r30, r12
    1e88:	81 a1       	ldd	r24, Z+33	; 0x21
    1e8a:	81 30       	cpi	r24, 0x01	; 1
    1e8c:	e1 f4       	brne	.+56     	; 0x1ec6 <RestoreOnOff_mode1+0x138>
    1e8e:	65 8d       	ldd	r22, Z+29	; 0x1d
    1e90:	76 8d       	ldd	r23, Z+30	; 0x1e
    1e92:	6f 5f       	subi	r22, 0xFF	; 255
    1e94:	7f 4f       	sbci	r23, 0xFF	; 255
    1e96:	8c 2f       	mov	r24, r28
    1e98:	0e 94 8e 0d 	call	0x1b1c	; 0x1b1c <setting_preupdate_dc>
    1e9c:	14 c0       	rjmp	.+40     	; 0x1ec6 <RestoreOnOff_mode1+0x138>
    1e9e:	f7 01       	movw	r30, r14
    1ea0:	ee 0f       	add	r30, r30
    1ea2:	ff 1f       	adc	r31, r31
    1ea4:	ee 0d       	add	r30, r14
    1ea6:	ff 1d       	adc	r31, r15
    1ea8:	e8 5c       	subi	r30, 0xC8	; 200
    1eaa:	fd 4f       	sbci	r31, 0xFD	; 253
    1eac:	80 81       	ld	r24, Z
    1eae:	81 60       	ori	r24, 0x01	; 1
    1eb0:	80 83       	st	Z, r24
    1eb2:	f6 01       	movw	r30, r12
    1eb4:	62 85       	ldd	r22, Z+10	; 0x0a
    1eb6:	73 85       	ldd	r23, Z+11	; 0x0b
    1eb8:	8c 2f       	mov	r24, r28
    1eba:	0e 94 8e 0d 	call	0x1b1c	; 0x1b1c <setting_preupdate_dc>
    1ebe:	f8 01       	movw	r30, r16
    1ec0:	80 81       	ld	r24, Z
    1ec2:	8e 7f       	andi	r24, 0xFE	; 254
    1ec4:	80 83       	st	Z, r24
    1ec6:	84 e2       	ldi	r24, 0x24	; 36
    1ec8:	8e 9d       	mul	r24, r14
    1eca:	80 01       	movw	r16, r0
    1ecc:	8f 9d       	mul	r24, r15
    1ece:	10 0d       	add	r17, r0
    1ed0:	11 24       	eor	r1, r1
    1ed2:	0e 59       	subi	r16, 0x9E	; 158
    1ed4:	15 4f       	sbci	r17, 0xF5	; 245
    1ed6:	f8 01       	movw	r30, r16
    1ed8:	86 81       	ldd	r24, Z+6	; 0x06
    1eda:	81 11       	cpse	r24, r1
    1edc:	12 c0       	rjmp	.+36     	; 0x1f02 <RestoreOnOff_mode1+0x174>
    1ede:	80 91 01 01 	lds	r24, 0x0101	; 0x800101 <NUM_ELEM_DENTRO_BAR>
    1ee2:	60 91 00 01 	lds	r22, 0x0100	; 0x800100 <__DATA_REGION_ORIGIN__>
    1ee6:	86 9f       	mul	r24, r22
    1ee8:	b0 01       	movw	r22, r0
    1eea:	11 24       	eor	r1, r1
    1eec:	40 e0       	ldi	r20, 0x00	; 0
    1eee:	8c 2f       	mov	r24, r28
    1ef0:	0e 94 57 1f 	call	0x3eae	; 0x3eae <direct_fillclear_barlevel>
    1ef4:	f8 01       	movw	r30, r16
    1ef6:	60 85       	ldd	r22, Z+8	; 0x08
    1ef8:	71 85       	ldd	r23, Z+9	; 0x09
    1efa:	4f ef       	ldi	r20, 0xFF	; 255
    1efc:	8c 2f       	mov	r24, r28
    1efe:	0e 94 57 1f 	call	0x3eae	; 0x3eae <direct_fillclear_barlevel>
    1f02:	84 e2       	ldi	r24, 0x24	; 36
    1f04:	8e 9d       	mul	r24, r14
    1f06:	f0 01       	movw	r30, r0
    1f08:	8f 9d       	mul	r24, r15
    1f0a:	f0 0d       	add	r31, r0
    1f0c:	11 24       	eor	r1, r1
    1f0e:	e5 58       	subi	r30, 0x85	; 133
    1f10:	f5 4f       	sbci	r31, 0xF5	; 245
    1f12:	80 81       	ld	r24, Z
    1f14:	80 ff       	sbrs	r24, 0
    1f16:	03 c0       	rjmp	.+6      	; 0x1f1e <RestoreOnOff_mode1+0x190>
    1f18:	8c 2f       	mov	r24, r28
    1f1a:	0e 94 ac 0e 	call	0x1d58	; 0x1d58 <_dcporcentz_acctypeofload>
    1f1e:	8c 2f       	mov	r24, r28
    1f20:	0e 94 a7 0d 	call	0x1b4e	; 0x1b4e <updatedc_acctypeofload>
    1f24:	84 e2       	ldi	r24, 0x24	; 36
    1f26:	8e 9d       	mul	r24, r14
    1f28:	f0 01       	movw	r30, r0
    1f2a:	8f 9d       	mul	r24, r15
    1f2c:	f0 0d       	add	r31, r0
    1f2e:	11 24       	eor	r1, r1
    1f30:	ee 59       	subi	r30, 0x9E	; 158
    1f32:	f5 4f       	sbci	r31, 0xF5	; 245
    1f34:	12 8e       	std	Z+26, r1	; 0x1a
    1f36:	cf 91       	pop	r28
    1f38:	1f 91       	pop	r17
    1f3a:	0f 91       	pop	r16
    1f3c:	ff 90       	pop	r15
    1f3e:	ef 90       	pop	r14
    1f40:	df 90       	pop	r13
    1f42:	cf 90       	pop	r12
    1f44:	08 95       	ret

00001f46 <directOnOff_mode1>:
    1f46:	ef 92       	push	r14
    1f48:	ff 92       	push	r15
    1f4a:	0f 93       	push	r16
    1f4c:	1f 93       	push	r17
    1f4e:	cf 93       	push	r28
    1f50:	c8 2f       	mov	r28, r24
    1f52:	0e 94 7c 0d 	call	0x1af8	; 0x1af8 <if_fadingactive_nextdc_else_dc>
    1f56:	20 91 01 01 	lds	r18, 0x0101	; 0x800101 <NUM_ELEM_DENTRO_BAR>
    1f5a:	30 91 00 01 	lds	r19, 0x0100	; 0x800100 <__DATA_REGION_ORIGIN__>
    1f5e:	23 9f       	mul	r18, r19
    1f60:	90 01       	movw	r18, r0
    1f62:	11 24       	eor	r1, r1
    1f64:	0c 2f       	mov	r16, r28
    1f66:	10 e0       	ldi	r17, 0x00	; 0
    1f68:	82 17       	cp	r24, r18
    1f6a:	93 07       	cpc	r25, r19
    1f6c:	40 f5       	brcc	.+80     	; 0x1fbe <directOnOff_mode1+0x78>
    1f6e:	8c 2f       	mov	r24, r28
    1f70:	0e 94 7c 0d 	call	0x1af8	; 0x1af8 <if_fadingactive_nextdc_else_dc>
    1f74:	24 e2       	ldi	r18, 0x24	; 36
    1f76:	20 9f       	mul	r18, r16
    1f78:	f0 01       	movw	r30, r0
    1f7a:	21 9f       	mul	r18, r17
    1f7c:	f0 0d       	add	r31, r0
    1f7e:	11 24       	eor	r1, r1
    1f80:	ee 59       	subi	r30, 0x9E	; 158
    1f82:	f5 4f       	sbci	r31, 0xF5	; 245
    1f84:	25 8d       	ldd	r18, Z+29	; 0x1d
    1f86:	36 8d       	ldd	r19, Z+30	; 0x1e
    1f88:	28 17       	cp	r18, r24
    1f8a:	39 07       	cpc	r19, r25
    1f8c:	20 f4       	brcc	.+8      	; 0x1f96 <directOnOff_mode1+0x50>
    1f8e:	80 85       	ldd	r24, Z+8	; 0x08
    1f90:	91 85       	ldd	r25, Z+9	; 0x09
    1f92:	93 87       	std	Z+11, r25	; 0x0b
    1f94:	82 87       	std	Z+10, r24	; 0x0a
    1f96:	80 91 01 01 	lds	r24, 0x0101	; 0x800101 <NUM_ELEM_DENTRO_BAR>
    1f9a:	60 91 00 01 	lds	r22, 0x0100	; 0x800100 <__DATA_REGION_ORIGIN__>
    1f9e:	86 9f       	mul	r24, r22
    1fa0:	b0 01       	movw	r22, r0
    1fa2:	11 24       	eor	r1, r1
    1fa4:	8c 2f       	mov	r24, r28
    1fa6:	0e 94 8e 0d 	call	0x1b1c	; 0x1b1c <setting_preupdate_dc>
    1faa:	f8 01       	movw	r30, r16
    1fac:	ee 0f       	add	r30, r30
    1fae:	ff 1f       	adc	r31, r31
    1fb0:	e0 0f       	add	r30, r16
    1fb2:	f1 1f       	adc	r31, r17
    1fb4:	e0 5d       	subi	r30, 0xD0	; 208
    1fb6:	fd 4f       	sbci	r31, 0xFD	; 253
    1fb8:	86 81       	ldd	r24, Z+6	; 0x06
    1fba:	87 83       	std	Z+7, r24	; 0x07
    1fbc:	05 c0       	rjmp	.+10     	; 0x1fc8 <directOnOff_mode1+0x82>
    1fbe:	60 e0       	ldi	r22, 0x00	; 0
    1fc0:	70 e0       	ldi	r23, 0x00	; 0
    1fc2:	8c 2f       	mov	r24, r28
    1fc4:	0e 94 8e 0d 	call	0x1b1c	; 0x1b1c <setting_preupdate_dc>
    1fc8:	24 e2       	ldi	r18, 0x24	; 36
    1fca:	20 9f       	mul	r18, r16
    1fcc:	c0 01       	movw	r24, r0
    1fce:	21 9f       	mul	r18, r17
    1fd0:	90 0d       	add	r25, r0
    1fd2:	11 24       	eor	r1, r1
    1fd4:	9c 01       	movw	r18, r24
    1fd6:	2e 59       	subi	r18, 0x9E	; 158
    1fd8:	35 4f       	sbci	r19, 0xF5	; 245
    1fda:	79 01       	movw	r14, r18
    1fdc:	f9 01       	movw	r30, r18
    1fde:	86 81       	ldd	r24, Z+6	; 0x06
    1fe0:	81 11       	cpse	r24, r1
    1fe2:	12 c0       	rjmp	.+36     	; 0x2008 <directOnOff_mode1+0xc2>
    1fe4:	80 91 01 01 	lds	r24, 0x0101	; 0x800101 <NUM_ELEM_DENTRO_BAR>
    1fe8:	60 91 00 01 	lds	r22, 0x0100	; 0x800100 <__DATA_REGION_ORIGIN__>
    1fec:	86 9f       	mul	r24, r22
    1fee:	b0 01       	movw	r22, r0
    1ff0:	11 24       	eor	r1, r1
    1ff2:	40 e0       	ldi	r20, 0x00	; 0
    1ff4:	8c 2f       	mov	r24, r28
    1ff6:	0e 94 57 1f 	call	0x3eae	; 0x3eae <direct_fillclear_barlevel>
    1ffa:	f7 01       	movw	r30, r14
    1ffc:	60 85       	ldd	r22, Z+8	; 0x08
    1ffe:	71 85       	ldd	r23, Z+9	; 0x09
    2000:	4f ef       	ldi	r20, 0xFF	; 255
    2002:	8c 2f       	mov	r24, r28
    2004:	0e 94 57 1f 	call	0x3eae	; 0x3eae <direct_fillclear_barlevel>
    2008:	84 e2       	ldi	r24, 0x24	; 36
    200a:	80 9f       	mul	r24, r16
    200c:	f0 01       	movw	r30, r0
    200e:	81 9f       	mul	r24, r17
    2010:	f0 0d       	add	r31, r0
    2012:	11 24       	eor	r1, r1
    2014:	e5 58       	subi	r30, 0x85	; 133
    2016:	f5 4f       	sbci	r31, 0xF5	; 245
    2018:	80 81       	ld	r24, Z
    201a:	80 ff       	sbrs	r24, 0
    201c:	03 c0       	rjmp	.+6      	; 0x2024 <directOnOff_mode1+0xde>
    201e:	8c 2f       	mov	r24, r28
    2020:	0e 94 ac 0e 	call	0x1d58	; 0x1d58 <_dcporcentz_acctypeofload>
    2024:	84 e2       	ldi	r24, 0x24	; 36
    2026:	80 9f       	mul	r24, r16
    2028:	f0 01       	movw	r30, r0
    202a:	81 9f       	mul	r24, r17
    202c:	f0 0d       	add	r31, r0
    202e:	11 24       	eor	r1, r1
    2030:	ee 59       	subi	r30, 0x9E	; 158
    2032:	f5 4f       	sbci	r31, 0xF5	; 245
    2034:	81 e0       	ldi	r24, 0x01	; 1
    2036:	82 8f       	std	Z+26, r24	; 0x1a
    2038:	8c 2f       	mov	r24, r28
    203a:	cf 91       	pop	r28
    203c:	1f 91       	pop	r17
    203e:	0f 91       	pop	r16
    2040:	ff 90       	pop	r15
    2042:	ef 90       	pop	r14
    2044:	0c 94 a7 0d 	jmp	0x1b4e	; 0x1b4e <updatedc_acctypeofload>

00002048 <RestoreOnOff_mode2>:
    2048:	ef 92       	push	r14
    204a:	ff 92       	push	r15
    204c:	0f 93       	push	r16
    204e:	1f 93       	push	r17
    2050:	cf 93       	push	r28
    2052:	c8 2f       	mov	r28, r24
    2054:	0e 94 7c 0d 	call	0x1af8	; 0x1af8 <if_fadingactive_nextdc_else_dc>
    2058:	ec 2e       	mov	r14, r28
    205a:	f1 2c       	mov	r15, r1
    205c:	24 e2       	ldi	r18, 0x24	; 36
    205e:	c2 9f       	mul	r28, r18
    2060:	f0 01       	movw	r30, r0
    2062:	11 24       	eor	r1, r1
    2064:	ee 59       	subi	r30, 0x9E	; 158
    2066:	f5 4f       	sbci	r31, 0xF5	; 245
    2068:	25 8d       	ldd	r18, Z+29	; 0x1d
    206a:	36 8d       	ldd	r19, Z+30	; 0x1e
    206c:	28 17       	cp	r18, r24
    206e:	39 07       	cpc	r19, r25
    2070:	18 f4       	brcc	.+6      	; 0x2078 <RestoreOnOff_mode2+0x30>
    2072:	60 e0       	ldi	r22, 0x00	; 0
    2074:	70 e0       	ldi	r23, 0x00	; 0
    2076:	07 c0       	rjmp	.+14     	; 0x2086 <RestoreOnOff_mode2+0x3e>
    2078:	80 91 01 01 	lds	r24, 0x0101	; 0x800101 <NUM_ELEM_DENTRO_BAR>
    207c:	60 91 00 01 	lds	r22, 0x0100	; 0x800100 <__DATA_REGION_ORIGIN__>
    2080:	86 9f       	mul	r24, r22
    2082:	b0 01       	movw	r22, r0
    2084:	11 24       	eor	r1, r1
    2086:	8c 2f       	mov	r24, r28
    2088:	0e 94 8e 0d 	call	0x1b1c	; 0x1b1c <setting_preupdate_dc>
    208c:	84 e2       	ldi	r24, 0x24	; 36
    208e:	8e 9d       	mul	r24, r14
    2090:	80 01       	movw	r16, r0
    2092:	8f 9d       	mul	r24, r15
    2094:	10 0d       	add	r17, r0
    2096:	11 24       	eor	r1, r1
    2098:	0e 59       	subi	r16, 0x9E	; 158
    209a:	15 4f       	sbci	r17, 0xF5	; 245
    209c:	f8 01       	movw	r30, r16
    209e:	86 81       	ldd	r24, Z+6	; 0x06
    20a0:	81 11       	cpse	r24, r1
    20a2:	12 c0       	rjmp	.+36     	; 0x20c8 <RestoreOnOff_mode2+0x80>
    20a4:	80 91 01 01 	lds	r24, 0x0101	; 0x800101 <NUM_ELEM_DENTRO_BAR>
    20a8:	60 91 00 01 	lds	r22, 0x0100	; 0x800100 <__DATA_REGION_ORIGIN__>
    20ac:	86 9f       	mul	r24, r22
    20ae:	b0 01       	movw	r22, r0
    20b0:	11 24       	eor	r1, r1
    20b2:	40 e0       	ldi	r20, 0x00	; 0
    20b4:	8c 2f       	mov	r24, r28
    20b6:	0e 94 57 1f 	call	0x3eae	; 0x3eae <direct_fillclear_barlevel>
    20ba:	f8 01       	movw	r30, r16
    20bc:	60 85       	ldd	r22, Z+8	; 0x08
    20be:	71 85       	ldd	r23, Z+9	; 0x09
    20c0:	4f ef       	ldi	r20, 0xFF	; 255
    20c2:	8c 2f       	mov	r24, r28
    20c4:	0e 94 57 1f 	call	0x3eae	; 0x3eae <direct_fillclear_barlevel>
    20c8:	84 e2       	ldi	r24, 0x24	; 36
    20ca:	8e 9d       	mul	r24, r14
    20cc:	f0 01       	movw	r30, r0
    20ce:	8f 9d       	mul	r24, r15
    20d0:	f0 0d       	add	r31, r0
    20d2:	11 24       	eor	r1, r1
    20d4:	e5 58       	subi	r30, 0x85	; 133
    20d6:	f5 4f       	sbci	r31, 0xF5	; 245
    20d8:	80 81       	ld	r24, Z
    20da:	80 ff       	sbrs	r24, 0
    20dc:	03 c0       	rjmp	.+6      	; 0x20e4 <RestoreOnOff_mode2+0x9c>
    20de:	8c 2f       	mov	r24, r28
    20e0:	0e 94 ac 0e 	call	0x1d58	; 0x1d58 <_dcporcentz_acctypeofload>
    20e4:	8c 2f       	mov	r24, r28
    20e6:	cf 91       	pop	r28
    20e8:	1f 91       	pop	r17
    20ea:	0f 91       	pop	r16
    20ec:	ff 90       	pop	r15
    20ee:	ef 90       	pop	r14
    20f0:	0c 94 a7 0d 	jmp	0x1b4e	; 0x1b4e <updatedc_acctypeofload>

000020f4 <directOnOff_mode2>:
    20f4:	ef 92       	push	r14
    20f6:	ff 92       	push	r15
    20f8:	0f 93       	push	r16
    20fa:	1f 93       	push	r17
    20fc:	cf 93       	push	r28
    20fe:	c8 2f       	mov	r28, r24
    2100:	0e 94 7c 0d 	call	0x1af8	; 0x1af8 <if_fadingactive_nextdc_else_dc>
    2104:	20 91 01 01 	lds	r18, 0x0101	; 0x800101 <NUM_ELEM_DENTRO_BAR>
    2108:	30 91 00 01 	lds	r19, 0x0100	; 0x800100 <__DATA_REGION_ORIGIN__>
    210c:	23 9f       	mul	r18, r19
    210e:	90 01       	movw	r18, r0
    2110:	11 24       	eor	r1, r1
    2112:	82 17       	cp	r24, r18
    2114:	93 07       	cpc	r25, r19
    2116:	40 f4       	brcc	.+16     	; 0x2128 <directOnOff_mode2+0x34>
    2118:	80 91 01 01 	lds	r24, 0x0101	; 0x800101 <NUM_ELEM_DENTRO_BAR>
    211c:	60 91 00 01 	lds	r22, 0x0100	; 0x800100 <__DATA_REGION_ORIGIN__>
    2120:	86 9f       	mul	r24, r22
    2122:	b0 01       	movw	r22, r0
    2124:	11 24       	eor	r1, r1
    2126:	02 c0       	rjmp	.+4      	; 0x212c <directOnOff_mode2+0x38>
    2128:	60 e0       	ldi	r22, 0x00	; 0
    212a:	70 e0       	ldi	r23, 0x00	; 0
    212c:	8c 2f       	mov	r24, r28
    212e:	0e 94 8e 0d 	call	0x1b1c	; 0x1b1c <setting_preupdate_dc>
    2132:	ec 2e       	mov	r14, r28
    2134:	f1 2c       	mov	r15, r1
    2136:	84 e2       	ldi	r24, 0x24	; 36
    2138:	c8 9f       	mul	r28, r24
    213a:	80 01       	movw	r16, r0
    213c:	11 24       	eor	r1, r1
    213e:	0e 59       	subi	r16, 0x9E	; 158
    2140:	15 4f       	sbci	r17, 0xF5	; 245
    2142:	f8 01       	movw	r30, r16
    2144:	86 81       	ldd	r24, Z+6	; 0x06
    2146:	81 11       	cpse	r24, r1
    2148:	12 c0       	rjmp	.+36     	; 0x216e <directOnOff_mode2+0x7a>
    214a:	80 91 01 01 	lds	r24, 0x0101	; 0x800101 <NUM_ELEM_DENTRO_BAR>
    214e:	60 91 00 01 	lds	r22, 0x0100	; 0x800100 <__DATA_REGION_ORIGIN__>
    2152:	86 9f       	mul	r24, r22
    2154:	b0 01       	movw	r22, r0
    2156:	11 24       	eor	r1, r1
    2158:	40 e0       	ldi	r20, 0x00	; 0
    215a:	8c 2f       	mov	r24, r28
    215c:	0e 94 57 1f 	call	0x3eae	; 0x3eae <direct_fillclear_barlevel>
    2160:	f8 01       	movw	r30, r16
    2162:	60 85       	ldd	r22, Z+8	; 0x08
    2164:	71 85       	ldd	r23, Z+9	; 0x09
    2166:	4f ef       	ldi	r20, 0xFF	; 255
    2168:	8c 2f       	mov	r24, r28
    216a:	0e 94 57 1f 	call	0x3eae	; 0x3eae <direct_fillclear_barlevel>
    216e:	84 e2       	ldi	r24, 0x24	; 36
    2170:	8e 9d       	mul	r24, r14
    2172:	f0 01       	movw	r30, r0
    2174:	8f 9d       	mul	r24, r15
    2176:	f0 0d       	add	r31, r0
    2178:	11 24       	eor	r1, r1
    217a:	e5 58       	subi	r30, 0x85	; 133
    217c:	f5 4f       	sbci	r31, 0xF5	; 245
    217e:	80 81       	ld	r24, Z
    2180:	80 ff       	sbrs	r24, 0
    2182:	03 c0       	rjmp	.+6      	; 0x218a <directOnOff_mode2+0x96>
    2184:	8c 2f       	mov	r24, r28
    2186:	0e 94 ac 0e 	call	0x1d58	; 0x1d58 <_dcporcentz_acctypeofload>
    218a:	8c 2f       	mov	r24, r28
    218c:	cf 91       	pop	r28
    218e:	1f 91       	pop	r17
    2190:	0f 91       	pop	r16
    2192:	ff 90       	pop	r15
    2194:	ef 90       	pop	r14
    2196:	0c 94 a7 0d 	jmp	0x1b4e	; 0x1b4e <updatedc_acctypeofload>

0000219a <_all_current_dcs_are_lessequalthan_threshold>:
    219a:	1f 93       	push	r17
    219c:	cf 93       	push	r28
    219e:	df 93       	push	r29
    21a0:	c0 e0       	ldi	r28, 0x00	; 0
    21a2:	d0 e0       	ldi	r29, 0x00	; 0
    21a4:	14 e2       	ldi	r17, 0x24	; 36
    21a6:	8c 2f       	mov	r24, r28
    21a8:	0e 94 7c 0d 	call	0x1af8	; 0x1af8 <if_fadingactive_nextdc_else_dc>
    21ac:	1c 9f       	mul	r17, r28
    21ae:	f0 01       	movw	r30, r0
    21b0:	1d 9f       	mul	r17, r29
    21b2:	f0 0d       	add	r31, r0
    21b4:	11 24       	eor	r1, r1
    21b6:	ee 59       	subi	r30, 0x9E	; 158
    21b8:	f5 4f       	sbci	r31, 0xF5	; 245
    21ba:	25 8d       	ldd	r18, Z+29	; 0x1d
    21bc:	36 8d       	ldd	r19, Z+30	; 0x1e
    21be:	28 17       	cp	r18, r24
    21c0:	39 07       	cpc	r19, r25
    21c2:	30 f0       	brcs	.+12     	; 0x21d0 <_all_current_dcs_are_lessequalthan_threshold+0x36>
    21c4:	21 96       	adiw	r28, 0x01	; 1
    21c6:	c6 30       	cpi	r28, 0x06	; 6
    21c8:	d1 05       	cpc	r29, r1
    21ca:	69 f7       	brne	.-38     	; 0x21a6 <_all_current_dcs_are_lessequalthan_threshold+0xc>
    21cc:	81 e0       	ldi	r24, 0x01	; 1
    21ce:	01 c0       	rjmp	.+2      	; 0x21d2 <_all_current_dcs_are_lessequalthan_threshold+0x38>
    21d0:	80 e0       	ldi	r24, 0x00	; 0
    21d2:	df 91       	pop	r29
    21d4:	cf 91       	pop	r28
    21d6:	1f 91       	pop	r17
    21d8:	08 95       	ret

000021da <_all_zones_have_pto_rstr_OFF>:
    21da:	80 e0       	ldi	r24, 0x00	; 0
    21dc:	90 e0       	ldi	r25, 0x00	; 0
    21de:	24 e2       	ldi	r18, 0x24	; 36
    21e0:	28 9f       	mul	r18, r24
    21e2:	f0 01       	movw	r30, r0
    21e4:	29 9f       	mul	r18, r25
    21e6:	f0 0d       	add	r31, r0
    21e8:	11 24       	eor	r1, r1
    21ea:	e2 59       	subi	r30, 0x92	; 146
    21ec:	f5 4f       	sbci	r31, 0xF5	; 245
    21ee:	30 81       	ld	r19, Z
    21f0:	30 fd       	sbrc	r19, 0
    21f2:	06 c0       	rjmp	.+12     	; 0x2200 <_all_zones_have_pto_rstr_OFF+0x26>
    21f4:	01 96       	adiw	r24, 0x01	; 1
    21f6:	86 30       	cpi	r24, 0x06	; 6
    21f8:	91 05       	cpc	r25, r1
    21fa:	91 f7       	brne	.-28     	; 0x21e0 <_all_zones_have_pto_rstr_OFF+0x6>
    21fc:	81 e0       	ldi	r24, 0x01	; 1
    21fe:	08 95       	ret
    2200:	80 e0       	ldi	r24, 0x00	; 0
    2202:	08 95       	ret

00002204 <InitDS3231>:
    2204:	e2 e6       	ldi	r30, 0x62	; 98
    2206:	f0 e0       	ldi	r31, 0x00	; 0
    2208:	80 81       	ld	r24, Z
    220a:	82 60       	ori	r24, 0x02	; 2
    220c:	80 83       	st	Z, r24
    220e:	a1 e6       	ldi	r26, 0x61	; 97
    2210:	b0 e0       	ldi	r27, 0x00	; 0
    2212:	8c 91       	ld	r24, X
    2214:	82 60       	ori	r24, 0x02	; 2
    2216:	8c 93       	st	X, r24
    2218:	8c 91       	ld	r24, X
    221a:	81 60       	ori	r24, 0x01	; 1
    221c:	8c 93       	st	X, r24
    221e:	80 81       	ld	r24, Z
    2220:	81 60       	ori	r24, 0x01	; 1
    2222:	80 83       	st	Z, r24
    2224:	8f e3       	ldi	r24, 0x3F	; 63
    2226:	9c e9       	ldi	r25, 0x9C	; 156
    2228:	01 97       	sbiw	r24, 0x01	; 1
    222a:	f1 f7       	brne	.-4      	; 0x2228 <InitDS3231+0x24>
    222c:	00 c0       	rjmp	.+0      	; 0x222e <InitDS3231+0x2a>
    222e:	00 00       	nop
    2230:	40 e0       	ldi	r20, 0x00	; 0
    2232:	6f e0       	ldi	r22, 0x0F	; 15
    2234:	80 ed       	ldi	r24, 0xD0	; 208
    2236:	0e 94 b1 1f 	call	0x3f62	; 0x3f62 <I2Ccfx_Write1Byte>
    223a:	40 e0       	ldi	r20, 0x00	; 0
    223c:	6e e0       	ldi	r22, 0x0E	; 14
    223e:	80 ed       	ldi	r24, 0xD0	; 208
    2240:	0c 94 b1 1f 	jmp	0x3f62	; 0x3f62 <I2Ccfx_Write1Byte>

00002244 <EEPROM_WriteByte>:
    2244:	cf 93       	push	r28
    2246:	df 93       	push	r29
    2248:	1f 92       	push	r1
    224a:	cd b7       	in	r28, 0x3d	; 61
    224c:	de b7       	in	r29, 0x3e	; 62
    224e:	e1 99       	sbic	0x1c, 1	; 28
    2250:	fe cf       	rjmp	.-4      	; 0x224e <EEPROM_WriteByte+0xa>
    2252:	9f bb       	out	0x1f, r25	; 31
    2254:	8e bb       	out	0x1e, r24	; 30
    2256:	6d bb       	out	0x1d, r22	; 29
    2258:	8f b7       	in	r24, 0x3f	; 63
    225a:	89 83       	std	Y+1, r24	; 0x01
    225c:	f8 94       	cli
    225e:	e2 9a       	sbi	0x1c, 2	; 28
    2260:	e1 9a       	sbi	0x1c, 1	; 28
    2262:	89 81       	ldd	r24, Y+1	; 0x01
    2264:	8f bf       	out	0x3f, r24	; 63
    2266:	0f 90       	pop	r0
    2268:	df 91       	pop	r29
    226a:	cf 91       	pop	r28
    226c:	08 95       	ret

0000226e <EEPROM_WriteWord>:
    226e:	1f 93       	push	r17
    2270:	cf 93       	push	r28
    2272:	df 93       	push	r29
    2274:	ec 01       	movw	r28, r24
    2276:	17 2f       	mov	r17, r23
    2278:	0e 94 22 11 	call	0x2244	; 0x2244 <EEPROM_WriteByte>
    227c:	61 2f       	mov	r22, r17
    227e:	ce 01       	movw	r24, r28
    2280:	01 96       	adiw	r24, 0x01	; 1
    2282:	df 91       	pop	r29
    2284:	cf 91       	pop	r28
    2286:	1f 91       	pop	r17
    2288:	0c 94 22 11 	jmp	0x2244	; 0x2244 <EEPROM_WriteByte>

0000228c <EEPROM_ReadByte>:
    228c:	e1 99       	sbic	0x1c, 1	; 28
    228e:	fe cf       	rjmp	.-4      	; 0x228c <EEPROM_ReadByte>
    2290:	9f bb       	out	0x1f, r25	; 31
    2292:	8e bb       	out	0x1e, r24	; 30
    2294:	e0 9a       	sbi	0x1c, 0	; 28
    2296:	8d b3       	in	r24, 0x1d	; 29
    2298:	08 95       	ret

0000229a <EEPROM_ReadWord>:
    229a:	0f 93       	push	r16
    229c:	1f 93       	push	r17
    229e:	cf 93       	push	r28
    22a0:	df 93       	push	r29
    22a2:	1f 92       	push	r1
    22a4:	cd b7       	in	r28, 0x3d	; 61
    22a6:	de b7       	in	r29, 0x3e	; 62
    22a8:	8c 01       	movw	r16, r24
    22aa:	0e 94 46 11 	call	0x228c	; 0x228c <EEPROM_ReadByte>
    22ae:	89 83       	std	Y+1, r24	; 0x01
    22b0:	c8 01       	movw	r24, r16
    22b2:	01 96       	adiw	r24, 0x01	; 1
    22b4:	0e 94 46 11 	call	0x228c	; 0x228c <EEPROM_ReadByte>
    22b8:	29 81       	ldd	r18, Y+1	; 0x01
    22ba:	30 e0       	ldi	r19, 0x00	; 0
    22bc:	a9 01       	movw	r20, r18
    22be:	58 2b       	or	r21, r24
    22c0:	ca 01       	movw	r24, r20
    22c2:	0f 90       	pop	r0
    22c4:	df 91       	pop	r29
    22c6:	cf 91       	pop	r28
    22c8:	1f 91       	pop	r17
    22ca:	0f 91       	pop	r16
    22cc:	08 95       	ret

000022ce <ObjBlink_Timming_CaptionOfBarZone>:
    22ce:	df 92       	push	r13
    22d0:	ef 92       	push	r14
    22d2:	ff 92       	push	r15
    22d4:	0f 93       	push	r16
    22d6:	1f 93       	push	r17
    22d8:	cf 93       	push	r28
    22da:	df 93       	push	r29
    22dc:	98 e4       	ldi	r25, 0x48	; 72
    22de:	e9 2e       	mov	r14, r25
    22e0:	92 e0       	ldi	r25, 0x02	; 2
    22e2:	f9 2e       	mov	r15, r25
    22e4:	21 e3       	ldi	r18, 0x31	; 49
    22e6:	d2 2e       	mov	r13, r18
    22e8:	e7 01       	movw	r28, r14
    22ea:	c8 54       	subi	r28, 0x48	; 72
    22ec:	d2 40       	sbci	r29, 0x02	; 2
    22ee:	cc 0f       	add	r28, r28
    22f0:	dd 1f       	adc	r29, r29
    22f2:	cc 0f       	add	r28, r28
    22f4:	dd 1f       	adc	r29, r29
    22f6:	fe 01       	movw	r30, r28
    22f8:	ed 5e       	subi	r30, 0xED	; 237
    22fa:	f7 4f       	sbci	r31, 0xF7	; 247
    22fc:	80 81       	ld	r24, Z
    22fe:	80 ff       	sbrs	r24, 0
    2300:	36 c0       	rjmp	.+108    	; 0x236e <ObjBlink_Timming_CaptionOfBarZone+0xa0>
    2302:	8e 01       	movw	r16, r28
    2304:	00 5f       	subi	r16, 0xF0	; 240
    2306:	17 4f       	sbci	r17, 0xF7	; 247
    2308:	f8 01       	movw	r30, r16
    230a:	80 81       	ld	r24, Z
    230c:	91 81       	ldd	r25, Z+1	; 0x01
    230e:	01 96       	adiw	r24, 0x01	; 1
    2310:	91 83       	std	Z+1, r25	; 0x01
    2312:	80 83       	st	Z, r24
    2314:	84 36       	cpi	r24, 0x64	; 100
    2316:	91 05       	cpc	r25, r1
    2318:	29 f5       	brne	.+74     	; 0x2364 <ObjBlink_Timming_CaptionOfBarZone+0x96>
    231a:	11 82       	std	Z+1, r1	; 0x01
    231c:	10 82       	st	Z, r1
    231e:	82 81       	ldd	r24, Z+2	; 0x02
    2320:	80 95       	com	r24
    2322:	82 83       	std	Z+2, r24	; 0x02
    2324:	4f ef       	ldi	r20, 0xFF	; 255
    2326:	64 e4       	ldi	r22, 0x44	; 68
    2328:	75 e2       	ldi	r23, 0x25	; 37
    232a:	86 e0       	ldi	r24, 0x06	; 6
    232c:	90 e1       	ldi	r25, 0x10	; 16
    232e:	0e 94 47 25 	call	0x4a8e	; 0x4a8e <ks0108SelectFont>
    2332:	f8 01       	movw	r30, r16
    2334:	82 81       	ldd	r24, Z+2	; 0x02
    2336:	81 11       	cpse	r24, r1
    2338:	0d c0       	rjmp	.+26     	; 0x2354 <ObjBlink_Timming_CaptionOfBarZone+0x86>
    233a:	62 e0       	ldi	r22, 0x02	; 2
    233c:	f7 01       	movw	r30, r14
    233e:	80 81       	ld	r24, Z
    2340:	0e 94 da 25 	call	0x4bb4	; 0x4bb4 <ks0108GotoXY>
    2344:	82 e1       	ldi	r24, 0x12	; 18
    2346:	9a e0       	ldi	r25, 0x0A	; 10
    2348:	0e 94 11 2c 	call	0x5822	; 0x5822 <ks0108Puts_P>
    234c:	8d 2d       	mov	r24, r13
    234e:	0e 94 ea 2a 	call	0x55d4	; 0x55d4 <ks0108PutChar>
    2352:	08 c0       	rjmp	.+16     	; 0x2364 <ObjBlink_Timming_CaptionOfBarZone+0x96>
    2354:	00 e0       	ldi	r16, 0x00	; 0
    2356:	2b e0       	ldi	r18, 0x0B	; 11
    2358:	4f e0       	ldi	r20, 0x0F	; 15
    235a:	61 e0       	ldi	r22, 0x01	; 1
    235c:	f7 01       	movw	r30, r14
    235e:	80 81       	ld	r24, Z
    2360:	0e 94 61 28 	call	0x50c2	; 0x50c2 <ks0108FillRect>
    2364:	cd 5e       	subi	r28, 0xED	; 237
    2366:	d7 4f       	sbci	r29, 0xF7	; 247
    2368:	88 81       	ld	r24, Y
    236a:	82 60       	ori	r24, 0x02	; 2
    236c:	88 83       	st	Y, r24
    236e:	ff ef       	ldi	r31, 0xFF	; 255
    2370:	ef 1a       	sub	r14, r31
    2372:	ff 0a       	sbc	r15, r31
    2374:	d3 94       	inc	r13
    2376:	87 e3       	ldi	r24, 0x37	; 55
    2378:	d8 12       	cpse	r13, r24
    237a:	b6 cf       	rjmp	.-148    	; 0x22e8 <ObjBlink_Timming_CaptionOfBarZone+0x1a>
    237c:	df 91       	pop	r29
    237e:	cf 91       	pop	r28
    2380:	1f 91       	pop	r17
    2382:	0f 91       	pop	r16
    2384:	ff 90       	pop	r15
    2386:	ef 90       	pop	r14
    2388:	df 90       	pop	r13
    238a:	08 95       	ret

0000238c <ObjBlink_CaptionOfBarZone_InitAllCounterTimer>:
    238c:	e0 e1       	ldi	r30, 0x10	; 16
    238e:	f8 e0       	ldi	r31, 0x08	; 8
    2390:	83 e6       	ldi	r24, 0x63	; 99
    2392:	90 e0       	ldi	r25, 0x00	; 0
    2394:	91 83       	std	Z+1, r25	; 0x01
    2396:	80 83       	st	Z, r24
    2398:	95 83       	std	Z+5, r25	; 0x05
    239a:	84 83       	std	Z+4, r24	; 0x04
    239c:	91 87       	std	Z+9, r25	; 0x09
    239e:	80 87       	std	Z+8, r24	; 0x08
    23a0:	95 87       	std	Z+13, r25	; 0x0d
    23a2:	84 87       	std	Z+12, r24	; 0x0c
    23a4:	91 8b       	std	Z+17, r25	; 0x11
    23a6:	80 8b       	std	Z+16, r24	; 0x10
    23a8:	95 8b       	std	Z+21, r25	; 0x15
    23aa:	84 8b       	std	Z+20, r24	; 0x14
    23ac:	08 95       	ret

000023ae <blink_captionof_barzone_RUNALL>:
    23ae:	e3 e1       	ldi	r30, 0x13	; 19
    23b0:	f8 e0       	ldi	r31, 0x08	; 8
    23b2:	80 81       	ld	r24, Z
    23b4:	81 60       	ori	r24, 0x01	; 1
    23b6:	80 83       	st	Z, r24
    23b8:	e7 e1       	ldi	r30, 0x17	; 23
    23ba:	f8 e0       	ldi	r31, 0x08	; 8
    23bc:	80 81       	ld	r24, Z
    23be:	81 60       	ori	r24, 0x01	; 1
    23c0:	80 83       	st	Z, r24
    23c2:	eb e1       	ldi	r30, 0x1B	; 27
    23c4:	f8 e0       	ldi	r31, 0x08	; 8
    23c6:	80 81       	ld	r24, Z
    23c8:	81 60       	ori	r24, 0x01	; 1
    23ca:	80 83       	st	Z, r24
    23cc:	ef e1       	ldi	r30, 0x1F	; 31
    23ce:	f8 e0       	ldi	r31, 0x08	; 8
    23d0:	80 81       	ld	r24, Z
    23d2:	81 60       	ori	r24, 0x01	; 1
    23d4:	80 83       	st	Z, r24
    23d6:	e3 e2       	ldi	r30, 0x23	; 35
    23d8:	f8 e0       	ldi	r31, 0x08	; 8
    23da:	80 81       	ld	r24, Z
    23dc:	81 60       	ori	r24, 0x01	; 1
    23de:	80 83       	st	Z, r24
    23e0:	e7 e2       	ldi	r30, 0x27	; 39
    23e2:	f8 e0       	ldi	r31, 0x08	; 8
    23e4:	80 81       	ld	r24, Z
    23e6:	81 60       	ori	r24, 0x01	; 1
    23e8:	80 83       	st	Z, r24
    23ea:	08 95       	ret

000023ec <blink_captionof_barzone_STOP>:
    23ec:	1f 93       	push	r17
    23ee:	cf 93       	push	r28
    23f0:	df 93       	push	r29
    23f2:	28 2f       	mov	r18, r24
    23f4:	30 e0       	ldi	r19, 0x00	; 0
    23f6:	e9 01       	movw	r28, r18
    23f8:	cc 0f       	add	r28, r28
    23fa:	dd 1f       	adc	r29, r29
    23fc:	cc 0f       	add	r28, r28
    23fe:	dd 1f       	adc	r29, r29
    2400:	fe 01       	movw	r30, r28
    2402:	ed 5e       	subi	r30, 0xED	; 237
    2404:	f7 4f       	sbci	r31, 0xF7	; 247
    2406:	90 81       	ld	r25, Z
    2408:	9e 7f       	andi	r25, 0xFE	; 254
    240a:	90 83       	st	Z, r25
    240c:	90 81       	ld	r25, Z
    240e:	91 ff       	sbrs	r25, 1
    2410:	1a c0       	rjmp	.+52     	; 0x2446 <blink_captionof_barzone_STOP+0x5a>
    2412:	18 2f       	mov	r17, r24
    2414:	80 81       	ld	r24, Z
    2416:	8d 7f       	andi	r24, 0xFD	; 253
    2418:	80 83       	st	Z, r24
    241a:	f9 01       	movw	r30, r18
    241c:	e8 5b       	subi	r30, 0xB8	; 184
    241e:	fd 4f       	sbci	r31, 0xFD	; 253
    2420:	62 e0       	ldi	r22, 0x02	; 2
    2422:	80 81       	ld	r24, Z
    2424:	0e 94 da 25 	call	0x4bb4	; 0x4bb4 <ks0108GotoXY>
    2428:	80 e1       	ldi	r24, 0x10	; 16
    242a:	9a e0       	ldi	r25, 0x0A	; 10
    242c:	0e 94 11 2c 	call	0x5822	; 0x5822 <ks0108Puts_P>
    2430:	81 e3       	ldi	r24, 0x31	; 49
    2432:	81 0f       	add	r24, r17
    2434:	0e 94 ea 2a 	call	0x55d4	; 0x55d4 <ks0108PutChar>
    2438:	c0 5f       	subi	r28, 0xF0	; 240
    243a:	d7 4f       	sbci	r29, 0xF7	; 247
    243c:	1a 82       	std	Y+2, r1	; 0x02
    243e:	83 e6       	ldi	r24, 0x63	; 99
    2440:	90 e0       	ldi	r25, 0x00	; 0
    2442:	99 83       	std	Y+1, r25	; 0x01
    2444:	88 83       	st	Y, r24
    2446:	df 91       	pop	r29
    2448:	cf 91       	pop	r28
    244a:	1f 91       	pop	r17
    244c:	08 95       	ret

0000244e <blink_captionof_barzone_STOPALL>:
    244e:	cf 93       	push	r28
    2450:	c0 e0       	ldi	r28, 0x00	; 0
    2452:	8c 2f       	mov	r24, r28
    2454:	0e 94 f6 11 	call	0x23ec	; 0x23ec <blink_captionof_barzone_STOP>
    2458:	cf 5f       	subi	r28, 0xFF	; 255
    245a:	c6 30       	cpi	r28, 0x06	; 6
    245c:	d1 f7       	brne	.-12     	; 0x2452 <blink_captionof_barzone_STOPALL+0x4>
    245e:	cf 91       	pop	r28
    2460:	08 95       	ret

00002462 <_options_preview_scene>:
    2462:	20 91 9c 01 	lds	r18, 0x019C	; 0x80019c <previewscene>
    2466:	80 91 36 08 	lds	r24, 0x0836	; 0x800836 <ps_scene>
    246a:	02 2e       	mov	r0, r18
    246c:	00 0c       	add	r0, r0
    246e:	33 0b       	sbc	r19, r19
    2470:	90 e0       	ldi	r25, 0x00	; 0
    2472:	28 17       	cp	r18, r24
    2474:	39 07       	cpc	r19, r25
    2476:	14 f0       	brlt	.+4      	; 0x247c <_options_preview_scene+0x1a>
    2478:	10 92 9c 01 	sts	0x019C, r1	; 0x80019c <previewscene>
    247c:	80 91 9c 01 	lds	r24, 0x019C	; 0x80019c <previewscene>
    2480:	87 ff       	sbrs	r24, 7
    2482:	05 c0       	rjmp	.+10     	; 0x248e <_options_preview_scene+0x2c>
    2484:	80 91 36 08 	lds	r24, 0x0836	; 0x800836 <ps_scene>
    2488:	81 50       	subi	r24, 0x01	; 1
    248a:	80 93 9c 01 	sts	0x019C, r24	; 0x80019c <previewscene>
    248e:	e0 91 aa 01 	lds	r30, 0x01AA	; 0x8001aa <previewscene+0xe>
    2492:	f0 91 ab 01 	lds	r31, 0x01AB	; 0x8001ab <previewscene+0xf>
    2496:	09 94       	ijmp

00002498 <key3_1fmode0_aft>:
    2498:	08 95       	ret

0000249a <_return2shell>:
    249a:	82 e0       	ldi	r24, 0x02	; 2
    249c:	80 93 10 0a 	sts	0x0A10, r24	; 0x800a10 <shell>
    24a0:	ef e8       	ldi	r30, 0x8F	; 143
    24a2:	f7 e0       	ldi	r31, 0x07	; 7
    24a4:	11 82       	std	Z+1, r1	; 0x01
    24a6:	12 82       	std	Z+2, r1	; 0x02
    24a8:	83 e0       	ldi	r24, 0x03	; 3
    24aa:	80 93 69 08 	sts	0x0869, r24	; 0x800869 <kbhandler_app>
    24ae:	08 95       	ret

000024b0 <key3_2fmode0>:
    24b0:	0e 94 4d 12 	call	0x249a	; 0x249a <_return2shell>
    24b4:	61 e0       	ldi	r22, 0x01	; 1
    24b6:	80 e0       	ldi	r24, 0x00	; 0
    24b8:	0c 94 a1 3f 	jmp	0x7f42	; 0x7f42 <playsound>

000024bc <key4_1fmode1>:
    24bc:	60 e0       	ldi	r22, 0x00	; 0
    24be:	80 e0       	ldi	r24, 0x00	; 0
    24c0:	0e 94 a1 3f 	call	0x7f42	; 0x7f42 <playsound>
    24c4:	e0 91 73 06 	lds	r30, 0x0673	; 0x800673 <dialogbox_nb+0xc>
    24c8:	f0 91 74 06 	lds	r31, 0x0674	; 0x800674 <dialogbox_nb+0xd>
    24cc:	09 94       	ijmp

000024ce <key2_1fmode1>:
    24ce:	e0 91 6f 06 	lds	r30, 0x066F	; 0x80066f <dialogbox_nb+0x8>
    24d2:	f0 91 70 06 	lds	r31, 0x0670	; 0x800670 <dialogbox_nb+0x9>
    24d6:	09 95       	icall
    24d8:	60 e0       	ldi	r22, 0x00	; 0
    24da:	80 e0       	ldi	r24, 0x00	; 0
    24dc:	0c 94 a1 3f 	jmp	0x7f42	; 0x7f42 <playsound>

000024e0 <key1_1fmode1>:
    24e0:	e0 91 6d 06 	lds	r30, 0x066D	; 0x80066d <dialogbox_nb+0x6>
    24e4:	f0 91 6e 06 	lds	r31, 0x066E	; 0x80066e <dialogbox_nb+0x7>
    24e8:	09 95       	icall
    24ea:	60 e0       	ldi	r22, 0x00	; 0
    24ec:	80 e0       	ldi	r24, 0x00	; 0
    24ee:	0c 94 a1 3f 	jmp	0x7f42	; 0x7f42 <playsound>

000024f2 <key4_1fmode0>:
    24f2:	1f 93       	push	r17
    24f4:	cf 93       	push	r28
    24f6:	df 93       	push	r29
    24f8:	60 e0       	ldi	r22, 0x00	; 0
    24fa:	80 e0       	ldi	r24, 0x00	; 0
    24fc:	0e 94 a1 3f 	call	0x7f42	; 0x7f42 <playsound>
    2500:	cf e8       	ldi	r28, 0x8F	; 143
    2502:	d7 e0       	ldi	r29, 0x07	; 7
    2504:	11 e0       	ldi	r17, 0x01	; 1
    2506:	18 83       	st	Y, r17
    2508:	61 e0       	ldi	r22, 0x01	; 1
    250a:	8e e0       	ldi	r24, 0x0E	; 14
    250c:	91 e0       	ldi	r25, 0x01	; 1
    250e:	0e 94 b8 24 	call	0x4970	; 0x4970 <change_operating_mode>
    2512:	19 83       	std	Y+1, r17	; 0x01
    2514:	1a 82       	std	Y+2, r1	; 0x02
    2516:	df 91       	pop	r29
    2518:	cf 91       	pop	r28
    251a:	1f 91       	pop	r17
    251c:	08 95       	ret

0000251e <key3_1fmode0>:
    251e:	61 e0       	ldi	r22, 0x01	; 1
    2520:	80 e0       	ldi	r24, 0x00	; 0
    2522:	0e 94 a1 3f 	call	0x7f42	; 0x7f42 <playsound>
    2526:	e0 e9       	ldi	r30, 0x90	; 144
    2528:	f1 e0       	ldi	r31, 0x01	; 1
    252a:	10 86       	std	Z+8, r1	; 0x08
    252c:	12 86       	std	Z+10, r1	; 0x0a
    252e:	81 e0       	ldi	r24, 0x01	; 1
    2530:	83 87       	std	Z+11, r24	; 0x0b
    2532:	80 93 8e 07 	sts	0x078E, r24	; 0x80078e <__data_end>
    2536:	8f ef       	ldi	r24, 0xFF	; 255
    2538:	80 93 69 08 	sts	0x0869, r24	; 0x800869 <kbhandler_app>
    253c:	08 95       	ret

0000253e <_entering_to_preview_scene>:
    253e:	0f 93       	push	r16
    2540:	e0 91 ae 01 	lds	r30, 0x01AE	; 0x8001ae <previewscene+0x12>
    2544:	f0 91 af 01 	lds	r31, 0x01AF	; 0x8001af <previewscene+0x13>
    2548:	09 95       	icall
    254a:	80 91 36 08 	lds	r24, 0x0836	; 0x800836 <ps_scene>
    254e:	63 e1       	ldi	r22, 0x13	; 19
    2550:	88 23       	and	r24, r24
    2552:	51 f0       	breq	.+20     	; 0x2568 <_entering_to_preview_scene+0x2a>
    2554:	86 e0       	ldi	r24, 0x06	; 6
    2556:	0e 94 da 25 	call	0x4bb4	; 0x4bb4 <ks0108GotoXY>
    255a:	8b e3       	ldi	r24, 0x3B	; 59
    255c:	9a e0       	ldi	r25, 0x0A	; 10
    255e:	0e 94 11 2c 	call	0x5822	; 0x5822 <ks0108Puts_P>
    2562:	0f 91       	pop	r16
    2564:	0c 94 31 12 	jmp	0x2462	; 0x2462 <_options_preview_scene>
    2568:	86 e0       	ldi	r24, 0x06	; 6
    256a:	0e 94 da 25 	call	0x4bb4	; 0x4bb4 <ks0108GotoXY>
    256e:	80 e3       	ldi	r24, 0x30	; 48
    2570:	9a e0       	ldi	r25, 0x0A	; 10
    2572:	0e 94 11 2c 	call	0x5822	; 0x5822 <ks0108Puts_P>
    2576:	6e e1       	ldi	r22, 0x1E	; 30
    2578:	8a e0       	ldi	r24, 0x0A	; 10
    257a:	0e 94 da 25 	call	0x4bb4	; 0x4bb4 <ks0108GotoXY>
    257e:	88 e2       	ldi	r24, 0x28	; 40
    2580:	9a e0       	ldi	r25, 0x0A	; 10
    2582:	0e 94 11 2c 	call	0x5822	; 0x5822 <ks0108Puts_P>
    2586:	00 e0       	ldi	r16, 0x00	; 0
    2588:	2d e3       	ldi	r18, 0x3D	; 61
    258a:	4c e7       	ldi	r20, 0x7C	; 124
    258c:	61 e0       	ldi	r22, 0x01	; 1
    258e:	82 e4       	ldi	r24, 0x42	; 66
    2590:	0e 94 61 28 	call	0x50c2	; 0x50c2 <ks0108FillRect>
    2594:	0f 91       	pop	r16
    2596:	08 95       	ret

00002598 <key3_1fmode1>:
    2598:	e0 91 71 06 	lds	r30, 0x0671	; 0x800671 <dialogbox_nb+0xa>
    259c:	f0 91 72 06 	lds	r31, 0x0672	; 0x800672 <dialogbox_nb+0xb>
    25a0:	09 95       	icall
    25a2:	80 91 69 06 	lds	r24, 0x0669	; 0x800669 <dialogbox_nb+0x2>
    25a6:	81 11       	cpse	r24, r1
    25a8:	02 c0       	rjmp	.+4      	; 0x25ae <key3_1fmode1+0x16>
    25aa:	61 e0       	ldi	r22, 0x01	; 1
    25ac:	06 c0       	rjmp	.+12     	; 0x25ba <key3_1fmode1+0x22>
    25ae:	80 91 69 06 	lds	r24, 0x0669	; 0x800669 <dialogbox_nb+0x2>
    25b2:	81 30       	cpi	r24, 0x01	; 1
    25b4:	21 f4       	brne	.+8      	; 0x25be <key3_1fmode1+0x26>
    25b6:	60 e0       	ldi	r22, 0x00	; 0
    25b8:	80 e0       	ldi	r24, 0x00	; 0
    25ba:	0c 94 a1 3f 	jmp	0x7f42	; 0x7f42 <playsound>
    25be:	08 95       	ret

000025c0 <key3_1fmode1_aft>:
    25c0:	0c 94 cc 12 	jmp	0x2598	; 0x2598 <key3_1fmode1>

000025c4 <key2_1fmode0>:
    25c4:	60 e0       	ldi	r22, 0x00	; 0
    25c6:	80 e0       	ldi	r24, 0x00	; 0
    25c8:	0e 94 a1 3f 	call	0x7f42	; 0x7f42 <playsound>
    25cc:	80 91 36 08 	lds	r24, 0x0836	; 0x800836 <ps_scene>
    25d0:	88 23       	and	r24, r24
    25d2:	91 f0       	breq	.+36     	; 0x25f8 <key2_1fmode0+0x34>
    25d4:	64 e3       	ldi	r22, 0x34	; 52
    25d6:	89 e0       	ldi	r24, 0x09	; 9
    25d8:	0e 94 a2 1e 	call	0x3d44	; 0x3d44 <_draw_triangle_left_solid_white>
    25dc:	10 92 94 01 	sts	0x0194, r1	; 0x800194 <this_timmer_nb+0x4>
    25e0:	10 92 96 01 	sts	0x0196, r1	; 0x800196 <this_timmer_nb+0x6>
    25e4:	81 e0       	ldi	r24, 0x01	; 1
    25e6:	80 93 97 01 	sts	0x0197, r24	; 0x800197 <this_timmer_nb+0x7>
    25ea:	80 91 9c 01 	lds	r24, 0x019C	; 0x80019c <previewscene>
    25ee:	81 50       	subi	r24, 0x01	; 1
    25f0:	80 93 9c 01 	sts	0x019C, r24	; 0x80019c <previewscene>
    25f4:	0c 94 31 12 	jmp	0x2462	; 0x2462 <_options_preview_scene>
    25f8:	08 95       	ret

000025fa <key1_1fmode0>:
    25fa:	60 e0       	ldi	r22, 0x00	; 0
    25fc:	80 e0       	ldi	r24, 0x00	; 0
    25fe:	0e 94 a1 3f 	call	0x7f42	; 0x7f42 <playsound>
    2602:	80 91 36 08 	lds	r24, 0x0836	; 0x800836 <ps_scene>
    2606:	88 23       	and	r24, r24
    2608:	91 f0       	breq	.+36     	; 0x262e <key1_1fmode0+0x34>
    260a:	64 e3       	ldi	r22, 0x34	; 52
    260c:	86 e3       	ldi	r24, 0x36	; 54
    260e:	0e 94 c9 1e 	call	0x3d92	; 0x3d92 <_draw_triangle_rigth_solid_white>
    2612:	10 92 90 01 	sts	0x0190, r1	; 0x800190 <this_timmer_nb>
    2616:	10 92 92 01 	sts	0x0192, r1	; 0x800192 <this_timmer_nb+0x2>
    261a:	81 e0       	ldi	r24, 0x01	; 1
    261c:	80 93 93 01 	sts	0x0193, r24	; 0x800193 <this_timmer_nb+0x3>
    2620:	80 91 9c 01 	lds	r24, 0x019C	; 0x80019c <previewscene>
    2624:	8f 5f       	subi	r24, 0xFF	; 255
    2626:	80 93 9c 01 	sts	0x019C, r24	; 0x80019c <previewscene>
    262a:	0c 94 31 12 	jmp	0x2462	; 0x2462 <_options_preview_scene>
    262e:	08 95       	ret

00002630 <_delete_scene>:
    2630:	cf 92       	push	r12
    2632:	df 92       	push	r13
    2634:	ef 92       	push	r14
    2636:	ff 92       	push	r15
    2638:	0f 93       	push	r16
    263a:	1f 93       	push	r17
    263c:	cf 93       	push	r28
    263e:	df 93       	push	r29
    2640:	80 91 9c 01 	lds	r24, 0x019C	; 0x80019c <previewscene>
    2644:	90 91 36 08 	lds	r25, 0x0836	; 0x800836 <ps_scene>
    2648:	99 23       	and	r25, r25
    264a:	09 f4       	brne	.+2      	; 0x264e <_delete_scene+0x1e>
    264c:	7a c0       	rjmp	.+244    	; 0x2742 <_delete_scene+0x112>
    264e:	40 91 9c 01 	lds	r20, 0x019C	; 0x80019c <previewscene>
    2652:	20 91 28 08 	lds	r18, 0x0828	; 0x800828 <currentscene>
    2656:	04 2e       	mov	r0, r20
    2658:	00 0c       	add	r0, r0
    265a:	55 0b       	sbc	r21, r21
    265c:	30 e0       	ldi	r19, 0x00	; 0
    265e:	42 17       	cp	r20, r18
    2660:	53 07       	cpc	r21, r19
    2662:	19 f4       	brne	.+6      	; 0x266a <_delete_scene+0x3a>
    2664:	9f ef       	ldi	r25, 0xFF	; 255
    2666:	90 93 28 08 	sts	0x0828, r25	; 0x800828 <currentscene>
    266a:	40 91 9c 01 	lds	r20, 0x019C	; 0x80019c <previewscene>
    266e:	20 91 36 08 	lds	r18, 0x0836	; 0x800836 <ps_scene>
    2672:	04 2e       	mov	r0, r20
    2674:	00 0c       	add	r0, r0
    2676:	55 0b       	sbc	r21, r21
    2678:	30 e0       	ldi	r19, 0x00	; 0
    267a:	21 50       	subi	r18, 0x01	; 1
    267c:	31 09       	sbc	r19, r1
    267e:	42 17       	cp	r20, r18
    2680:	53 07       	cpc	r21, r19
    2682:	49 f4       	brne	.+18     	; 0x2696 <_delete_scene+0x66>
    2684:	90 91 9c 01 	lds	r25, 0x019C	; 0x80019c <previewscene>
    2688:	19 16       	cp	r1, r25
    268a:	2c f4       	brge	.+10     	; 0x2696 <_delete_scene+0x66>
    268c:	90 91 9c 01 	lds	r25, 0x019C	; 0x80019c <previewscene>
    2690:	91 50       	subi	r25, 0x01	; 1
    2692:	90 93 9c 01 	sts	0x019C, r25	; 0x80019c <previewscene>
    2696:	dd e0       	ldi	r29, 0x0D	; 13
    2698:	e8 2e       	mov	r14, r24
    269a:	f1 2c       	mov	r15, r1
    269c:	20 91 36 08 	lds	r18, 0x0836	; 0x800836 <ps_scene>
    26a0:	30 e0       	ldi	r19, 0x00	; 0
    26a2:	21 50       	subi	r18, 0x01	; 1
    26a4:	31 09       	sbc	r19, r1
    26a6:	e2 16       	cp	r14, r18
    26a8:	f3 06       	cpc	r15, r19
    26aa:	c4 f5       	brge	.+112    	; 0x271c <_delete_scene+0xec>
    26ac:	9d e0       	ldi	r25, 0x0D	; 13
    26ae:	89 9f       	mul	r24, r25
    26b0:	60 01       	movw	r12, r0
    26b2:	11 24       	eor	r1, r1
    26b4:	00 e0       	ldi	r16, 0x00	; 0
    26b6:	10 e0       	ldi	r17, 0x00	; 0
    26b8:	c1 e0       	ldi	r28, 0x01	; 1
    26ba:	c8 0f       	add	r28, r24
    26bc:	8f ef       	ldi	r24, 0xFF	; 255
    26be:	c8 1a       	sub	r12, r24
    26c0:	d8 0a       	sbc	r13, r24
    26c2:	60 2f       	mov	r22, r16
    26c4:	8c 2f       	mov	r24, r28
    26c6:	0e 94 a1 15 	call	0x2b42	; 0x2b42 <get_dcofzone_ofscene_EEP>
    26ca:	98 01       	movw	r18, r16
    26cc:	22 0f       	add	r18, r18
    26ce:	33 1f       	adc	r19, r19
    26d0:	2c 0d       	add	r18, r12
    26d2:	3d 1d       	adc	r19, r13
    26d4:	bc 01       	movw	r22, r24
    26d6:	c9 01       	movw	r24, r18
    26d8:	80 50       	subi	r24, 0x00	; 0
    26da:	9e 4f       	sbci	r25, 0xFE	; 254
    26dc:	0e 94 37 11 	call	0x226e	; 0x226e <EEPROM_WriteWord>
    26e0:	0f 5f       	subi	r16, 0xFF	; 255
    26e2:	1f 4f       	sbci	r17, 0xFF	; 255
    26e4:	06 30       	cpi	r16, 0x06	; 6
    26e6:	11 05       	cpc	r17, r1
    26e8:	61 f7       	brne	.-40     	; 0x26c2 <_delete_scene+0x92>
    26ea:	97 01       	movw	r18, r14
    26ec:	2f 5f       	subi	r18, 0xFF	; 255
    26ee:	3f 4f       	sbci	r19, 0xFF	; 255
    26f0:	d2 9f       	mul	r29, r18
    26f2:	c0 01       	movw	r24, r0
    26f4:	d3 9f       	mul	r29, r19
    26f6:	90 0d       	add	r25, r0
    26f8:	11 24       	eor	r1, r1
    26fa:	80 50       	subi	r24, 0x00	; 0
    26fc:	9e 4f       	sbci	r25, 0xFE	; 254
    26fe:	0e 94 46 11 	call	0x228c	; 0x228c <EEPROM_ReadByte>
    2702:	de 9d       	mul	r29, r14
    2704:	90 01       	movw	r18, r0
    2706:	df 9d       	mul	r29, r15
    2708:	30 0d       	add	r19, r0
    270a:	11 24       	eor	r1, r1
    270c:	68 2f       	mov	r22, r24
    270e:	c9 01       	movw	r24, r18
    2710:	80 50       	subi	r24, 0x00	; 0
    2712:	9e 4f       	sbci	r25, 0xFE	; 254
    2714:	0e 94 22 11 	call	0x2244	; 0x2244 <EEPROM_WriteByte>
    2718:	8c 2f       	mov	r24, r28
    271a:	be cf       	rjmp	.-132    	; 0x2698 <_delete_scene+0x68>
    271c:	80 91 36 08 	lds	r24, 0x0836	; 0x800836 <ps_scene>
    2720:	81 50       	subi	r24, 0x01	; 1
    2722:	80 93 36 08 	sts	0x0836, r24	; 0x800836 <ps_scene>
    2726:	60 91 36 08 	lds	r22, 0x0836	; 0x800836 <ps_scene>
    272a:	81 e0       	ldi	r24, 0x01	; 1
    272c:	91 e0       	ldi	r25, 0x01	; 1
    272e:	df 91       	pop	r29
    2730:	cf 91       	pop	r28
    2732:	1f 91       	pop	r17
    2734:	0f 91       	pop	r16
    2736:	ff 90       	pop	r15
    2738:	ef 90       	pop	r14
    273a:	df 90       	pop	r13
    273c:	cf 90       	pop	r12
    273e:	0c 94 22 11 	jmp	0x2244	; 0x2244 <EEPROM_WriteByte>
    2742:	df 91       	pop	r29
    2744:	cf 91       	pop	r28
    2746:	1f 91       	pop	r17
    2748:	0f 91       	pop	r16
    274a:	ff 90       	pop	r15
    274c:	ef 90       	pop	r14
    274e:	df 90       	pop	r13
    2750:	cf 90       	pop	r12
    2752:	08 95       	ret

00002754 <delete_scene_handler>:
    2754:	0f 93       	push	r16
    2756:	80 91 90 07 	lds	r24, 0x0790	; 0x800790 <thisps+0x1>
    275a:	81 11       	cpse	r24, r1
    275c:	34 c0       	rjmp	.+104    	; 0x27c6 <delete_scene_handler+0x72>
    275e:	80 91 91 07 	lds	r24, 0x0791	; 0x800791 <thisps+0x2>
    2762:	81 11       	cpse	r24, r1
    2764:	2b c0       	rjmp	.+86     	; 0x27bc <delete_scene_handler+0x68>
    2766:	81 e0       	ldi	r24, 0x01	; 1
    2768:	80 93 91 07 	sts	0x0791, r24	; 0x800791 <thisps+0x2>
    276c:	10 92 8f 07 	sts	0x078F, r1	; 0x80078f <thisps>
    2770:	60 e0       	ldi	r22, 0x00	; 0
    2772:	8e e0       	ldi	r24, 0x0E	; 14
    2774:	91 e0       	ldi	r25, 0x01	; 1
    2776:	0e 94 b8 24 	call	0x4970	; 0x4970 <change_operating_mode>
    277a:	00 e0       	ldi	r16, 0x00	; 0
    277c:	2f e3       	ldi	r18, 0x3F	; 63
    277e:	4f eb       	ldi	r20, 0xBF	; 191
    2780:	60 e0       	ldi	r22, 0x00	; 0
    2782:	80 e0       	ldi	r24, 0x00	; 0
    2784:	0e 94 61 28 	call	0x50c2	; 0x50c2 <ks0108FillRect>
    2788:	0f ef       	ldi	r16, 0xFF	; 255
    278a:	2f e3       	ldi	r18, 0x3F	; 63
    278c:	4f e3       	ldi	r20, 0x3F	; 63
    278e:	60 e0       	ldi	r22, 0x00	; 0
    2790:	80 e0       	ldi	r24, 0x00	; 0
    2792:	0e 94 f4 28 	call	0x51e8	; 0x51e8 <ks0108DrawRect>
    2796:	2f e3       	ldi	r18, 0x3F	; 63
    2798:	4e e7       	ldi	r20, 0x7E	; 126
    279a:	60 e0       	ldi	r22, 0x00	; 0
    279c:	81 e4       	ldi	r24, 0x41	; 65
    279e:	0e 94 f4 28 	call	0x51e8	; 0x51e8 <ks0108DrawRect>
    27a2:	80 91 28 08 	lds	r24, 0x0828	; 0x800828 <currentscene>
    27a6:	8f 3f       	cpi	r24, 0xFF	; 255
    27a8:	29 f0       	breq	.+10     	; 0x27b4 <delete_scene_handler+0x60>
    27aa:	80 91 28 08 	lds	r24, 0x0828	; 0x800828 <currentscene>
    27ae:	80 93 9c 01 	sts	0x019C, r24	; 0x80019c <previewscene>
    27b2:	02 c0       	rjmp	.+4      	; 0x27b8 <delete_scene_handler+0x64>
    27b4:	10 92 9c 01 	sts	0x019C, r1	; 0x80019c <previewscene>
    27b8:	0e 94 9f 12 	call	0x253e	; 0x253e <_entering_to_preview_scene>
    27bc:	8f ef       	ldi	r24, 0xFF	; 255
    27be:	80 93 90 07 	sts	0x0790, r24	; 0x800790 <thisps+0x1>
    27c2:	10 92 91 07 	sts	0x0791, r1	; 0x800791 <thisps+0x2>
    27c6:	80 91 90 07 	lds	r24, 0x0790	; 0x800790 <thisps+0x1>
    27ca:	81 30       	cpi	r24, 0x01	; 1
    27cc:	d9 f5       	brne	.+118    	; 0x2844 <delete_scene_handler+0xf0>
    27ce:	90 91 91 07 	lds	r25, 0x0791	; 0x800791 <thisps+0x2>
    27d2:	91 11       	cpse	r25, r1
    27d4:	14 c0       	rjmp	.+40     	; 0x27fe <delete_scene_handler+0xaa>
    27d6:	80 93 91 07 	sts	0x0791, r24	; 0x800791 <thisps+0x2>
    27da:	4f e1       	ldi	r20, 0x1F	; 31
    27dc:	6f e1       	ldi	r22, 0x1F	; 31
    27de:	8f e1       	ldi	r24, 0x1F	; 31
    27e0:	0e 94 02 1c 	call	0x3804	; 0x3804 <ClearFromCenter_GrowingSymmetric>
    27e4:	69 e1       	ldi	r22, 0x19	; 25
    27e6:	81 e1       	ldi	r24, 0x11	; 17
    27e8:	0e 94 da 25 	call	0x4bb4	; 0x4bb4 <ks0108GotoXY>
    27ec:	83 e4       	ldi	r24, 0x43	; 67
    27ee:	9a e0       	ldi	r25, 0x0A	; 10
    27f0:	0e 94 11 2c 	call	0x5822	; 0x5822 <ks0108Puts_P>
    27f4:	40 e0       	ldi	r20, 0x00	; 0
    27f6:	62 e0       	ldi	r22, 0x02	; 2
    27f8:	82 e0       	ldi	r24, 0x02	; 2
    27fa:	0e 94 e6 3d 	call	0x7bcc	; 0x7bcc <dialogbox_sino>
    27fe:	80 91 91 07 	lds	r24, 0x0791	; 0x800791 <thisps+0x2>
    2802:	81 30       	cpi	r24, 0x01	; 1
    2804:	f9 f4       	brne	.+62     	; 0x2844 <delete_scene_handler+0xf0>
    2806:	80 91 6a 06 	lds	r24, 0x066A	; 0x80066a <dialogbox_nb+0x3>
    280a:	87 fd       	sbrc	r24, 7
    280c:	1b c0       	rjmp	.+54     	; 0x2844 <delete_scene_handler+0xf0>
    280e:	80 91 6a 06 	lds	r24, 0x066A	; 0x80066a <dialogbox_nb+0x3>
    2812:	81 30       	cpi	r24, 0x01	; 1
    2814:	19 f4       	brne	.+6      	; 0x281c <delete_scene_handler+0xc8>
    2816:	0e 94 4d 12 	call	0x249a	; 0x249a <_return2shell>
    281a:	11 c0       	rjmp	.+34     	; 0x283e <delete_scene_handler+0xea>
    281c:	80 91 6a 06 	lds	r24, 0x066A	; 0x80066a <dialogbox_nb+0x3>
    2820:	88 23       	and	r24, r24
    2822:	21 f0       	breq	.+8      	; 0x282c <delete_scene_handler+0xd8>
    2824:	80 91 6a 06 	lds	r24, 0x066A	; 0x80066a <dialogbox_nb+0x3>
    2828:	83 30       	cpi	r24, 0x03	; 3
    282a:	61 f4       	brne	.+24     	; 0x2844 <delete_scene_handler+0xf0>
    282c:	0e 94 9f 12 	call	0x253e	; 0x253e <_entering_to_preview_scene>
    2830:	10 92 8f 07 	sts	0x078F, r1	; 0x80078f <thisps>
    2834:	60 e0       	ldi	r22, 0x00	; 0
    2836:	8e e0       	ldi	r24, 0x0E	; 14
    2838:	91 e0       	ldi	r25, 0x01	; 1
    283a:	0e 94 b8 24 	call	0x4970	; 0x4970 <change_operating_mode>
    283e:	8f ef       	ldi	r24, 0xFF	; 255
    2840:	80 93 6a 06 	sts	0x066A, r24	; 0x80066a <dialogbox_nb+0x3>
    2844:	63 e0       	ldi	r22, 0x03	; 3
    2846:	70 e0       	ldi	r23, 0x00	; 0
    2848:	80 e9       	ldi	r24, 0x90	; 144
    284a:	91 e0       	ldi	r25, 0x01	; 1
    284c:	0e 94 62 46 	call	0x8cc4	; 0x8cc4 <timmer_nb__processing>
    2850:	80 91 92 01 	lds	r24, 0x0192	; 0x800192 <this_timmer_nb+0x2>
    2854:	88 23       	and	r24, r24
    2856:	31 f0       	breq	.+12     	; 0x2864 <delete_scene_handler+0x110>
    2858:	64 e3       	ldi	r22, 0x34	; 52
    285a:	86 e3       	ldi	r24, 0x36	; 54
    285c:	0e 94 7b 1e 	call	0x3cf6	; 0x3cf6 <_draw_triangle_rigth_solid_black>
    2860:	10 92 92 01 	sts	0x0192, r1	; 0x800192 <this_timmer_nb+0x2>
    2864:	80 91 96 01 	lds	r24, 0x0196	; 0x800196 <this_timmer_nb+0x6>
    2868:	88 23       	and	r24, r24
    286a:	31 f0       	breq	.+12     	; 0x2878 <delete_scene_handler+0x124>
    286c:	64 e3       	ldi	r22, 0x34	; 52
    286e:	89 e0       	ldi	r24, 0x09	; 9
    2870:	0e 94 54 1e 	call	0x3ca8	; 0x3ca8 <_draw_triangle_left_solid_black>
    2874:	10 92 96 01 	sts	0x0196, r1	; 0x800196 <this_timmer_nb+0x6>
    2878:	80 91 8e 07 	lds	r24, 0x078E	; 0x80078e <__data_end>
    287c:	88 23       	and	r24, r24
    287e:	09 f4       	brne	.+2      	; 0x2882 <delete_scene_handler+0x12e>
    2880:	70 c0       	rjmp	.+224    	; 0x2962 <delete_scene_handler+0x20e>
    2882:	81 30       	cpi	r24, 0x01	; 1
    2884:	09 f0       	breq	.+2      	; 0x2888 <delete_scene_handler+0x134>
    2886:	60 c0       	rjmp	.+192    	; 0x2948 <delete_scene_handler+0x1f4>
    2888:	80 91 9a 01 	lds	r24, 0x019A	; 0x80019a <this_timmer_nb+0xa>
    288c:	81 11       	cpse	r24, r1
    288e:	1b c0       	rjmp	.+54     	; 0x28c6 <delete_scene_handler+0x172>
    2890:	80 91 9a 01 	lds	r24, 0x019A	; 0x80019a <this_timmer_nb+0xa>
    2894:	8f 5f       	subi	r24, 0xFF	; 255
    2896:	80 93 9a 01 	sts	0x019A, r24	; 0x80019a <this_timmer_nb+0xa>
    289a:	00 e0       	ldi	r16, 0x00	; 0
    289c:	2a e0       	ldi	r18, 0x0A	; 10
    289e:	4e e0       	ldi	r20, 0x0E	; 14
    28a0:	6f e2       	ldi	r22, 0x2F	; 47
    28a2:	89 e1       	ldi	r24, 0x19	; 25
    28a4:	0e 94 61 28 	call	0x50c2	; 0x50c2 <ks0108FillRect>
    28a8:	6f e2       	ldi	r22, 0x2F	; 47
    28aa:	8a e1       	ldi	r24, 0x1A	; 26
    28ac:	0e 94 da 25 	call	0x4bb4	; 0x4bb4 <ks0108GotoXY>
    28b0:	85 e2       	ldi	r24, 0x25	; 37
    28b2:	9a e0       	ldi	r25, 0x0A	; 10
    28b4:	0e 94 11 2c 	call	0x5822	; 0x5822 <ks0108Puts_P>
    28b8:	2a e0       	ldi	r18, 0x0A	; 10
    28ba:	4e e0       	ldi	r20, 0x0E	; 14
    28bc:	6f e2       	ldi	r22, 0x2F	; 47
    28be:	89 e1       	ldi	r24, 0x19	; 25
    28c0:	0e 94 57 29 	call	0x52ae	; 0x52ae <ks0108InvertRect>
    28c4:	41 c0       	rjmp	.+130    	; 0x2948 <delete_scene_handler+0x1f4>
    28c6:	80 91 9a 01 	lds	r24, 0x019A	; 0x80019a <this_timmer_nb+0xa>
    28ca:	82 30       	cpi	r24, 0x02	; 2
    28cc:	e9 f5       	brne	.+122    	; 0x2948 <delete_scene_handler+0x1f4>
    28ce:	10 92 9a 01 	sts	0x019A, r1	; 0x80019a <this_timmer_nb+0xa>
    28d2:	2a e0       	ldi	r18, 0x0A	; 10
    28d4:	4e e0       	ldi	r20, 0x0E	; 14
    28d6:	6f e2       	ldi	r22, 0x2F	; 47
    28d8:	89 e1       	ldi	r24, 0x19	; 25
    28da:	0e 94 57 29 	call	0x52ae	; 0x52ae <ks0108InvertRect>
    28de:	80 91 36 08 	lds	r24, 0x0836	; 0x800836 <ps_scene>
    28e2:	88 23       	and	r24, r24
    28e4:	39 f1       	breq	.+78     	; 0x2934 <delete_scene_handler+0x1e0>
    28e6:	0e 94 18 13 	call	0x2630	; 0x2630 <_delete_scene>
    28ea:	4f e1       	ldi	r20, 0x1F	; 31
    28ec:	6f e1       	ldi	r22, 0x1F	; 31
    28ee:	8f e1       	ldi	r24, 0x1F	; 31
    28f0:	0e 94 02 1c 	call	0x3804	; 0x3804 <ClearFromCenter_GrowingSymmetric>
    28f4:	62 e0       	ldi	r22, 0x02	; 2
    28f6:	82 e0       	ldi	r24, 0x02	; 2
    28f8:	0e 94 33 1d 	call	0x3a66	; 0x3a66 <window_Aviso>
    28fc:	63 e1       	ldi	r22, 0x13	; 19
    28fe:	8c e0       	ldi	r24, 0x0C	; 12
    2900:	0e 94 da 25 	call	0x4bb4	; 0x4bb4 <ks0108GotoXY>
    2904:	8e e1       	ldi	r24, 0x1E	; 30
    2906:	9a e0       	ldi	r25, 0x0A	; 10
    2908:	0e 94 11 2c 	call	0x5822	; 0x5822 <ks0108Puts_P>
    290c:	6f e1       	ldi	r22, 0x1F	; 31
    290e:	86 e0       	ldi	r24, 0x06	; 6
    2910:	0e 94 da 25 	call	0x4bb4	; 0x4bb4 <ks0108GotoXY>
    2914:	84 e1       	ldi	r24, 0x14	; 20
    2916:	9a e0       	ldi	r25, 0x0A	; 10
    2918:	0e 94 11 2c 	call	0x5822	; 0x5822 <ks0108Puts_P>
    291c:	2f ef       	ldi	r18, 0xFF	; 255
    291e:	83 ed       	ldi	r24, 0xD3	; 211
    2920:	90 e3       	ldi	r25, 0x30	; 48
    2922:	21 50       	subi	r18, 0x01	; 1
    2924:	80 40       	sbci	r24, 0x00	; 0
    2926:	90 40       	sbci	r25, 0x00	; 0
    2928:	e1 f7       	brne	.-8      	; 0x2922 <delete_scene_handler+0x1ce>
    292a:	00 c0       	rjmp	.+0      	; 0x292c <delete_scene_handler+0x1d8>
    292c:	00 00       	nop
    292e:	0e 94 9f 12 	call	0x253e	; 0x253e <_entering_to_preview_scene>
    2932:	02 c0       	rjmp	.+4      	; 0x2938 <delete_scene_handler+0x1e4>
    2934:	0e 94 4d 12 	call	0x249a	; 0x249a <_return2shell>
    2938:	83 e0       	ldi	r24, 0x03	; 3
    293a:	80 93 69 08 	sts	0x0869, r24	; 0x800869 <kbhandler_app>
    293e:	80 91 8e 07 	lds	r24, 0x078E	; 0x80078e <__data_end>
    2942:	8f 5f       	subi	r24, 0xFF	; 255
    2944:	80 93 8e 07 	sts	0x078E, r24	; 0x80078e <__data_end>
    2948:	80 91 8e 07 	lds	r24, 0x078E	; 0x80078e <__data_end>
    294c:	82 30       	cpi	r24, 0x02	; 2
    294e:	49 f4       	brne	.+18     	; 0x2962 <delete_scene_handler+0x20e>
    2950:	10 92 8f 07 	sts	0x078F, r1	; 0x80078f <thisps>
    2954:	60 e0       	ldi	r22, 0x00	; 0
    2956:	8e e0       	ldi	r24, 0x0E	; 14
    2958:	91 e0       	ldi	r25, 0x01	; 1
    295a:	0e 94 b8 24 	call	0x4970	; 0x4970 <change_operating_mode>
    295e:	10 92 8e 07 	sts	0x078E, r1	; 0x80078e <__data_end>
    2962:	0f 91       	pop	r16
    2964:	08 95       	ret

00002966 <_preview__bkframewnd>:
    2966:	0f 93       	push	r16
    2968:	00 e0       	ldi	r16, 0x00	; 0
    296a:	2d e3       	ldi	r18, 0x3D	; 61
    296c:	4d e3       	ldi	r20, 0x3D	; 61
    296e:	61 e0       	ldi	r22, 0x01	; 1
    2970:	81 e0       	ldi	r24, 0x01	; 1
    2972:	0e 94 61 28 	call	0x50c2	; 0x50c2 <ks0108FillRect>
    2976:	4f ef       	ldi	r20, 0xFF	; 255
    2978:	64 e4       	ldi	r22, 0x44	; 68
    297a:	75 e2       	ldi	r23, 0x25	; 37
    297c:	86 e0       	ldi	r24, 0x06	; 6
    297e:	90 e1       	ldi	r25, 0x10	; 16
    2980:	0e 94 47 25 	call	0x4a8e	; 0x4a8e <ks0108SelectFont>
    2984:	62 e0       	ldi	r22, 0x02	; 2
    2986:	86 e0       	ldi	r24, 0x06	; 6
    2988:	0e 94 da 25 	call	0x4bb4	; 0x4bb4 <ks0108GotoXY>
    298c:	80 e6       	ldi	r24, 0x60	; 96
    298e:	9a e0       	ldi	r25, 0x0A	; 10
    2990:	0e 94 11 2c 	call	0x5822	; 0x5822 <ks0108Puts_P>
    2994:	2d e0       	ldi	r18, 0x0D	; 13
    2996:	4b e3       	ldi	r20, 0x3B	; 59
    2998:	62 e0       	ldi	r22, 0x02	; 2
    299a:	82 e0       	ldi	r24, 0x02	; 2
    299c:	0e 94 57 29 	call	0x52ae	; 0x52ae <ks0108InvertRect>
    29a0:	0f ef       	ldi	r16, 0xFF	; 255
    29a2:	20 e0       	ldi	r18, 0x00	; 0
    29a4:	4f e3       	ldi	r20, 0x3F	; 63
    29a6:	61 e1       	ldi	r22, 0x11	; 17
    29a8:	80 e0       	ldi	r24, 0x00	; 0
    29aa:	0e 94 61 28 	call	0x50c2	; 0x50c2 <ks0108FillRect>
    29ae:	20 e0       	ldi	r18, 0x00	; 0
    29b0:	4f e3       	ldi	r20, 0x3F	; 63
    29b2:	6c e2       	ldi	r22, 0x2C	; 44
    29b4:	80 e0       	ldi	r24, 0x00	; 0
    29b6:	0e 94 61 28 	call	0x50c2	; 0x50c2 <ks0108FillRect>
    29ba:	6e e2       	ldi	r22, 0x2E	; 46
    29bc:	85 e1       	ldi	r24, 0x15	; 21
    29be:	0e 94 da 25 	call	0x4bb4	; 0x4bb4 <ks0108GotoXY>
    29c2:	8e e5       	ldi	r24, 0x5E	; 94
    29c4:	9a e0       	ldi	r25, 0x0A	; 10
    29c6:	0e 94 11 2c 	call	0x5822	; 0x5822 <ks0108Puts_P>
    29ca:	6f e2       	ldi	r22, 0x2F	; 47
    29cc:	8a e1       	ldi	r24, 0x1A	; 26
    29ce:	0e 94 da 25 	call	0x4bb4	; 0x4bb4 <ks0108GotoXY>
    29d2:	8b e5       	ldi	r24, 0x5B	; 91
    29d4:	9a e0       	ldi	r25, 0x0A	; 10
    29d6:	0e 94 11 2c 	call	0x5822	; 0x5822 <ks0108Puts_P>
    29da:	6e e2       	ldi	r22, 0x2E	; 46
    29dc:	89 e2       	ldi	r24, 0x29	; 41
    29de:	0e 94 da 25 	call	0x4bb4	; 0x4bb4 <ks0108GotoXY>
    29e2:	89 e5       	ldi	r24, 0x59	; 89
    29e4:	9a e0       	ldi	r25, 0x0A	; 10
    29e6:	0e 94 11 2c 	call	0x5822	; 0x5822 <ks0108Puts_P>
    29ea:	64 e3       	ldi	r22, 0x34	; 52
    29ec:	89 e0       	ldi	r24, 0x09	; 9
    29ee:	0e 94 e9 1d 	call	0x3bd2	; 0x3bd2 <_draw_triangle_left>
    29f2:	64 e3       	ldi	r22, 0x34	; 52
    29f4:	86 e3       	ldi	r24, 0x36	; 54
    29f6:	0f 91       	pop	r16
    29f8:	0c 94 1e 1e 	jmp	0x3c3c	; 0x3c3c <_draw_triangle_rigth>

000029fc <_execute>:
    29fc:	bf 92       	push	r11
    29fe:	cf 92       	push	r12
    2a00:	df 92       	push	r13
    2a02:	ef 92       	push	r14
    2a04:	ff 92       	push	r15
    2a06:	0f 93       	push	r16
    2a08:	1f 93       	push	r17
    2a0a:	cf 93       	push	r28
    2a0c:	df 93       	push	r29
    2a0e:	c0 e0       	ldi	r28, 0x00	; 0
    2a10:	d0 e0       	ldi	r29, 0x00	; 0
    2a12:	94 e2       	ldi	r25, 0x24	; 36
    2a14:	b9 2e       	mov	r11, r25
    2a16:	6e 01       	movw	r12, r28
    2a18:	4f ef       	ldi	r20, 0xFF	; 255
    2a1a:	c4 1a       	sub	r12, r20
    2a1c:	d4 0a       	sbc	r13, r20
    2a1e:	86 01       	movw	r16, r12
    2a20:	00 0f       	add	r16, r16
    2a22:	11 1f       	adc	r17, r17
    2a24:	04 56       	subi	r16, 0x64	; 100
    2a26:	1e 4f       	sbci	r17, 0xFE	; 254
    2a28:	f8 01       	movw	r30, r16
    2a2a:	60 81       	ld	r22, Z
    2a2c:	71 81       	ldd	r23, Z+1	; 0x01
    2a2e:	8c 2f       	mov	r24, r28
    2a30:	0e 94 8e 0d 	call	0x1b1c	; 0x1b1c <setting_preupdate_dc>
    2a34:	8c 2f       	mov	r24, r28
    2a36:	0e 94 a7 0d 	call	0x1b4e	; 0x1b4e <updatedc_acctypeofload>
    2a3a:	f8 01       	movw	r30, r16
    2a3c:	20 81       	ld	r18, Z
    2a3e:	31 81       	ldd	r19, Z+1	; 0x01
    2a40:	bc 9e       	mul	r11, r28
    2a42:	c0 01       	movw	r24, r0
    2a44:	bd 9e       	mul	r11, r29
    2a46:	90 0d       	add	r25, r0
    2a48:	11 24       	eor	r1, r1
    2a4a:	ac 01       	movw	r20, r24
    2a4c:	4e 59       	subi	r20, 0x9E	; 158
    2a4e:	55 4f       	sbci	r21, 0xF5	; 245
    2a50:	7a 01       	movw	r14, r20
    2a52:	fa 01       	movw	r30, r20
    2a54:	80 85       	ldd	r24, Z+8	; 0x08
    2a56:	91 85       	ldd	r25, Z+9	; 0x09
    2a58:	28 17       	cp	r18, r24
    2a5a:	39 07       	cpc	r19, r25
    2a5c:	38 f0       	brcs	.+14     	; 0x2a6c <_execute+0x70>
    2a5e:	60 85       	ldd	r22, Z+8	; 0x08
    2a60:	71 85       	ldd	r23, Z+9	; 0x09
    2a62:	4f ef       	ldi	r20, 0xFF	; 255
    2a64:	8c 2f       	mov	r24, r28
    2a66:	0e 94 57 1f 	call	0x3eae	; 0x3eae <direct_fillclear_barlevel>
    2a6a:	18 c0       	rjmp	.+48     	; 0x2a9c <_execute+0xa0>
    2a6c:	80 91 01 01 	lds	r24, 0x0101	; 0x800101 <NUM_ELEM_DENTRO_BAR>
    2a70:	60 91 00 01 	lds	r22, 0x0100	; 0x800100 <__DATA_REGION_ORIGIN__>
    2a74:	86 9f       	mul	r24, r22
    2a76:	b0 01       	movw	r22, r0
    2a78:	11 24       	eor	r1, r1
    2a7a:	40 e0       	ldi	r20, 0x00	; 0
    2a7c:	8c 2f       	mov	r24, r28
    2a7e:	0e 94 57 1f 	call	0x3eae	; 0x3eae <direct_fillclear_barlevel>
    2a82:	f7 01       	movw	r30, r14
    2a84:	60 85       	ldd	r22, Z+8	; 0x08
    2a86:	71 85       	ldd	r23, Z+9	; 0x09
    2a88:	4f ef       	ldi	r20, 0xFF	; 255
    2a8a:	8c 2f       	mov	r24, r28
    2a8c:	0e 94 57 1f 	call	0x3eae	; 0x3eae <direct_fillclear_barlevel>
    2a90:	f8 01       	movw	r30, r16
    2a92:	60 81       	ld	r22, Z
    2a94:	71 81       	ldd	r23, Z+1	; 0x01
    2a96:	8c 2f       	mov	r24, r28
    2a98:	0e 94 f0 1e 	call	0x3de0	; 0x3de0 <preview_dc_barlevel>
    2a9c:	e6 01       	movw	r28, r12
    2a9e:	c6 30       	cpi	r28, 0x06	; 6
    2aa0:	d1 05       	cpc	r29, r1
    2aa2:	09 f0       	breq	.+2      	; 0x2aa6 <_execute+0xaa>
    2aa4:	b8 cf       	rjmp	.-144    	; 0x2a16 <_execute+0x1a>
    2aa6:	df 91       	pop	r29
    2aa8:	cf 91       	pop	r28
    2aaa:	1f 91       	pop	r17
    2aac:	0f 91       	pop	r16
    2aae:	ff 90       	pop	r15
    2ab0:	ef 90       	pop	r14
    2ab2:	df 90       	pop	r13
    2ab4:	cf 90       	pop	r12
    2ab6:	bf 90       	pop	r11
    2ab8:	08 95       	ret

00002aba <init_scene>:
    2aba:	ff 92       	push	r15
    2abc:	0f 93       	push	r16
    2abe:	1f 93       	push	r17
    2ac0:	cf 93       	push	r28
    2ac2:	df 93       	push	r29
    2ac4:	81 e0       	ldi	r24, 0x01	; 1
    2ac6:	91 e0       	ldi	r25, 0x01	; 1
    2ac8:	0e 94 46 11 	call	0x228c	; 0x228c <EEPROM_ReadByte>
    2acc:	80 93 36 08 	sts	0x0836, r24	; 0x800836 <ps_scene>
    2ad0:	80 91 36 08 	lds	r24, 0x0836	; 0x800836 <ps_scene>
    2ad4:	81 11       	cpse	r24, r1
    2ad6:	04 c0       	rjmp	.+8      	; 0x2ae0 <init_scene+0x26>
    2ad8:	8f ef       	ldi	r24, 0xFF	; 255
    2ada:	80 93 28 08 	sts	0x0828, r24	; 0x800828 <currentscene>
    2ade:	2b c0       	rjmp	.+86     	; 0x2b36 <init_scene+0x7c>
    2ae0:	10 92 28 08 	sts	0x0828, r1	; 0x800828 <currentscene>
    2ae4:	c0 e0       	ldi	r28, 0x00	; 0
    2ae6:	d0 e0       	ldi	r29, 0x00	; 0
    2ae8:	5d e0       	ldi	r21, 0x0D	; 13
    2aea:	f5 2e       	mov	r15, r21
    2aec:	20 91 28 08 	lds	r18, 0x0828	; 0x800828 <currentscene>
    2af0:	ce 01       	movw	r24, r28
    2af2:	88 0f       	add	r24, r24
    2af4:	99 1f       	adc	r25, r25
    2af6:	f2 9e       	mul	r15, r18
    2af8:	80 0d       	add	r24, r0
    2afa:	91 1d       	adc	r25, r1
    2afc:	11 24       	eor	r1, r1
    2afe:	8f 5f       	subi	r24, 0xFF	; 255
    2b00:	9d 4f       	sbci	r25, 0xFD	; 253
    2b02:	0e 94 4d 11 	call	0x229a	; 0x229a <EEPROM_ReadWord>
    2b06:	8c 01       	movw	r16, r24
    2b08:	80 91 37 08 	lds	r24, 0x0837	; 0x800837 <ps_fading_inbk>
    2b0c:	8b 7f       	andi	r24, 0xFB	; 251
    2b0e:	80 93 37 08 	sts	0x0837, r24	; 0x800837 <ps_fading_inbk>
    2b12:	b8 01       	movw	r22, r16
    2b14:	8c 2f       	mov	r24, r28
    2b16:	0e 94 8e 0d 	call	0x1b1c	; 0x1b1c <setting_preupdate_dc>
    2b1a:	8c 2f       	mov	r24, r28
    2b1c:	0e 94 a7 0d 	call	0x1b4e	; 0x1b4e <updatedc_acctypeofload>
    2b20:	21 96       	adiw	r28, 0x01	; 1
    2b22:	fe 01       	movw	r30, r28
    2b24:	ee 0f       	add	r30, r30
    2b26:	ff 1f       	adc	r31, r31
    2b28:	e8 5d       	subi	r30, 0xD8	; 216
    2b2a:	f7 4f       	sbci	r31, 0xF7	; 247
    2b2c:	11 83       	std	Z+1, r17	; 0x01
    2b2e:	00 83       	st	Z, r16
    2b30:	c6 30       	cpi	r28, 0x06	; 6
    2b32:	d1 05       	cpc	r29, r1
    2b34:	d9 f6       	brne	.-74     	; 0x2aec <init_scene+0x32>
    2b36:	df 91       	pop	r29
    2b38:	cf 91       	pop	r28
    2b3a:	1f 91       	pop	r17
    2b3c:	0f 91       	pop	r16
    2b3e:	ff 90       	pop	r15
    2b40:	08 95       	ret

00002b42 <get_dcofzone_ofscene_EEP>:
    2b42:	70 e0       	ldi	r23, 0x00	; 0
    2b44:	66 0f       	add	r22, r22
    2b46:	77 1f       	adc	r23, r23
    2b48:	9b 01       	movw	r18, r22
    2b4a:	4d e0       	ldi	r20, 0x0D	; 13
    2b4c:	84 9f       	mul	r24, r20
    2b4e:	20 0d       	add	r18, r0
    2b50:	31 1d       	adc	r19, r1
    2b52:	11 24       	eor	r1, r1
    2b54:	c9 01       	movw	r24, r18
    2b56:	8f 5f       	subi	r24, 0xFF	; 255
    2b58:	9d 4f       	sbci	r25, 0xFD	; 253
    2b5a:	0c 94 4d 11 	jmp	0x229a	; 0x229a <EEPROM_ReadWord>

00002b5e <set_dcofzone_ofscene_EPP>:
    2b5e:	26 2f       	mov	r18, r22
    2b60:	30 e0       	ldi	r19, 0x00	; 0
    2b62:	22 0f       	add	r18, r18
    2b64:	33 1f       	adc	r19, r19
    2b66:	b9 01       	movw	r22, r18
    2b68:	ed e0       	ldi	r30, 0x0D	; 13
    2b6a:	8e 9f       	mul	r24, r30
    2b6c:	60 0d       	add	r22, r0
    2b6e:	71 1d       	adc	r23, r1
    2b70:	11 24       	eor	r1, r1
    2b72:	cb 01       	movw	r24, r22
    2b74:	ba 01       	movw	r22, r20
    2b76:	8f 5f       	subi	r24, 0xFF	; 255
    2b78:	9d 4f       	sbci	r25, 0xFD	; 253
    2b7a:	0c 94 37 11 	jmp	0x226e	; 0x226e <EEPROM_WriteWord>

00002b7e <print_numberofscene>:
    2b7e:	0f 93       	push	r16
    2b80:	1f 93       	push	r17
    2b82:	cf 93       	push	r28
    2b84:	df 93       	push	r29
    2b86:	00 d0       	rcall	.+0      	; 0x2b88 <print_numberofscene+0xa>
    2b88:	1f 92       	push	r1
    2b8a:	cd b7       	in	r28, 0x3d	; 61
    2b8c:	de b7       	in	r29, 0x3e	; 62
    2b8e:	1f 92       	push	r1
    2b90:	8f 93       	push	r24
    2b92:	8b e8       	ldi	r24, 0x8B	; 139
    2b94:	97 e0       	ldi	r25, 0x07	; 7
    2b96:	9f 93       	push	r25
    2b98:	8f 93       	push	r24
    2b9a:	8e 01       	movw	r16, r28
    2b9c:	0f 5f       	subi	r16, 0xFF	; 255
    2b9e:	1f 4f       	sbci	r17, 0xFF	; 255
    2ba0:	1f 93       	push	r17
    2ba2:	0f 93       	push	r16
    2ba4:	0e 94 e5 52 	call	0xa5ca	; 0xa5ca <sprintf>
    2ba8:	c8 01       	movw	r24, r16
    2baa:	0e 94 e9 2b 	call	0x57d2	; 0x57d2 <ks0108Puts>
    2bae:	0f 90       	pop	r0
    2bb0:	0f 90       	pop	r0
    2bb2:	0f 90       	pop	r0
    2bb4:	0f 90       	pop	r0
    2bb6:	0f 90       	pop	r0
    2bb8:	0f 90       	pop	r0
    2bba:	0f 90       	pop	r0
    2bbc:	0f 90       	pop	r0
    2bbe:	0f 90       	pop	r0
    2bc0:	df 91       	pop	r29
    2bc2:	cf 91       	pop	r28
    2bc4:	1f 91       	pop	r17
    2bc6:	0f 91       	pop	r16
    2bc8:	08 95       	ret

00002bca <_preview>:
    2bca:	0f 93       	push	r16
    2bcc:	1f 93       	push	r17
    2bce:	cf 93       	push	r28
    2bd0:	df 93       	push	r29
    2bd2:	80 91 9c 01 	lds	r24, 0x019C	; 0x80019c <previewscene>
    2bd6:	2d e0       	ldi	r18, 0x0D	; 13
    2bd8:	82 02       	muls	r24, r18
    2bda:	c0 01       	movw	r24, r0
    2bdc:	11 24       	eor	r1, r1
    2bde:	80 50       	subi	r24, 0x00	; 0
    2be0:	9e 4f       	sbci	r25, 0xFE	; 254
    2be2:	0e 94 46 11 	call	0x228c	; 0x228c <EEPROM_ReadByte>
    2be6:	80 93 9d 01 	sts	0x019D, r24	; 0x80019d <previewscene+0x1>
    2bea:	c0 e0       	ldi	r28, 0x00	; 0
    2bec:	d0 e0       	ldi	r29, 0x00	; 0
    2bee:	1d e0       	ldi	r17, 0x0D	; 13
    2bf0:	20 91 9c 01 	lds	r18, 0x019C	; 0x80019c <previewscene>
    2bf4:	ce 01       	movw	r24, r28
    2bf6:	88 0f       	add	r24, r24
    2bf8:	99 1f       	adc	r25, r25
    2bfa:	12 9f       	mul	r17, r18
    2bfc:	80 0d       	add	r24, r0
    2bfe:	91 1d       	adc	r25, r1
    2c00:	11 24       	eor	r1, r1
    2c02:	8f 5f       	subi	r24, 0xFF	; 255
    2c04:	9d 4f       	sbci	r25, 0xFD	; 253
    2c06:	0e 94 4d 11 	call	0x229a	; 0x229a <EEPROM_ReadWord>
    2c0a:	21 96       	adiw	r28, 0x01	; 1
    2c0c:	fe 01       	movw	r30, r28
    2c0e:	ee 0f       	add	r30, r30
    2c10:	ff 1f       	adc	r31, r31
    2c12:	e4 56       	subi	r30, 0x64	; 100
    2c14:	fe 4f       	sbci	r31, 0xFE	; 254
    2c16:	91 83       	std	Z+1, r25	; 0x01
    2c18:	80 83       	st	Z, r24
    2c1a:	c6 30       	cpi	r28, 0x06	; 6
    2c1c:	d1 05       	cpc	r29, r1
    2c1e:	41 f7       	brne	.-48     	; 0x2bf0 <_preview+0x26>
    2c20:	4f ef       	ldi	r20, 0xFF	; 255
    2c22:	64 e4       	ldi	r22, 0x44	; 68
    2c24:	75 e2       	ldi	r23, 0x25	; 37
    2c26:	86 e0       	ldi	r24, 0x06	; 6
    2c28:	90 e1       	ldi	r25, 0x10	; 16
    2c2a:	0e 94 47 25 	call	0x4a8e	; 0x4a8e <ks0108SelectFont>
    2c2e:	00 e0       	ldi	r16, 0x00	; 0
    2c30:	2b e0       	ldi	r18, 0x0B	; 11
    2c32:	40 e1       	ldi	r20, 0x10	; 16
    2c34:	63 e1       	ldi	r22, 0x13	; 19
    2c36:	8d e2       	ldi	r24, 0x2D	; 45
    2c38:	0e 94 61 28 	call	0x50c2	; 0x50c2 <ks0108FillRect>
    2c3c:	63 e1       	ldi	r22, 0x13	; 19
    2c3e:	8d e2       	ldi	r24, 0x2D	; 45
    2c40:	0e 94 da 25 	call	0x4bb4	; 0x4bb4 <ks0108GotoXY>
    2c44:	80 91 9c 01 	lds	r24, 0x019C	; 0x80019c <previewscene>
    2c48:	8f 5f       	subi	r24, 0xFF	; 255
    2c4a:	0e 94 bf 15 	call	0x2b7e	; 0x2b7e <print_numberofscene>
    2c4e:	2c e0       	ldi	r18, 0x0C	; 12
    2c50:	4d e3       	ldi	r20, 0x3D	; 61
    2c52:	6e e1       	ldi	r22, 0x1E	; 30
    2c54:	81 e0       	ldi	r24, 0x01	; 1
    2c56:	0e 94 61 28 	call	0x50c2	; 0x50c2 <ks0108FillRect>
    2c5a:	6e e1       	ldi	r22, 0x1E	; 30
    2c5c:	82 e0       	ldi	r24, 0x02	; 2
    2c5e:	0e 94 da 25 	call	0x4bb4	; 0x4bb4 <ks0108GotoXY>
    2c62:	80 91 9d 01 	lds	r24, 0x019D	; 0x80019d <previewscene+0x1>
    2c66:	2b e0       	ldi	r18, 0x0B	; 11
    2c68:	82 9f       	mul	r24, r18
    2c6a:	c0 01       	movw	r24, r0
    2c6c:	11 24       	eor	r1, r1
    2c6e:	87 58       	subi	r24, 0x87	; 135
    2c70:	97 4f       	sbci	r25, 0xF7	; 247
    2c72:	0e 94 11 2c 	call	0x5822	; 0x5822 <ks0108Puts_P>
    2c76:	0e 94 fc 1c 	call	0x39f8	; 0x39f8 <CaptionOfAllZones>
    2c7a:	0e 94 c8 1c 	call	0x3990	; 0x3990 <DrawBarsVertOfAllZones>
    2c7e:	0e 94 a7 1f 	call	0x3f4e	; 0x3f4e <_write_display_threshold_allzone>
    2c82:	c0 e0       	ldi	r28, 0x00	; 0
    2c84:	d0 e0       	ldi	r29, 0x00	; 0
    2c86:	80 91 01 01 	lds	r24, 0x0101	; 0x800101 <NUM_ELEM_DENTRO_BAR>
    2c8a:	60 91 00 01 	lds	r22, 0x0100	; 0x800100 <__DATA_REGION_ORIGIN__>
    2c8e:	86 9f       	mul	r24, r22
    2c90:	b0 01       	movw	r22, r0
    2c92:	11 24       	eor	r1, r1
    2c94:	40 e0       	ldi	r20, 0x00	; 0
    2c96:	8c 2f       	mov	r24, r28
    2c98:	0e 94 57 1f 	call	0x3eae	; 0x3eae <direct_fillclear_barlevel>
    2c9c:	8e 01       	movw	r16, r28
    2c9e:	0f 5f       	subi	r16, 0xFF	; 255
    2ca0:	1f 4f       	sbci	r17, 0xFF	; 255
    2ca2:	f8 01       	movw	r30, r16
    2ca4:	ee 0f       	add	r30, r30
    2ca6:	ff 1f       	adc	r31, r31
    2ca8:	e4 56       	subi	r30, 0x64	; 100
    2caa:	fe 4f       	sbci	r31, 0xFE	; 254
    2cac:	60 81       	ld	r22, Z
    2cae:	71 81       	ldd	r23, Z+1	; 0x01
    2cb0:	8c 2f       	mov	r24, r28
    2cb2:	0e 94 f0 1e 	call	0x3de0	; 0x3de0 <preview_dc_barlevel>
    2cb6:	e8 01       	movw	r28, r16
    2cb8:	06 30       	cpi	r16, 0x06	; 6
    2cba:	11 05       	cpc	r17, r1
    2cbc:	21 f7       	brne	.-56     	; 0x2c86 <_preview+0xbc>
    2cbe:	df 91       	pop	r29
    2cc0:	cf 91       	pop	r28
    2cc2:	1f 91       	pop	r17
    2cc4:	0f 91       	pop	r16
    2cc6:	08 95       	ret

00002cc8 <_print_texts_scene>:
    2cc8:	cf 93       	push	r28
    2cca:	c8 2f       	mov	r28, r24
    2ccc:	4f ef       	ldi	r20, 0xFF	; 255
    2cce:	64 e4       	ldi	r22, 0x44	; 68
    2cd0:	75 e2       	ldi	r23, 0x25	; 37
    2cd2:	86 e0       	ldi	r24, 0x06	; 6
    2cd4:	90 e1       	ldi	r25, 0x10	; 16
    2cd6:	0e 94 47 25 	call	0x4a8e	; 0x4a8e <ks0108SelectFont>
    2cda:	63 e0       	ldi	r22, 0x03	; 3
    2cdc:	83 e0       	ldi	r24, 0x03	; 3
    2cde:	0e 94 da 25 	call	0x4bb4	; 0x4bb4 <ks0108GotoXY>
    2ce2:	81 e5       	ldi	r24, 0x51	; 81
    2ce4:	9a e0       	ldi	r25, 0x0A	; 10
    2ce6:	0e 94 11 2c 	call	0x5822	; 0x5822 <ks0108Puts_P>
    2cea:	cf 3f       	cpi	r28, 0xFF	; 255
    2cec:	49 f4       	brne	.+18     	; 0x2d00 <_print_texts_scene+0x38>
    2cee:	62 e0       	ldi	r22, 0x02	; 2
    2cf0:	8b e2       	ldi	r24, 0x2B	; 43
    2cf2:	0e 94 da 25 	call	0x4bb4	; 0x4bb4 <ks0108GotoXY>
    2cf6:	8f e4       	ldi	r24, 0x4F	; 79
    2cf8:	9a e0       	ldi	r25, 0x0A	; 10
    2cfa:	0e 94 11 2c 	call	0x5822	; 0x5822 <ks0108Puts_P>
    2cfe:	16 c0       	rjmp	.+44     	; 0x2d2c <_print_texts_scene+0x64>
    2d00:	4f ef       	ldi	r20, 0xFF	; 255
    2d02:	64 e4       	ldi	r22, 0x44	; 68
    2d04:	75 e2       	ldi	r23, 0x25	; 37
    2d06:	82 ed       	ldi	r24, 0xD2	; 210
    2d08:	9a e0       	ldi	r25, 0x0A	; 10
    2d0a:	0e 94 47 25 	call	0x4a8e	; 0x4a8e <ks0108SelectFont>
    2d0e:	62 e0       	ldi	r22, 0x02	; 2
    2d10:	8b e2       	ldi	r24, 0x2B	; 43
    2d12:	0e 94 da 25 	call	0x4bb4	; 0x4bb4 <ks0108GotoXY>
    2d16:	81 e0       	ldi	r24, 0x01	; 1
    2d18:	8c 0f       	add	r24, r28
    2d1a:	0e 94 bf 15 	call	0x2b7e	; 0x2b7e <print_numberofscene>
    2d1e:	4f ef       	ldi	r20, 0xFF	; 255
    2d20:	64 e4       	ldi	r22, 0x44	; 68
    2d22:	75 e2       	ldi	r23, 0x25	; 37
    2d24:	86 e0       	ldi	r24, 0x06	; 6
    2d26:	90 e1       	ldi	r25, 0x10	; 16
    2d28:	0e 94 47 25 	call	0x4a8e	; 0x4a8e <ks0108SelectFont>
    2d2c:	2c e0       	ldi	r18, 0x0C	; 12
    2d2e:	4b e3       	ldi	r20, 0x3B	; 59
    2d30:	62 e0       	ldi	r22, 0x02	; 2
    2d32:	82 e0       	ldi	r24, 0x02	; 2
    2d34:	0e 94 57 29 	call	0x52ae	; 0x52ae <ks0108InvertRect>
    2d38:	63 e1       	ldi	r22, 0x13	; 19
    2d3a:	82 e0       	ldi	r24, 0x02	; 2
    2d3c:	0e 94 da 25 	call	0x4bb4	; 0x4bb4 <ks0108GotoXY>
    2d40:	cf 3f       	cpi	r28, 0xFF	; 255
    2d42:	19 f4       	brne	.+6      	; 0x2d4a <_print_texts_scene+0x82>
    2d44:	8a e4       	ldi	r24, 0x4A	; 74
    2d46:	9a e0       	ldi	r25, 0x0A	; 10
    2d48:	0e c0       	rjmp	.+28     	; 0x2d66 <_print_texts_scene+0x9e>
    2d4a:	2d e0       	ldi	r18, 0x0D	; 13
    2d4c:	c2 9f       	mul	r28, r18
    2d4e:	c0 01       	movw	r24, r0
    2d50:	11 24       	eor	r1, r1
    2d52:	80 50       	subi	r24, 0x00	; 0
    2d54:	9e 4f       	sbci	r25, 0xFE	; 254
    2d56:	0e 94 46 11 	call	0x228c	; 0x228c <EEPROM_ReadByte>
    2d5a:	2b e0       	ldi	r18, 0x0B	; 11
    2d5c:	82 9f       	mul	r24, r18
    2d5e:	c0 01       	movw	r24, r0
    2d60:	11 24       	eor	r1, r1
    2d62:	87 58       	subi	r24, 0x87	; 135
    2d64:	97 4f       	sbci	r25, 0xF7	; 247
    2d66:	cf 91       	pop	r28
    2d68:	0c 94 11 2c 	jmp	0x5822	; 0x5822 <ks0108Puts_P>

00002d6c <save_scene_epp>:
    2d6c:	cf 92       	push	r12
    2d6e:	df 92       	push	r13
    2d70:	ef 92       	push	r14
    2d72:	ff 92       	push	r15
    2d74:	0f 93       	push	r16
    2d76:	1f 93       	push	r17
    2d78:	cf 93       	push	r28
    2d7a:	df 93       	push	r29
    2d7c:	d6 2e       	mov	r13, r22
    2d7e:	9d e0       	ldi	r25, 0x0D	; 13
    2d80:	89 9f       	mul	r24, r25
    2d82:	70 01       	movw	r14, r0
    2d84:	11 24       	eor	r1, r1
    2d86:	c0 e0       	ldi	r28, 0x00	; 0
    2d88:	d0 e0       	ldi	r29, 0x00	; 0
    2d8a:	34 e2       	ldi	r19, 0x24	; 36
    2d8c:	c3 2e       	mov	r12, r19
    2d8e:	08 2f       	mov	r16, r24
    2d90:	10 e0       	ldi	r17, 0x00	; 0
    2d92:	8f ef       	ldi	r24, 0xFF	; 255
    2d94:	e8 1a       	sub	r14, r24
    2d96:	f8 0a       	sbc	r15, r24
    2d98:	cc 9e       	mul	r12, r28
    2d9a:	f0 01       	movw	r30, r0
    2d9c:	cd 9e       	mul	r12, r29
    2d9e:	f0 0d       	add	r31, r0
    2da0:	11 24       	eor	r1, r1
    2da2:	ee 59       	subi	r30, 0x9E	; 158
    2da4:	f5 4f       	sbci	r31, 0xF5	; 245
    2da6:	60 85       	ldd	r22, Z+8	; 0x08
    2da8:	71 85       	ldd	r23, Z+9	; 0x09
    2daa:	ce 01       	movw	r24, r28
    2dac:	88 0f       	add	r24, r24
    2dae:	99 1f       	adc	r25, r25
    2db0:	8e 0d       	add	r24, r14
    2db2:	9f 1d       	adc	r25, r15
    2db4:	80 50       	subi	r24, 0x00	; 0
    2db6:	9e 4f       	sbci	r25, 0xFE	; 254
    2db8:	0e 94 37 11 	call	0x226e	; 0x226e <EEPROM_WriteWord>
    2dbc:	21 96       	adiw	r28, 0x01	; 1
    2dbe:	c6 30       	cpi	r28, 0x06	; 6
    2dc0:	d1 05       	cpc	r29, r1
    2dc2:	51 f7       	brne	.-44     	; 0x2d98 <save_scene_epp+0x2c>
    2dc4:	2d e0       	ldi	r18, 0x0D	; 13
    2dc6:	20 9f       	mul	r18, r16
    2dc8:	c0 01       	movw	r24, r0
    2dca:	21 9f       	mul	r18, r17
    2dcc:	90 0d       	add	r25, r0
    2dce:	11 24       	eor	r1, r1
    2dd0:	6d 2d       	mov	r22, r13
    2dd2:	80 50       	subi	r24, 0x00	; 0
    2dd4:	9e 4f       	sbci	r25, 0xFE	; 254
    2dd6:	df 91       	pop	r29
    2dd8:	cf 91       	pop	r28
    2dda:	1f 91       	pop	r17
    2ddc:	0f 91       	pop	r16
    2dde:	ff 90       	pop	r15
    2de0:	ef 90       	pop	r14
    2de2:	df 90       	pop	r13
    2de4:	cf 90       	pop	r12
    2de6:	0c 94 22 11 	jmp	0x2244	; 0x2244 <EEPROM_WriteByte>

00002dea <_all_dcs_taked_as_currentscene>:
    2dea:	cf 93       	push	r28
    2dec:	df 93       	push	r29
    2dee:	c0 e0       	ldi	r28, 0x00	; 0
    2df0:	d0 e0       	ldi	r29, 0x00	; 0
    2df2:	8c 2f       	mov	r24, r28
    2df4:	0e 94 7c 0d 	call	0x1af8	; 0x1af8 <if_fadingactive_nextdc_else_dc>
    2df8:	21 96       	adiw	r28, 0x01	; 1
    2dfa:	fe 01       	movw	r30, r28
    2dfc:	ee 0f       	add	r30, r30
    2dfe:	ff 1f       	adc	r31, r31
    2e00:	e8 5d       	subi	r30, 0xD8	; 216
    2e02:	f7 4f       	sbci	r31, 0xF7	; 247
    2e04:	91 83       	std	Z+1, r25	; 0x01
    2e06:	80 83       	st	Z, r24
    2e08:	c6 30       	cpi	r28, 0x06	; 6
    2e0a:	d1 05       	cpc	r29, r1
    2e0c:	91 f7       	brne	.-28     	; 0x2df2 <_all_dcs_taked_as_currentscene+0x8>
    2e0e:	df 91       	pop	r29
    2e10:	cf 91       	pop	r28
    2e12:	08 95       	ret

00002e14 <_all_dcs_of_currentscene__lessequalthan_threshold>:
    2e14:	80 e0       	ldi	r24, 0x00	; 0
    2e16:	90 e0       	ldi	r25, 0x00	; 0
    2e18:	44 e2       	ldi	r20, 0x24	; 36
    2e1a:	9c 01       	movw	r18, r24
    2e1c:	2f 5f       	subi	r18, 0xFF	; 255
    2e1e:	3f 4f       	sbci	r19, 0xFF	; 255
    2e20:	f9 01       	movw	r30, r18
    2e22:	ee 0f       	add	r30, r30
    2e24:	ff 1f       	adc	r31, r31
    2e26:	e8 5d       	subi	r30, 0xD8	; 216
    2e28:	f7 4f       	sbci	r31, 0xF7	; 247
    2e2a:	60 81       	ld	r22, Z
    2e2c:	71 81       	ldd	r23, Z+1	; 0x01
    2e2e:	48 9f       	mul	r20, r24
    2e30:	f0 01       	movw	r30, r0
    2e32:	49 9f       	mul	r20, r25
    2e34:	f0 0d       	add	r31, r0
    2e36:	11 24       	eor	r1, r1
    2e38:	ee 59       	subi	r30, 0x9E	; 158
    2e3a:	f5 4f       	sbci	r31, 0xF5	; 245
    2e3c:	85 8d       	ldd	r24, Z+29	; 0x1d
    2e3e:	96 8d       	ldd	r25, Z+30	; 0x1e
    2e40:	86 17       	cp	r24, r22
    2e42:	97 07       	cpc	r25, r23
    2e44:	30 f0       	brcs	.+12     	; 0x2e52 <_all_dcs_of_currentscene__lessequalthan_threshold+0x3e>
    2e46:	c9 01       	movw	r24, r18
    2e48:	26 30       	cpi	r18, 0x06	; 6
    2e4a:	31 05       	cpc	r19, r1
    2e4c:	31 f7       	brne	.-52     	; 0x2e1a <_all_dcs_of_currentscene__lessequalthan_threshold+0x6>
    2e4e:	81 e0       	ldi	r24, 0x01	; 1
    2e50:	08 95       	ret
    2e52:	80 e0       	ldi	r24, 0x00	; 0
    2e54:	08 95       	ret

00002e56 <_all_dcs_of_currentscene__areequalthan_current_dcs>:
    2e56:	0f 93       	push	r16
    2e58:	1f 93       	push	r17
    2e5a:	cf 93       	push	r28
    2e5c:	df 93       	push	r29
    2e5e:	80 e0       	ldi	r24, 0x00	; 0
    2e60:	90 e0       	ldi	r25, 0x00	; 0
    2e62:	ec 01       	movw	r28, r24
    2e64:	21 96       	adiw	r28, 0x01	; 1
    2e66:	fe 01       	movw	r30, r28
    2e68:	ee 0f       	add	r30, r30
    2e6a:	ff 1f       	adc	r31, r31
    2e6c:	e8 5d       	subi	r30, 0xD8	; 216
    2e6e:	f7 4f       	sbci	r31, 0xF7	; 247
    2e70:	00 81       	ld	r16, Z
    2e72:	11 81       	ldd	r17, Z+1	; 0x01
    2e74:	0e 94 7c 0d 	call	0x1af8	; 0x1af8 <if_fadingactive_nextdc_else_dc>
    2e78:	08 17       	cp	r16, r24
    2e7a:	19 07       	cpc	r17, r25
    2e7c:	29 f4       	brne	.+10     	; 0x2e88 <_all_dcs_of_currentscene__areequalthan_current_dcs+0x32>
    2e7e:	ce 01       	movw	r24, r28
    2e80:	26 97       	sbiw	r28, 0x06	; 6
    2e82:	79 f7       	brne	.-34     	; 0x2e62 <_all_dcs_of_currentscene__areequalthan_current_dcs+0xc>
    2e84:	81 e0       	ldi	r24, 0x01	; 1
    2e86:	01 c0       	rjmp	.+2      	; 0x2e8a <_all_dcs_of_currentscene__areequalthan_current_dcs+0x34>
    2e88:	80 e0       	ldi	r24, 0x00	; 0
    2e8a:	df 91       	pop	r29
    2e8c:	cf 91       	pop	r28
    2e8e:	1f 91       	pop	r17
    2e90:	0f 91       	pop	r16
    2e92:	08 95       	ret

00002e94 <_all_dcs_of_objzone__equalthan_100porcent>:
    2e94:	cf 93       	push	r28
    2e96:	c0 e0       	ldi	r28, 0x00	; 0
    2e98:	8c 2f       	mov	r24, r28
    2e9a:	0e 94 7c 0d 	call	0x1af8	; 0x1af8 <if_fadingactive_nextdc_else_dc>
    2e9e:	20 91 01 01 	lds	r18, 0x0101	; 0x800101 <NUM_ELEM_DENTRO_BAR>
    2ea2:	30 91 00 01 	lds	r19, 0x0100	; 0x800100 <__DATA_REGION_ORIGIN__>
    2ea6:	23 9f       	mul	r18, r19
    2ea8:	90 01       	movw	r18, r0
    2eaa:	11 24       	eor	r1, r1
    2eac:	82 17       	cp	r24, r18
    2eae:	93 07       	cpc	r25, r19
    2eb0:	28 f0       	brcs	.+10     	; 0x2ebc <_all_dcs_of_objzone__equalthan_100porcent+0x28>
    2eb2:	cf 5f       	subi	r28, 0xFF	; 255
    2eb4:	c6 30       	cpi	r28, 0x06	; 6
    2eb6:	81 f7       	brne	.-32     	; 0x2e98 <_all_dcs_of_objzone__equalthan_100porcent+0x4>
    2eb8:	81 e0       	ldi	r24, 0x01	; 1
    2eba:	01 c0       	rjmp	.+2      	; 0x2ebe <_all_dcs_of_objzone__equalthan_100porcent+0x2a>
    2ebc:	80 e0       	ldi	r24, 0x00	; 0
    2ebe:	cf 91       	pop	r28
    2ec0:	08 95       	ret

00002ec2 <key4_1fmode2>:
    2ec2:	60 e0       	ldi	r22, 0x00	; 0
    2ec4:	80 e0       	ldi	r24, 0x00	; 0
    2ec6:	0e 94 a1 3f 	call	0x7f42	; 0x7f42 <playsound>
    2eca:	e2 e9       	ldi	r30, 0x92	; 146
    2ecc:	f7 e0       	ldi	r31, 0x07	; 7
    2ece:	83 e0       	ldi	r24, 0x03	; 3
    2ed0:	82 83       	std	Z+2, r24	; 0x02
    2ed2:	13 82       	std	Z+3, r1	; 0x03
    2ed4:	81 e0       	ldi	r24, 0x01	; 1
    2ed6:	81 83       	std	Z+1, r24	; 0x01
    2ed8:	61 e0       	ldi	r22, 0x01	; 1
    2eda:	80 eb       	ldi	r24, 0xB0	; 176
    2edc:	91 e0       	ldi	r25, 0x01	; 1
    2ede:	0c 94 b8 24 	jmp	0x4970	; 0x4970 <change_operating_mode>

00002ee2 <key3_1fmode2>:
    2ee2:	cf 93       	push	r28
    2ee4:	df 93       	push	r29
    2ee6:	c2 e9       	ldi	r28, 0x92	; 146
    2ee8:	d7 e0       	ldi	r29, 0x07	; 7
    2eea:	81 e0       	ldi	r24, 0x01	; 1
    2eec:	89 83       	std	Y+1, r24	; 0x01
    2eee:	61 e0       	ldi	r22, 0x01	; 1
    2ef0:	80 eb       	ldi	r24, 0xB0	; 176
    2ef2:	91 e0       	ldi	r25, 0x01	; 1
    2ef4:	0e 94 b8 24 	call	0x4970	; 0x4970 <change_operating_mode>
    2ef8:	60 e0       	ldi	r22, 0x00	; 0
    2efa:	80 e0       	ldi	r24, 0x00	; 0
    2efc:	0e 94 a1 3f 	call	0x7f42	; 0x7f42 <playsound>
    2f00:	84 e0       	ldi	r24, 0x04	; 4
    2f02:	8a 83       	std	Y+2, r24	; 0x02
    2f04:	1b 82       	std	Y+3, r1	; 0x03
    2f06:	df 91       	pop	r29
    2f08:	cf 91       	pop	r28
    2f0a:	08 95       	ret

00002f0c <key3_1fmode2_aft>:
    2f0c:	0c 94 71 17 	jmp	0x2ee2	; 0x2ee2 <key3_1fmode2>

00002f10 <key4_1fmode1>:
    2f10:	60 e0       	ldi	r22, 0x00	; 0
    2f12:	80 e0       	ldi	r24, 0x00	; 0
    2f14:	0e 94 a1 3f 	call	0x7f42	; 0x7f42 <playsound>
    2f18:	e0 91 73 06 	lds	r30, 0x0673	; 0x800673 <dialogbox_nb+0xc>
    2f1c:	f0 91 74 06 	lds	r31, 0x0674	; 0x800674 <dialogbox_nb+0xd>
    2f20:	09 94       	ijmp

00002f22 <key2_1fmode1>:
    2f22:	e0 91 6f 06 	lds	r30, 0x066F	; 0x80066f <dialogbox_nb+0x8>
    2f26:	f0 91 70 06 	lds	r31, 0x0670	; 0x800670 <dialogbox_nb+0x9>
    2f2a:	09 95       	icall
    2f2c:	60 e0       	ldi	r22, 0x00	; 0
    2f2e:	80 e0       	ldi	r24, 0x00	; 0
    2f30:	0c 94 a1 3f 	jmp	0x7f42	; 0x7f42 <playsound>

00002f34 <key1_1fmode1>:
    2f34:	e0 91 6d 06 	lds	r30, 0x066D	; 0x80066d <dialogbox_nb+0x6>
    2f38:	f0 91 6e 06 	lds	r31, 0x066E	; 0x80066e <dialogbox_nb+0x7>
    2f3c:	09 95       	icall
    2f3e:	60 e0       	ldi	r22, 0x00	; 0
    2f40:	80 e0       	ldi	r24, 0x00	; 0
    2f42:	0c 94 a1 3f 	jmp	0x7f42	; 0x7f42 <playsound>

00002f46 <key3_1fmode0_aft>:
    2f46:	80 91 92 07 	lds	r24, 0x0792	; 0x800792 <thisps>
    2f4a:	94 e2       	ldi	r25, 0x24	; 36
    2f4c:	89 02       	muls	r24, r25
    2f4e:	90 01       	movw	r18, r0
    2f50:	11 24       	eor	r1, r1
    2f52:	f9 01       	movw	r30, r18
    2f54:	e5 58       	subi	r30, 0x85	; 133
    2f56:	f5 4f       	sbci	r31, 0xF5	; 245
    2f58:	90 81       	ld	r25, Z
    2f5a:	91 60       	ori	r25, 0x01	; 1
    2f5c:	90 83       	st	Z, r25
    2f5e:	f9 01       	movw	r30, r18
    2f60:	ee 59       	subi	r30, 0x9E	; 158
    2f62:	f5 4f       	sbci	r31, 0xF5	; 245
    2f64:	90 a1       	ldd	r25, Z+32	; 0x20
    2f66:	91 11       	cpse	r25, r1
    2f68:	02 c0       	rjmp	.+4      	; 0x2f6e <key3_1fmode0_aft+0x28>
    2f6a:	0c 94 a3 0f 	jmp	0x1f46	; 0x1f46 <directOnOff_mode1>
    2f6e:	0c 94 7a 10 	jmp	0x20f4	; 0x20f4 <directOnOff_mode2>

00002f72 <key2_1fmode2>:
    2f72:	61 e0       	ldi	r22, 0x01	; 1
    2f74:	82 e0       	ldi	r24, 0x02	; 2
    2f76:	9a e0       	ldi	r25, 0x0A	; 10
    2f78:	0e 94 d8 3e 	call	0x7db0	; 0x7db0 <ListBox_Ex>
    2f7c:	60 e0       	ldi	r22, 0x00	; 0
    2f7e:	80 e0       	ldi	r24, 0x00	; 0
    2f80:	0c 94 a1 3f 	jmp	0x7f42	; 0x7f42 <playsound>

00002f84 <key1_1fmode2>:
    2f84:	60 e0       	ldi	r22, 0x00	; 0
    2f86:	82 e0       	ldi	r24, 0x02	; 2
    2f88:	9a e0       	ldi	r25, 0x0A	; 10
    2f8a:	0e 94 d8 3e 	call	0x7db0	; 0x7db0 <ListBox_Ex>
    2f8e:	60 e0       	ldi	r22, 0x00	; 0
    2f90:	80 e0       	ldi	r24, 0x00	; 0
    2f92:	0c 94 a1 3f 	jmp	0x7f42	; 0x7f42 <playsound>

00002f96 <key3_1fmode0>:
    2f96:	80 91 92 07 	lds	r24, 0x0792	; 0x800792 <thisps>
    2f9a:	94 e2       	ldi	r25, 0x24	; 36
    2f9c:	89 02       	muls	r24, r25
    2f9e:	90 01       	movw	r18, r0
    2fa0:	11 24       	eor	r1, r1
    2fa2:	f9 01       	movw	r30, r18
    2fa4:	e5 58       	subi	r30, 0x85	; 133
    2fa6:	f5 4f       	sbci	r31, 0xF5	; 245
    2fa8:	90 81       	ld	r25, Z
    2faa:	91 60       	ori	r25, 0x01	; 1
    2fac:	90 83       	st	Z, r25
    2fae:	f9 01       	movw	r30, r18
    2fb0:	ee 59       	subi	r30, 0x9E	; 158
    2fb2:	f5 4f       	sbci	r31, 0xF5	; 245
    2fb4:	90 a1       	ldd	r25, Z+32	; 0x20
    2fb6:	91 11       	cpse	r25, r1
    2fb8:	02 c0       	rjmp	.+4      	; 0x2fbe <key3_1fmode0+0x28>
    2fba:	0c 94 c7 0e 	jmp	0x1d8e	; 0x1d8e <RestoreOnOff_mode1>
    2fbe:	0c 94 24 10 	jmp	0x2048	; 0x2048 <RestoreOnOff_mode2>

00002fc2 <key2_1fmode0>:
    2fc2:	80 91 92 07 	lds	r24, 0x0792	; 0x800792 <thisps>
    2fc6:	94 e2       	ldi	r25, 0x24	; 36
    2fc8:	89 02       	muls	r24, r25
    2fca:	f0 01       	movw	r30, r0
    2fcc:	11 24       	eor	r1, r1
    2fce:	e5 58       	subi	r30, 0x85	; 133
    2fd0:	f5 4f       	sbci	r31, 0xF5	; 245
    2fd2:	90 81       	ld	r25, Z
    2fd4:	91 60       	ori	r25, 0x01	; 1
    2fd6:	90 83       	st	Z, r25
    2fd8:	0c 94 67 0e 	jmp	0x1cce	; 0x1cce <_PreEx_DimmingDown>

00002fdc <key1_1fmode0>:
    2fdc:	80 91 92 07 	lds	r24, 0x0792	; 0x800792 <thisps>
    2fe0:	94 e2       	ldi	r25, 0x24	; 36
    2fe2:	89 02       	muls	r24, r25
    2fe4:	f0 01       	movw	r30, r0
    2fe6:	11 24       	eor	r1, r1
    2fe8:	e5 58       	subi	r30, 0x85	; 133
    2fea:	f5 4f       	sbci	r31, 0xF5	; 245
    2fec:	90 81       	ld	r25, Z
    2fee:	91 60       	ori	r25, 0x01	; 1
    2ff0:	90 83       	st	Z, r25
    2ff2:	0c 94 2c 0e 	jmp	0x1c58	; 0x1c58 <_PreEx_DimmingUp>

00002ff6 <showpropzone>:
    2ff6:	0f 93       	push	r16
    2ff8:	cf 93       	push	r28
    2ffa:	c8 2f       	mov	r28, r24
    2ffc:	84 e0       	ldi	r24, 0x04	; 4
    2ffe:	c8 9f       	mul	r28, r24
    3000:	f0 01       	movw	r30, r0
    3002:	11 24       	eor	r1, r1
    3004:	ed 5e       	subi	r30, 0xED	; 237
    3006:	f7 4f       	sbci	r31, 0xF7	; 247
    3008:	80 81       	ld	r24, Z
    300a:	81 60       	ori	r24, 0x01	; 1
    300c:	80 83       	st	Z, r24
    300e:	4f ef       	ldi	r20, 0xFF	; 255
    3010:	64 e4       	ldi	r22, 0x44	; 68
    3012:	75 e2       	ldi	r23, 0x25	; 37
    3014:	86 e0       	ldi	r24, 0x06	; 6
    3016:	90 e1       	ldi	r25, 0x10	; 16
    3018:	0e 94 47 25 	call	0x4a8e	; 0x4a8e <ks0108SelectFont>
    301c:	60 e0       	ldi	r22, 0x00	; 0
    301e:	8c 2f       	mov	r24, r28
    3020:	0e 94 95 4a 	call	0x952a	; 0x952a <FindAndPrintNameOfZone>
    3024:	0f ef       	ldi	r16, 0xFF	; 255
    3026:	20 e0       	ldi	r18, 0x00	; 0
    3028:	4d e3       	ldi	r20, 0x3D	; 61
    302a:	6e e2       	ldi	r22, 0x2E	; 46
    302c:	81 e0       	ldi	r24, 0x01	; 1
    302e:	0e 94 61 28 	call	0x50c2	; 0x50c2 <ks0108FillRect>
    3032:	8c 2f       	mov	r24, r28
    3034:	0e 94 7c 0d 	call	0x1af8	; 0x1af8 <if_fadingactive_nextdc_else_dc>
    3038:	cf 91       	pop	r28
    303a:	0f 91       	pop	r16
    303c:	0c 94 c0 0d 	jmp	0x1b80	; 0x1b80 <dcporcentz>

00003040 <return_to_mode0>:
    3040:	cf 93       	push	r28
    3042:	df 93       	push	r29
    3044:	4f e1       	ldi	r20, 0x1F	; 31
    3046:	6f e1       	ldi	r22, 0x1F	; 31
    3048:	8f e1       	ldi	r24, 0x1F	; 31
    304a:	0e 94 02 1c 	call	0x3804	; 0x3804 <ClearFromCenter_GrowingSymmetric>
    304e:	c2 e9       	ldi	r28, 0x92	; 146
    3050:	d7 e0       	ldi	r29, 0x07	; 7
    3052:	88 81       	ld	r24, Y
    3054:	0e 94 fb 17 	call	0x2ff6	; 0x2ff6 <showpropzone>
    3058:	19 82       	std	Y+1, r1	; 0x01
    305a:	60 e0       	ldi	r22, 0x00	; 0
    305c:	80 eb       	ldi	r24, 0xB0	; 176
    305e:	91 e0       	ldi	r25, 0x01	; 1
    3060:	0e 94 b8 24 	call	0x4970	; 0x4970 <change_operating_mode>
    3064:	8f ef       	ldi	r24, 0xFF	; 255
    3066:	8a 83       	std	Y+2, r24	; 0x02
    3068:	1b 82       	std	Y+3, r1	; 0x03
    306a:	df 91       	pop	r29
    306c:	cf 91       	pop	r28
    306e:	08 95       	ret

00003070 <listbox_name_scene>:
    3070:	0f 93       	push	r16
    3072:	00 e0       	ldi	r16, 0x00	; 0
    3074:	2d e3       	ldi	r18, 0x3D	; 61
    3076:	4d e3       	ldi	r20, 0x3D	; 61
    3078:	61 e0       	ldi	r22, 0x01	; 1
    307a:	81 e0       	ldi	r24, 0x01	; 1
    307c:	0e 94 61 28 	call	0x50c2	; 0x50c2 <ks0108FillRect>
    3080:	82 e0       	ldi	r24, 0x02	; 2
    3082:	9a e0       	ldi	r25, 0x0A	; 10
    3084:	0e 94 66 3e 	call	0x7ccc	; 0x7ccc <ListBox_create_box>
    3088:	82 e0       	ldi	r24, 0x02	; 2
    308a:	9a e0       	ldi	r25, 0x0A	; 10
    308c:	0e 94 8a 3e 	call	0x7d14	; 0x7d14 <ClearInnerRegionListBox>
    3090:	82 e0       	ldi	r24, 0x02	; 2
    3092:	9a e0       	ldi	r25, 0x0A	; 10
    3094:	0f 91       	pop	r16
    3096:	0c 94 ce 3e 	jmp	0x7d9c	; 0x7d9c <fill_listbox>

0000309a <key3_1fmode1>:
    309a:	e0 91 71 06 	lds	r30, 0x0671	; 0x800671 <dialogbox_nb+0xa>
    309e:	f0 91 72 06 	lds	r31, 0x0672	; 0x800672 <dialogbox_nb+0xb>
    30a2:	09 95       	icall
    30a4:	80 91 69 06 	lds	r24, 0x0669	; 0x800669 <dialogbox_nb+0x2>
    30a8:	81 11       	cpse	r24, r1
    30aa:	02 c0       	rjmp	.+4      	; 0x30b0 <key3_1fmode1+0x16>
    30ac:	61 e0       	ldi	r22, 0x01	; 1
    30ae:	06 c0       	rjmp	.+12     	; 0x30bc <key3_1fmode1+0x22>
    30b0:	80 91 69 06 	lds	r24, 0x0669	; 0x800669 <dialogbox_nb+0x2>
    30b4:	81 30       	cpi	r24, 0x01	; 1
    30b6:	21 f4       	brne	.+8      	; 0x30c0 <key3_1fmode1+0x26>
    30b8:	60 e0       	ldi	r22, 0x00	; 0
    30ba:	80 e0       	ldi	r24, 0x00	; 0
    30bc:	0c 94 a1 3f 	jmp	0x7f42	; 0x7f42 <playsound>
    30c0:	08 95       	ret

000030c2 <key3_1fmode1_aft>:
    30c2:	0c 94 4d 18 	jmp	0x309a	; 0x309a <key3_1fmode1>

000030c6 <selectzone>:
    30c6:	0f 93       	push	r16
    30c8:	cf 93       	push	r28
    30ca:	90 91 92 07 	lds	r25, 0x0792	; 0x800792 <thisps>
    30ce:	89 0f       	add	r24, r25
    30d0:	80 93 92 07 	sts	0x0792, r24	; 0x800792 <thisps>
    30d4:	87 ff       	sbrs	r24, 7
    30d6:	07 c0       	rjmp	.+14     	; 0x30e6 <selectzone+0x20>
    30d8:	80 e0       	ldi	r24, 0x00	; 0
    30da:	0e 94 f6 11 	call	0x23ec	; 0x23ec <blink_captionof_barzone_STOP>
    30de:	85 e0       	ldi	r24, 0x05	; 5
    30e0:	80 93 92 07 	sts	0x0792, r24	; 0x800792 <thisps>
    30e4:	18 c0       	rjmp	.+48     	; 0x3116 <selectzone+0x50>
    30e6:	86 30       	cpi	r24, 0x06	; 6
    30e8:	34 f0       	brlt	.+12     	; 0x30f6 <selectzone+0x30>
    30ea:	85 e0       	ldi	r24, 0x05	; 5
    30ec:	0e 94 f6 11 	call	0x23ec	; 0x23ec <blink_captionof_barzone_STOP>
    30f0:	10 92 92 07 	sts	0x0792, r1	; 0x800792 <thisps>
    30f4:	10 c0       	rjmp	.+32     	; 0x3116 <selectzone+0x50>
    30f6:	89 2f       	mov	r24, r25
    30f8:	0e 94 f6 11 	call	0x23ec	; 0x23ec <blink_captionof_barzone_STOP>
    30fc:	00 e0       	ldi	r16, 0x00	; 0
    30fe:	2d e3       	ldi	r18, 0x3D	; 61
    3100:	4d e3       	ldi	r20, 0x3D	; 61
    3102:	61 e0       	ldi	r22, 0x01	; 1
    3104:	81 e0       	ldi	r24, 0x01	; 1
    3106:	0e 94 61 28 	call	0x50c2	; 0x50c2 <ks0108FillRect>
    310a:	80 91 92 07 	lds	r24, 0x0792	; 0x800792 <thisps>
    310e:	cf 91       	pop	r28
    3110:	0f 91       	pop	r16
    3112:	0c 94 fb 17 	jmp	0x2ff6	; 0x2ff6 <showpropzone>
    3116:	c1 e0       	ldi	r28, 0x01	; 1
    3118:	c0 93 93 07 	sts	0x0793, r28	; 0x800793 <thisps+0x1>
    311c:	61 e0       	ldi	r22, 0x01	; 1
    311e:	80 eb       	ldi	r24, 0xB0	; 176
    3120:	91 e0       	ldi	r25, 0x01	; 1
    3122:	0e 94 b8 24 	call	0x4970	; 0x4970 <change_operating_mode>
    3126:	c0 93 94 07 	sts	0x0794, r28	; 0x800794 <thisps+0x2>
    312a:	10 92 95 07 	sts	0x0795, r1	; 0x800795 <thisps+0x3>
    312e:	83 e0       	ldi	r24, 0x03	; 3
    3130:	80 93 69 08 	sts	0x0869, r24	; 0x800869 <kbhandler_app>
    3134:	cf 91       	pop	r28
    3136:	0f 91       	pop	r16
    3138:	08 95       	ret

0000313a <key1_2fmode0>:
    313a:	60 e0       	ldi	r22, 0x00	; 0
    313c:	80 e0       	ldi	r24, 0x00	; 0
    313e:	0e 94 a1 3f 	call	0x7f42	; 0x7f42 <playsound>
    3142:	8f ef       	ldi	r24, 0xFF	; 255
    3144:	0c 94 63 18 	jmp	0x30c6	; 0x30c6 <selectzone>

00003148 <key4_1fmode0>:
    3148:	60 e0       	ldi	r22, 0x00	; 0
    314a:	80 e0       	ldi	r24, 0x00	; 0
    314c:	0e 94 a1 3f 	call	0x7f42	; 0x7f42 <playsound>
    3150:	81 e0       	ldi	r24, 0x01	; 1
    3152:	0c 94 63 18 	jmp	0x30c6	; 0x30c6 <selectzone>

00003156 <key3_2fmode0>:
    3156:	cf 93       	push	r28
    3158:	df 93       	push	r29
    315a:	c2 e9       	ldi	r28, 0x92	; 146
    315c:	d7 e0       	ldi	r29, 0x07	; 7
    315e:	88 81       	ld	r24, Y
    3160:	0e 94 f6 11 	call	0x23ec	; 0x23ec <blink_captionof_barzone_STOP>
    3164:	82 e0       	ldi	r24, 0x02	; 2
    3166:	80 93 10 0a 	sts	0x0A10, r24	; 0x800a10 <shell>
    316a:	1a 82       	std	Y+2, r1	; 0x02
    316c:	1b 82       	std	Y+3, r1	; 0x03
    316e:	83 e0       	ldi	r24, 0x03	; 3
    3170:	80 93 69 08 	sts	0x0869, r24	; 0x800869 <kbhandler_app>
    3174:	61 e0       	ldi	r22, 0x01	; 1
    3176:	80 e0       	ldi	r24, 0x00	; 0
    3178:	df 91       	pop	r29
    317a:	cf 91       	pop	r28
    317c:	0c 94 a1 3f 	jmp	0x7f42	; 0x7f42 <playsound>

00003180 <scene_add_handler>:
    3180:	cf 92       	push	r12
    3182:	ef 92       	push	r14
    3184:	ff 92       	push	r15
    3186:	0f 93       	push	r16
    3188:	1f 93       	push	r17
    318a:	cf 93       	push	r28
    318c:	df 93       	push	r29
    318e:	80 91 94 07 	lds	r24, 0x0794	; 0x800794 <thisps+0x2>
    3192:	81 11       	cpse	r24, r1
    3194:	61 c0       	rjmp	.+194    	; 0x3258 <scene_add_handler+0xd8>
    3196:	80 91 95 07 	lds	r24, 0x0795	; 0x800795 <thisps+0x3>
    319a:	81 11       	cpse	r24, r1
    319c:	58 c0       	rjmp	.+176    	; 0x324e <scene_add_handler+0xce>
    319e:	81 e0       	ldi	r24, 0x01	; 1
    31a0:	80 93 95 07 	sts	0x0795, r24	; 0x800795 <thisps+0x3>
    31a4:	80 91 37 08 	lds	r24, 0x0837	; 0x800837 <ps_fading_inbk>
    31a8:	84 60       	ori	r24, 0x04	; 4
    31aa:	80 93 37 08 	sts	0x0837, r24	; 0x800837 <ps_fading_inbk>
    31ae:	00 e0       	ldi	r16, 0x00	; 0
    31b0:	2f e3       	ldi	r18, 0x3F	; 63
    31b2:	4f eb       	ldi	r20, 0xBF	; 191
    31b4:	60 e0       	ldi	r22, 0x00	; 0
    31b6:	80 e0       	ldi	r24, 0x00	; 0
    31b8:	0e 94 61 28 	call	0x50c2	; 0x50c2 <ks0108FillRect>
    31bc:	0f ef       	ldi	r16, 0xFF	; 255
    31be:	2f e3       	ldi	r18, 0x3F	; 63
    31c0:	4f e3       	ldi	r20, 0x3F	; 63
    31c2:	60 e0       	ldi	r22, 0x00	; 0
    31c4:	80 e0       	ldi	r24, 0x00	; 0
    31c6:	0e 94 f4 28 	call	0x51e8	; 0x51e8 <ks0108DrawRect>
    31ca:	2f e3       	ldi	r18, 0x3F	; 63
    31cc:	4e e7       	ldi	r20, 0x7E	; 126
    31ce:	60 e0       	ldi	r22, 0x00	; 0
    31d0:	81 e4       	ldi	r24, 0x41	; 65
    31d2:	0e 94 f4 28 	call	0x51e8	; 0x51e8 <ks0108DrawRect>
    31d6:	0e 94 a7 1f 	call	0x3f4e	; 0x3f4e <_write_display_threshold_allzone>
    31da:	0e 94 fc 1c 	call	0x39f8	; 0x39f8 <CaptionOfAllZones>
    31de:	0e 94 c8 1c 	call	0x3990	; 0x3990 <DrawBarsVertOfAllZones>
    31e2:	c0 e0       	ldi	r28, 0x00	; 0
    31e4:	d0 e0       	ldi	r29, 0x00	; 0
    31e6:	14 e2       	ldi	r17, 0x24	; 36
    31e8:	1c 9f       	mul	r17, r28
    31ea:	f0 01       	movw	r30, r0
    31ec:	1d 9f       	mul	r17, r29
    31ee:	f0 0d       	add	r31, r0
    31f0:	11 24       	eor	r1, r1
    31f2:	ee 59       	subi	r30, 0x9E	; 158
    31f4:	f5 4f       	sbci	r31, 0xF5	; 245
    31f6:	60 85       	ldd	r22, Z+8	; 0x08
    31f8:	71 85       	ldd	r23, Z+9	; 0x09
    31fa:	4f ef       	ldi	r20, 0xFF	; 255
    31fc:	8c 2f       	mov	r24, r28
    31fe:	0e 94 57 1f 	call	0x3eae	; 0x3eae <direct_fillclear_barlevel>
    3202:	21 96       	adiw	r28, 0x01	; 1
    3204:	c6 30       	cpi	r28, 0x06	; 6
    3206:	d1 05       	cpc	r29, r1
    3208:	79 f7       	brne	.-34     	; 0x31e8 <scene_add_handler+0x68>
    320a:	10 92 92 07 	sts	0x0792, r1	; 0x800792 <thisps>
    320e:	80 e0       	ldi	r24, 0x00	; 0
    3210:	0e 94 fb 17 	call	0x2ff6	; 0x2ff6 <showpropzone>
    3214:	8d e0       	ldi	r24, 0x0D	; 13
    3216:	c8 2e       	mov	r12, r24
    3218:	96 e0       	ldi	r25, 0x06	; 6
    321a:	e9 2e       	mov	r14, r25
    321c:	90 e1       	ldi	r25, 0x10	; 16
    321e:	f9 2e       	mov	r15, r25
    3220:	0f e3       	ldi	r16, 0x3F	; 63
    3222:	2f e3       	ldi	r18, 0x3F	; 63
    3224:	40 e0       	ldi	r20, 0x00	; 0
    3226:	60 e0       	ldi	r22, 0x00	; 0
    3228:	82 e0       	ldi	r24, 0x02	; 2
    322a:	9a e0       	ldi	r25, 0x0A	; 10
    322c:	0e 94 50 3e 	call	0x7ca0	; 0x7ca0 <ListBox_init_dimension>
    3230:	25 e2       	ldi	r18, 0x25	; 37
    3232:	4b e0       	ldi	r20, 0x0B	; 11
    3234:	69 e7       	ldi	r22, 0x79	; 121
    3236:	78 e0       	ldi	r23, 0x08	; 8
    3238:	82 e0       	ldi	r24, 0x02	; 2
    323a:	9a e0       	ldi	r25, 0x0A	; 10
    323c:	0e 94 71 3e 	call	0x7ce2	; 0x7ce2 <ListBox_LoadnewDB>
    3240:	10 92 93 07 	sts	0x0793, r1	; 0x800793 <thisps+0x1>
    3244:	60 e0       	ldi	r22, 0x00	; 0
    3246:	80 eb       	ldi	r24, 0xB0	; 176
    3248:	91 e0       	ldi	r25, 0x01	; 1
    324a:	0e 94 b8 24 	call	0x4970	; 0x4970 <change_operating_mode>
    324e:	8f ef       	ldi	r24, 0xFF	; 255
    3250:	80 93 94 07 	sts	0x0794, r24	; 0x800794 <thisps+0x2>
    3254:	10 92 95 07 	sts	0x0795, r1	; 0x800795 <thisps+0x3>
    3258:	80 91 94 07 	lds	r24, 0x0794	; 0x800794 <thisps+0x2>
    325c:	81 30       	cpi	r24, 0x01	; 1
    325e:	09 f0       	breq	.+2      	; 0x3262 <scene_add_handler+0xe2>
    3260:	4c c0       	rjmp	.+152    	; 0x32fa <scene_add_handler+0x17a>
    3262:	90 91 95 07 	lds	r25, 0x0795	; 0x800795 <thisps+0x3>
    3266:	91 11       	cpse	r25, r1
    3268:	1c c0       	rjmp	.+56     	; 0x32a2 <scene_add_handler+0x122>
    326a:	80 93 95 07 	sts	0x0795, r24	; 0x800795 <thisps+0x3>
    326e:	4f e1       	ldi	r20, 0x1F	; 31
    3270:	6f e1       	ldi	r22, 0x1F	; 31
    3272:	8f e1       	ldi	r24, 0x1F	; 31
    3274:	0e 94 02 1c 	call	0x3804	; 0x3804 <ClearFromCenter_GrowingSymmetric>
    3278:	63 e1       	ldi	r22, 0x13	; 19
    327a:	86 e0       	ldi	r24, 0x06	; 6
    327c:	0e 94 da 25 	call	0x4bb4	; 0x4bb4 <ks0108GotoXY>
    3280:	82 eb       	ldi	r24, 0xB2	; 178
    3282:	9a e0       	ldi	r25, 0x0A	; 10
    3284:	0e 94 11 2c 	call	0x5822	; 0x5822 <ks0108Puts_P>
    3288:	6f e1       	ldi	r22, 0x1F	; 31
    328a:	8a e0       	ldi	r24, 0x0A	; 10
    328c:	0e 94 da 25 	call	0x4bb4	; 0x4bb4 <ks0108GotoXY>
    3290:	89 ea       	ldi	r24, 0xA9	; 169
    3292:	9a e0       	ldi	r25, 0x0A	; 10
    3294:	0e 94 11 2c 	call	0x5822	; 0x5822 <ks0108Puts_P>
    3298:	40 e0       	ldi	r20, 0x00	; 0
    329a:	62 e0       	ldi	r22, 0x02	; 2
    329c:	82 e0       	ldi	r24, 0x02	; 2
    329e:	0e 94 e6 3d 	call	0x7bcc	; 0x7bcc <dialogbox_sino>
    32a2:	80 91 95 07 	lds	r24, 0x0795	; 0x800795 <thisps+0x3>
    32a6:	81 30       	cpi	r24, 0x01	; 1
    32a8:	41 f5       	brne	.+80     	; 0x32fa <scene_add_handler+0x17a>
    32aa:	80 91 6a 06 	lds	r24, 0x066A	; 0x80066a <dialogbox_nb+0x3>
    32ae:	87 fd       	sbrc	r24, 7
    32b0:	24 c0       	rjmp	.+72     	; 0x32fa <scene_add_handler+0x17a>
    32b2:	80 91 6a 06 	lds	r24, 0x066A	; 0x80066a <dialogbox_nb+0x3>
    32b6:	81 30       	cpi	r24, 0x01	; 1
    32b8:	81 f4       	brne	.+32     	; 0x32da <scene_add_handler+0x15a>
    32ba:	82 e0       	ldi	r24, 0x02	; 2
    32bc:	80 93 93 07 	sts	0x0793, r24	; 0x800793 <thisps+0x1>
    32c0:	62 e0       	ldi	r22, 0x02	; 2
    32c2:	80 eb       	ldi	r24, 0xB0	; 176
    32c4:	91 e0       	ldi	r25, 0x01	; 1
    32c6:	0e 94 b8 24 	call	0x4970	; 0x4970 <change_operating_mode>
    32ca:	0e 94 38 18 	call	0x3070	; 0x3070 <listbox_name_scene>
    32ce:	8f ef       	ldi	r24, 0xFF	; 255
    32d0:	80 93 94 07 	sts	0x0794, r24	; 0x800794 <thisps+0x2>
    32d4:	10 92 95 07 	sts	0x0795, r1	; 0x800795 <thisps+0x3>
    32d8:	0e c0       	rjmp	.+28     	; 0x32f6 <scene_add_handler+0x176>
    32da:	80 91 6a 06 	lds	r24, 0x066A	; 0x80066a <dialogbox_nb+0x3>
    32de:	88 23       	and	r24, r24
    32e0:	21 f0       	breq	.+8      	; 0x32ea <scene_add_handler+0x16a>
    32e2:	80 91 6a 06 	lds	r24, 0x066A	; 0x80066a <dialogbox_nb+0x3>
    32e6:	83 30       	cpi	r24, 0x03	; 3
    32e8:	41 f4       	brne	.+16     	; 0x32fa <scene_add_handler+0x17a>
    32ea:	82 e0       	ldi	r24, 0x02	; 2
    32ec:	80 93 94 07 	sts	0x0794, r24	; 0x800794 <thisps+0x2>
    32f0:	10 92 95 07 	sts	0x0795, r1	; 0x800795 <thisps+0x3>
    32f4:	8f ef       	ldi	r24, 0xFF	; 255
    32f6:	80 93 6a 06 	sts	0x066A, r24	; 0x80066a <dialogbox_nb+0x3>
    32fa:	80 91 94 07 	lds	r24, 0x0794	; 0x800794 <thisps+0x2>
    32fe:	82 30       	cpi	r24, 0x02	; 2
    3300:	e9 f5       	brne	.+122    	; 0x337c <scene_add_handler+0x1fc>
    3302:	80 91 95 07 	lds	r24, 0x0795	; 0x800795 <thisps+0x3>
    3306:	81 11       	cpse	r24, r1
    3308:	15 c0       	rjmp	.+42     	; 0x3334 <scene_add_handler+0x1b4>
    330a:	81 e0       	ldi	r24, 0x01	; 1
    330c:	80 93 95 07 	sts	0x0795, r24	; 0x800795 <thisps+0x3>
    3310:	4f e1       	ldi	r20, 0x1F	; 31
    3312:	6f e1       	ldi	r22, 0x1F	; 31
    3314:	8f e1       	ldi	r24, 0x1F	; 31
    3316:	0e 94 02 1c 	call	0x3804	; 0x3804 <ClearFromCenter_GrowingSymmetric>
    331a:	69 e1       	ldi	r22, 0x19	; 25
    331c:	81 e1       	ldi	r24, 0x11	; 17
    331e:	0e 94 da 25 	call	0x4bb4	; 0x4bb4 <ks0108GotoXY>
    3322:	82 ea       	ldi	r24, 0xA2	; 162
    3324:	9a e0       	ldi	r25, 0x0A	; 10
    3326:	0e 94 11 2c 	call	0x5822	; 0x5822 <ks0108Puts_P>
    332a:	40 e0       	ldi	r20, 0x00	; 0
    332c:	62 e0       	ldi	r22, 0x02	; 2
    332e:	82 e0       	ldi	r24, 0x02	; 2
    3330:	0e 94 e6 3d 	call	0x7bcc	; 0x7bcc <dialogbox_sino>
    3334:	80 91 95 07 	lds	r24, 0x0795	; 0x800795 <thisps+0x3>
    3338:	81 30       	cpi	r24, 0x01	; 1
    333a:	01 f5       	brne	.+64     	; 0x337c <scene_add_handler+0x1fc>
    333c:	80 91 6a 06 	lds	r24, 0x066A	; 0x80066a <dialogbox_nb+0x3>
    3340:	87 fd       	sbrc	r24, 7
    3342:	1c c0       	rjmp	.+56     	; 0x337c <scene_add_handler+0x1fc>
    3344:	80 91 6a 06 	lds	r24, 0x066A	; 0x80066a <dialogbox_nb+0x3>
    3348:	81 30       	cpi	r24, 0x01	; 1
    334a:	59 f4       	brne	.+22     	; 0x3362 <scene_add_handler+0x1e2>
    334c:	82 e0       	ldi	r24, 0x02	; 2
    334e:	80 93 10 0a 	sts	0x0A10, r24	; 0x800a10 <shell>
    3352:	10 92 94 07 	sts	0x0794, r1	; 0x800794 <thisps+0x2>
    3356:	10 92 95 07 	sts	0x0795, r1	; 0x800795 <thisps+0x3>
    335a:	83 e0       	ldi	r24, 0x03	; 3
    335c:	80 93 69 08 	sts	0x0869, r24	; 0x800869 <kbhandler_app>
    3360:	0a c0       	rjmp	.+20     	; 0x3376 <scene_add_handler+0x1f6>
    3362:	80 91 6a 06 	lds	r24, 0x066A	; 0x80066a <dialogbox_nb+0x3>
    3366:	88 23       	and	r24, r24
    3368:	21 f0       	breq	.+8      	; 0x3372 <scene_add_handler+0x1f2>
    336a:	80 91 6a 06 	lds	r24, 0x066A	; 0x80066a <dialogbox_nb+0x3>
    336e:	83 30       	cpi	r24, 0x03	; 3
    3370:	29 f4       	brne	.+10     	; 0x337c <scene_add_handler+0x1fc>
    3372:	0e 94 20 18 	call	0x3040	; 0x3040 <return_to_mode0>
    3376:	8f ef       	ldi	r24, 0xFF	; 255
    3378:	80 93 6a 06 	sts	0x066A, r24	; 0x80066a <dialogbox_nb+0x3>
    337c:	80 91 94 07 	lds	r24, 0x0794	; 0x800794 <thisps+0x2>
    3380:	83 30       	cpi	r24, 0x03	; 3
    3382:	09 f0       	breq	.+2      	; 0x3386 <scene_add_handler+0x206>
    3384:	4a c0       	rjmp	.+148    	; 0x341a <scene_add_handler+0x29a>
    3386:	80 91 95 07 	lds	r24, 0x0795	; 0x800795 <thisps+0x3>
    338a:	81 11       	cpse	r24, r1
    338c:	1d c0       	rjmp	.+58     	; 0x33c8 <scene_add_handler+0x248>
    338e:	81 e0       	ldi	r24, 0x01	; 1
    3390:	80 93 95 07 	sts	0x0795, r24	; 0x800795 <thisps+0x3>
    3394:	4f e1       	ldi	r20, 0x1F	; 31
    3396:	6f e1       	ldi	r22, 0x1F	; 31
    3398:	8f e1       	ldi	r24, 0x1F	; 31
    339a:	0e 94 02 1c 	call	0x3804	; 0x3804 <ClearFromCenter_GrowingSymmetric>
    339e:	63 e1       	ldi	r22, 0x13	; 19
    33a0:	86 e0       	ldi	r24, 0x06	; 6
    33a2:	0e 94 da 25 	call	0x4bb4	; 0x4bb4 <ks0108GotoXY>
    33a6:	89 e9       	ldi	r24, 0x99	; 153
    33a8:	9a e0       	ldi	r25, 0x0A	; 10
    33aa:	0e 94 11 2c 	call	0x5822	; 0x5822 <ks0108Puts_P>
    33ae:	6f e1       	ldi	r22, 0x1F	; 31
    33b0:	8a e0       	ldi	r24, 0x0A	; 10
    33b2:	0e 94 da 25 	call	0x4bb4	; 0x4bb4 <ks0108GotoXY>
    33b6:	8e e8       	ldi	r24, 0x8E	; 142
    33b8:	9a e0       	ldi	r25, 0x0A	; 10
    33ba:	0e 94 11 2c 	call	0x5822	; 0x5822 <ks0108Puts_P>
    33be:	40 e0       	ldi	r20, 0x00	; 0
    33c0:	62 e0       	ldi	r22, 0x02	; 2
    33c2:	82 e0       	ldi	r24, 0x02	; 2
    33c4:	0e 94 e6 3d 	call	0x7bcc	; 0x7bcc <dialogbox_sino>
    33c8:	80 91 95 07 	lds	r24, 0x0795	; 0x800795 <thisps+0x3>
    33cc:	81 30       	cpi	r24, 0x01	; 1
    33ce:	29 f5       	brne	.+74     	; 0x341a <scene_add_handler+0x29a>
    33d0:	80 91 6a 06 	lds	r24, 0x066A	; 0x80066a <dialogbox_nb+0x3>
    33d4:	87 fd       	sbrc	r24, 7
    33d6:	21 c0       	rjmp	.+66     	; 0x341a <scene_add_handler+0x29a>
    33d8:	80 91 6a 06 	lds	r24, 0x066A	; 0x80066a <dialogbox_nb+0x3>
    33dc:	81 30       	cpi	r24, 0x01	; 1
    33de:	21 f4       	brne	.+8      	; 0x33e8 <scene_add_handler+0x268>
    33e0:	0e 94 20 18 	call	0x3040	; 0x3040 <return_to_mode0>
    33e4:	8f ef       	ldi	r24, 0xFF	; 255
    33e6:	17 c0       	rjmp	.+46     	; 0x3416 <scene_add_handler+0x296>
    33e8:	80 91 6a 06 	lds	r24, 0x066A	; 0x80066a <dialogbox_nb+0x3>
    33ec:	88 23       	and	r24, r24
    33ee:	21 f0       	breq	.+8      	; 0x33f8 <scene_add_handler+0x278>
    33f0:	80 91 6a 06 	lds	r24, 0x066A	; 0x80066a <dialogbox_nb+0x3>
    33f4:	83 30       	cpi	r24, 0x03	; 3
    33f6:	89 f4       	brne	.+34     	; 0x341a <scene_add_handler+0x29a>
    33f8:	82 e0       	ldi	r24, 0x02	; 2
    33fa:	80 93 93 07 	sts	0x0793, r24	; 0x800793 <thisps+0x1>
    33fe:	62 e0       	ldi	r22, 0x02	; 2
    3400:	80 eb       	ldi	r24, 0xB0	; 176
    3402:	91 e0       	ldi	r25, 0x01	; 1
    3404:	0e 94 b8 24 	call	0x4970	; 0x4970 <change_operating_mode>
    3408:	0e 94 38 18 	call	0x3070	; 0x3070 <listbox_name_scene>
    340c:	8f ef       	ldi	r24, 0xFF	; 255
    340e:	80 93 94 07 	sts	0x0794, r24	; 0x800794 <thisps+0x2>
    3412:	10 92 95 07 	sts	0x0795, r1	; 0x800795 <thisps+0x3>
    3416:	80 93 6a 06 	sts	0x066A, r24	; 0x80066a <dialogbox_nb+0x3>
    341a:	80 91 94 07 	lds	r24, 0x0794	; 0x800794 <thisps+0x2>
    341e:	84 30       	cpi	r24, 0x04	; 4
    3420:	09 f0       	breq	.+2      	; 0x3424 <scene_add_handler+0x2a4>
    3422:	4d c0       	rjmp	.+154    	; 0x34be <scene_add_handler+0x33e>
    3424:	80 91 95 07 	lds	r24, 0x0795	; 0x800795 <thisps+0x3>
    3428:	81 11       	cpse	r24, r1
    342a:	1d c0       	rjmp	.+58     	; 0x3466 <scene_add_handler+0x2e6>
    342c:	81 e0       	ldi	r24, 0x01	; 1
    342e:	80 93 95 07 	sts	0x0795, r24	; 0x800795 <thisps+0x3>
    3432:	4f e1       	ldi	r20, 0x1F	; 31
    3434:	6f e1       	ldi	r22, 0x1F	; 31
    3436:	8f e1       	ldi	r24, 0x1F	; 31
    3438:	0e 94 02 1c 	call	0x3804	; 0x3804 <ClearFromCenter_GrowingSymmetric>
    343c:	63 e1       	ldi	r22, 0x13	; 19
    343e:	86 e0       	ldi	r24, 0x06	; 6
    3440:	0e 94 da 25 	call	0x4bb4	; 0x4bb4 <ks0108GotoXY>
    3444:	85 e8       	ldi	r24, 0x85	; 133
    3446:	9a e0       	ldi	r25, 0x0A	; 10
    3448:	0e 94 11 2c 	call	0x5822	; 0x5822 <ks0108Puts_P>
    344c:	6f e1       	ldi	r22, 0x1F	; 31
    344e:	86 e0       	ldi	r24, 0x06	; 6
    3450:	0e 94 da 25 	call	0x4bb4	; 0x4bb4 <ks0108GotoXY>
    3454:	8a e7       	ldi	r24, 0x7A	; 122
    3456:	9a e0       	ldi	r25, 0x0A	; 10
    3458:	0e 94 11 2c 	call	0x5822	; 0x5822 <ks0108Puts_P>
    345c:	40 e0       	ldi	r20, 0x00	; 0
    345e:	62 e0       	ldi	r22, 0x02	; 2
    3460:	82 e0       	ldi	r24, 0x02	; 2
    3462:	0e 94 e6 3d 	call	0x7bcc	; 0x7bcc <dialogbox_sino>
    3466:	80 91 95 07 	lds	r24, 0x0795	; 0x800795 <thisps+0x3>
    346a:	81 30       	cpi	r24, 0x01	; 1
    346c:	41 f5       	brne	.+80     	; 0x34be <scene_add_handler+0x33e>
    346e:	80 91 6a 06 	lds	r24, 0x066A	; 0x80066a <dialogbox_nb+0x3>
    3472:	87 fd       	sbrc	r24, 7
    3474:	24 c0       	rjmp	.+72     	; 0x34be <scene_add_handler+0x33e>
    3476:	80 91 6a 06 	lds	r24, 0x066A	; 0x80066a <dialogbox_nb+0x3>
    347a:	81 30       	cpi	r24, 0x01	; 1
    347c:	39 f4       	brne	.+14     	; 0x348c <scene_add_handler+0x30c>
    347e:	85 e0       	ldi	r24, 0x05	; 5
    3480:	80 93 94 07 	sts	0x0794, r24	; 0x800794 <thisps+0x2>
    3484:	10 92 95 07 	sts	0x0795, r1	; 0x800795 <thisps+0x3>
    3488:	8f ef       	ldi	r24, 0xFF	; 255
    348a:	17 c0       	rjmp	.+46     	; 0x34ba <scene_add_handler+0x33a>
    348c:	80 91 6a 06 	lds	r24, 0x066A	; 0x80066a <dialogbox_nb+0x3>
    3490:	88 23       	and	r24, r24
    3492:	21 f0       	breq	.+8      	; 0x349c <scene_add_handler+0x31c>
    3494:	80 91 6a 06 	lds	r24, 0x066A	; 0x80066a <dialogbox_nb+0x3>
    3498:	83 30       	cpi	r24, 0x03	; 3
    349a:	89 f4       	brne	.+34     	; 0x34be <scene_add_handler+0x33e>
    349c:	82 e0       	ldi	r24, 0x02	; 2
    349e:	80 93 93 07 	sts	0x0793, r24	; 0x800793 <thisps+0x1>
    34a2:	62 e0       	ldi	r22, 0x02	; 2
    34a4:	80 eb       	ldi	r24, 0xB0	; 176
    34a6:	91 e0       	ldi	r25, 0x01	; 1
    34a8:	0e 94 b8 24 	call	0x4970	; 0x4970 <change_operating_mode>
    34ac:	0e 94 38 18 	call	0x3070	; 0x3070 <listbox_name_scene>
    34b0:	8f ef       	ldi	r24, 0xFF	; 255
    34b2:	80 93 94 07 	sts	0x0794, r24	; 0x800794 <thisps+0x2>
    34b6:	10 92 95 07 	sts	0x0795, r1	; 0x800795 <thisps+0x3>
    34ba:	80 93 6a 06 	sts	0x066A, r24	; 0x80066a <dialogbox_nb+0x3>
    34be:	80 91 94 07 	lds	r24, 0x0794	; 0x800794 <thisps+0x2>
    34c2:	85 30       	cpi	r24, 0x05	; 5
    34c4:	09 f0       	breq	.+2      	; 0x34c8 <scene_add_handler+0x348>
    34c6:	56 c0       	rjmp	.+172    	; 0x3574 <scene_add_handler+0x3f4>
    34c8:	80 91 95 07 	lds	r24, 0x0795	; 0x800795 <thisps+0x3>
    34cc:	81 11       	cpse	r24, r1
    34ce:	1d c0       	rjmp	.+58     	; 0x350a <scene_add_handler+0x38a>
    34d0:	81 e0       	ldi	r24, 0x01	; 1
    34d2:	80 93 95 07 	sts	0x0795, r24	; 0x800795 <thisps+0x3>
    34d6:	4f e1       	ldi	r20, 0x1F	; 31
    34d8:	6f e1       	ldi	r22, 0x1F	; 31
    34da:	8f e1       	ldi	r24, 0x1F	; 31
    34dc:	0e 94 02 1c 	call	0x3804	; 0x3804 <ClearFromCenter_GrowingSymmetric>
    34e0:	63 e1       	ldi	r22, 0x13	; 19
    34e2:	86 e0       	ldi	r24, 0x06	; 6
    34e4:	0e 94 da 25 	call	0x4bb4	; 0x4bb4 <ks0108GotoXY>
    34e8:	82 e7       	ldi	r24, 0x72	; 114
    34ea:	9a e0       	ldi	r25, 0x0A	; 10
    34ec:	0e 94 11 2c 	call	0x5822	; 0x5822 <ks0108Puts_P>
    34f0:	6f e1       	ldi	r22, 0x1F	; 31
    34f2:	8a e0       	ldi	r24, 0x0A	; 10
    34f4:	0e 94 da 25 	call	0x4bb4	; 0x4bb4 <ks0108GotoXY>
    34f8:	89 e6       	ldi	r24, 0x69	; 105
    34fa:	9a e0       	ldi	r25, 0x0A	; 10
    34fc:	0e 94 11 2c 	call	0x5822	; 0x5822 <ks0108Puts_P>
    3500:	40 e0       	ldi	r20, 0x00	; 0
    3502:	62 e0       	ldi	r22, 0x02	; 2
    3504:	82 e0       	ldi	r24, 0x02	; 2
    3506:	0e 94 e6 3d 	call	0x7bcc	; 0x7bcc <dialogbox_sino>
    350a:	80 91 95 07 	lds	r24, 0x0795	; 0x800795 <thisps+0x3>
    350e:	81 30       	cpi	r24, 0x01	; 1
    3510:	89 f5       	brne	.+98     	; 0x3574 <scene_add_handler+0x3f4>
    3512:	80 91 6a 06 	lds	r24, 0x066A	; 0x80066a <dialogbox_nb+0x3>
    3516:	87 fd       	sbrc	r24, 7
    3518:	2d c0       	rjmp	.+90     	; 0x3574 <scene_add_handler+0x3f4>
    351a:	80 91 6a 06 	lds	r24, 0x066A	; 0x80066a <dialogbox_nb+0x3>
    351e:	81 30       	cpi	r24, 0x01	; 1
    3520:	01 f5       	brne	.+64     	; 0x3562 <scene_add_handler+0x3e2>
    3522:	80 91 36 08 	lds	r24, 0x0836	; 0x800836 <ps_scene>
    3526:	84 31       	cpi	r24, 0x14	; 20
    3528:	00 f5       	brcc	.+64     	; 0x356a <scene_add_handler+0x3ea>
    352a:	82 e0       	ldi	r24, 0x02	; 2
    352c:	9a e0       	ldi	r25, 0x0A	; 10
    352e:	0e 94 1f 3f 	call	0x7e3e	; 0x7e3e <ListBox_get_last_elementpointed>
    3532:	68 2f       	mov	r22, r24
    3534:	80 91 36 08 	lds	r24, 0x0836	; 0x800836 <ps_scene>
    3538:	0e 94 b6 16 	call	0x2d6c	; 0x2d6c <save_scene_epp>
    353c:	80 91 36 08 	lds	r24, 0x0836	; 0x800836 <ps_scene>
    3540:	8f 5f       	subi	r24, 0xFF	; 255
    3542:	80 93 36 08 	sts	0x0836, r24	; 0x800836 <ps_scene>
    3546:	60 91 36 08 	lds	r22, 0x0836	; 0x800836 <ps_scene>
    354a:	81 e0       	ldi	r24, 0x01	; 1
    354c:	91 e0       	ldi	r25, 0x01	; 1
    354e:	0e 94 22 11 	call	0x2244	; 0x2244 <EEPROM_WriteByte>
    3552:	80 91 36 08 	lds	r24, 0x0836	; 0x800836 <ps_scene>
    3556:	81 50       	subi	r24, 0x01	; 1
    3558:	80 93 28 08 	sts	0x0828, r24	; 0x800828 <currentscene>
    355c:	0e 94 f5 16 	call	0x2dea	; 0x2dea <_all_dcs_taked_as_currentscene>
    3560:	04 c0       	rjmp	.+8      	; 0x356a <scene_add_handler+0x3ea>
    3562:	80 91 6a 06 	lds	r24, 0x066A	; 0x80066a <dialogbox_nb+0x3>
    3566:	81 11       	cpse	r24, r1
    3568:	05 c0       	rjmp	.+10     	; 0x3574 <scene_add_handler+0x3f4>
    356a:	0e 94 20 18 	call	0x3040	; 0x3040 <return_to_mode0>
    356e:	8f ef       	ldi	r24, 0xFF	; 255
    3570:	80 93 6a 06 	sts	0x066A, r24	; 0x80066a <dialogbox_nb+0x3>
    3574:	df 91       	pop	r29
    3576:	cf 91       	pop	r28
    3578:	1f 91       	pop	r17
    357a:	0f 91       	pop	r16
    357c:	ff 90       	pop	r15
    357e:	ef 90       	pop	r14
    3580:	cf 90       	pop	r12
    3582:	08 95       	ret

00003584 <FindKtesOfTimeToExcFading_And_SignNewInitOfFadingZone>:
    3584:	8f 92       	push	r8
    3586:	9f 92       	push	r9
    3588:	af 92       	push	r10
    358a:	bf 92       	push	r11
    358c:	ef 92       	push	r14
    358e:	ff 92       	push	r15
    3590:	0f 93       	push	r16
    3592:	1f 93       	push	r17
    3594:	cf 93       	push	r28
    3596:	df 93       	push	r29
    3598:	08 2f       	mov	r16, r24
    359a:	10 e0       	ldi	r17, 0x00	; 0
    359c:	94 e2       	ldi	r25, 0x24	; 36
    359e:	89 9f       	mul	r24, r25
    35a0:	f0 01       	movw	r30, r0
    35a2:	11 24       	eor	r1, r1
    35a4:	ee 59       	subi	r30, 0x9E	; 158
    35a6:	f5 4f       	sbci	r31, 0xF5	; 245
    35a8:	25 85       	ldd	r18, Z+13	; 0x0d
    35aa:	36 85       	ldd	r19, Z+14	; 0x0e
    35ac:	40 85       	ldd	r20, Z+8	; 0x08
    35ae:	51 85       	ldd	r21, Z+9	; 0x09
    35b0:	24 1b       	sub	r18, r20
    35b2:	35 0b       	sbc	r19, r21
    35b4:	31 8b       	std	Z+17, r19	; 0x11
    35b6:	20 8b       	std	Z+16, r18	; 0x10
    35b8:	20 89       	ldd	r18, Z+16	; 0x10
    35ba:	31 89       	ldd	r19, Z+17	; 0x11
    35bc:	23 2b       	or	r18, r19
    35be:	09 f4       	brne	.+2      	; 0x35c2 <FindKtesOfTimeToExcFading_And_SignNewInitOfFadingZone+0x3e>
    35c0:	84 c0       	rjmp	.+264    	; 0x36ca <FindKtesOfTimeToExcFading_And_SignNewInitOfFadingZone+0x146>
    35c2:	20 89       	ldd	r18, Z+16	; 0x10
    35c4:	31 89       	ldd	r19, Z+17	; 0x11
    35c6:	37 ff       	sbrs	r19, 7
    35c8:	1c c0       	rjmp	.+56     	; 0x3602 <FindKtesOfTimeToExcFading_And_SignNewInitOfFadingZone+0x7e>
    35ca:	8f ef       	ldi	r24, 0xFF	; 255
    35cc:	87 87       	std	Z+15, r24	; 0x0f
    35ce:	80 89       	ldd	r24, Z+16	; 0x10
    35d0:	91 89       	ldd	r25, Z+17	; 0x11
    35d2:	91 95       	neg	r25
    35d4:	81 95       	neg	r24
    35d6:	91 09       	sbc	r25, r1
    35d8:	91 8b       	std	Z+17, r25	; 0x11
    35da:	80 8b       	std	Z+16, r24	; 0x10
    35dc:	87 8d       	ldd	r24, Z+31	; 0x1f
    35de:	81 11       	cpse	r24, r1
    35e0:	31 c0       	rjmp	.+98     	; 0x3644 <FindKtesOfTimeToExcFading_And_SignNewInitOfFadingZone+0xc0>
    35e2:	25 85       	ldd	r18, Z+13	; 0x0d
    35e4:	36 85       	ldd	r19, Z+14	; 0x0e
    35e6:	85 8d       	ldd	r24, Z+29	; 0x1d
    35e8:	96 8d       	ldd	r25, Z+30	; 0x1e
    35ea:	82 17       	cp	r24, r18
    35ec:	93 07       	cpc	r25, r19
    35ee:	50 f1       	brcs	.+84     	; 0x3644 <FindKtesOfTimeToExcFading_And_SignNewInitOfFadingZone+0xc0>
    35f0:	25 8d       	ldd	r18, Z+29	; 0x1d
    35f2:	36 8d       	ldd	r19, Z+30	; 0x1e
    35f4:	80 89       	ldd	r24, Z+16	; 0x10
    35f6:	91 89       	ldd	r25, Z+17	; 0x11
    35f8:	82 1b       	sub	r24, r18
    35fa:	93 0b       	sbc	r25, r19
    35fc:	91 8b       	std	Z+17, r25	; 0x11
    35fe:	80 8b       	std	Z+16, r24	; 0x10
    3600:	21 c0       	rjmp	.+66     	; 0x3644 <FindKtesOfTimeToExcFading_And_SignNewInitOfFadingZone+0xc0>
    3602:	91 e0       	ldi	r25, 0x01	; 1
    3604:	97 87       	std	Z+15, r25	; 0x0f
    3606:	97 8d       	ldd	r25, Z+31	; 0x1f
    3608:	91 11       	cpse	r25, r1
    360a:	1c c0       	rjmp	.+56     	; 0x3644 <FindKtesOfTimeToExcFading_And_SignNewInitOfFadingZone+0xc0>
    360c:	40 85       	ldd	r20, Z+8	; 0x08
    360e:	51 85       	ldd	r21, Z+9	; 0x09
    3610:	25 8d       	ldd	r18, Z+29	; 0x1d
    3612:	36 8d       	ldd	r19, Z+30	; 0x1e
    3614:	24 17       	cp	r18, r20
    3616:	35 07       	cpc	r19, r21
    3618:	a8 f0       	brcs	.+42     	; 0x3644 <FindKtesOfTimeToExcFading_And_SignNewInitOfFadingZone+0xc0>
    361a:	45 8d       	ldd	r20, Z+29	; 0x1d
    361c:	56 8d       	ldd	r21, Z+30	; 0x1e
    361e:	20 89       	ldd	r18, Z+16	; 0x10
    3620:	31 89       	ldd	r19, Z+17	; 0x11
    3622:	24 1b       	sub	r18, r20
    3624:	35 0b       	sbc	r19, r21
    3626:	31 8b       	std	Z+17, r19	; 0x11
    3628:	20 8b       	std	Z+16, r18	; 0x10
    362a:	20 85       	ldd	r18, Z+8	; 0x08
    362c:	31 85       	ldd	r19, Z+9	; 0x09
    362e:	23 2b       	or	r18, r19
    3630:	49 f4       	brne	.+18     	; 0x3644 <FindKtesOfTimeToExcFading_And_SignNewInitOfFadingZone+0xc0>
    3632:	90 91 37 08 	lds	r25, 0x0837	; 0x800837 <ps_fading_inbk>
    3636:	92 ff       	sbrs	r25, 2
    3638:	05 c0       	rjmp	.+10     	; 0x3644 <FindKtesOfTimeToExcFading_And_SignNewInitOfFadingZone+0xc0>
    363a:	65 8d       	ldd	r22, Z+29	; 0x1d
    363c:	76 8d       	ldd	r23, Z+30	; 0x1e
    363e:	4f ef       	ldi	r20, 0xFF	; 255
    3640:	0e 94 57 1f 	call	0x3eae	; 0x3eae <direct_fillclear_barlevel>
    3644:	84 e2       	ldi	r24, 0x24	; 36
    3646:	80 9f       	mul	r24, r16
    3648:	e0 01       	movw	r28, r0
    364a:	81 9f       	mul	r24, r17
    364c:	d0 0d       	add	r29, r0
    364e:	11 24       	eor	r1, r1
    3650:	8e 01       	movw	r16, r28
    3652:	0e 59       	subi	r16, 0x9E	; 158
    3654:	15 4f       	sbci	r17, 0xF5	; 245
    3656:	f8 01       	movw	r30, r16
    3658:	63 8d       	ldd	r22, Z+27	; 0x1b
    365a:	74 8d       	ldd	r23, Z+28	; 0x1c
    365c:	e0 88       	ldd	r14, Z+16	; 0x10
    365e:	f1 88       	ldd	r15, Z+17	; 0x11
    3660:	80 e0       	ldi	r24, 0x00	; 0
    3662:	90 e0       	ldi	r25, 0x00	; 0
    3664:	0e 94 21 50 	call	0xa042	; 0xa042 <__floatunsisf>
    3668:	4b 01       	movw	r8, r22
    366a:	5c 01       	movw	r10, r24
    366c:	b7 01       	movw	r22, r14
    366e:	ff 0c       	add	r15, r15
    3670:	88 0b       	sbc	r24, r24
    3672:	99 0b       	sbc	r25, r25
    3674:	0e 94 23 50 	call	0xa046	; 0xa046 <__floatsisf>
    3678:	9b 01       	movw	r18, r22
    367a:	ac 01       	movw	r20, r24
    367c:	c5 01       	movw	r24, r10
    367e:	b4 01       	movw	r22, r8
    3680:	0e 94 80 4f 	call	0x9f00	; 0x9f00 <__divsf3>
    3684:	0e 94 45 51 	call	0xa28a	; 0xa28a <round>
    3688:	0e 94 f2 4f 	call	0x9fe4	; 0x9fe4 <__fixunssfsi>
    368c:	80 e0       	ldi	r24, 0x00	; 0
    368e:	90 e0       	ldi	r25, 0x00	; 0
    3690:	0e 94 21 50 	call	0xa042	; 0xa042 <__floatunsisf>
    3694:	21 e0       	ldi	r18, 0x01	; 1
    3696:	30 e0       	ldi	r19, 0x00	; 0
    3698:	40 ea       	ldi	r20, 0xA0	; 160
    369a:	50 e4       	ldi	r21, 0x40	; 64
    369c:	0e 94 80 4f 	call	0x9f00	; 0x9f00 <__divsf3>
    36a0:	0e 94 45 51 	call	0xa28a	; 0xa28a <round>
    36a4:	0e 94 f2 4f 	call	0x9fe4	; 0x9fe4 <__fixunssfsi>
    36a8:	f8 01       	movw	r30, r16
    36aa:	75 8b       	std	Z+21, r23	; 0x15
    36ac:	64 8b       	std	Z+20, r22	; 0x14
    36ae:	17 8a       	std	Z+23, r1	; 0x17
    36b0:	16 8a       	std	Z+22, r1	; 0x16
    36b2:	13 8a       	std	Z+19, r1	; 0x13
    36b4:	12 8a       	std	Z+18, r1	; 0x12
    36b6:	c6 58       	subi	r28, 0x86	; 134
    36b8:	d5 4f       	sbci	r29, 0xF5	; 245
    36ba:	88 81       	ld	r24, Y
    36bc:	81 60       	ori	r24, 0x01	; 1
    36be:	88 83       	st	Y, r24
    36c0:	80 91 37 08 	lds	r24, 0x0837	; 0x800837 <ps_fading_inbk>
    36c4:	81 60       	ori	r24, 0x01	; 1
    36c6:	80 93 37 08 	sts	0x0837, r24	; 0x800837 <ps_fading_inbk>
    36ca:	df 91       	pop	r29
    36cc:	cf 91       	pop	r28
    36ce:	1f 91       	pop	r17
    36d0:	0f 91       	pop	r16
    36d2:	ff 90       	pop	r15
    36d4:	ef 90       	pop	r14
    36d6:	bf 90       	pop	r11
    36d8:	af 90       	pop	r10
    36da:	9f 90       	pop	r9
    36dc:	8f 90       	pop	r8
    36de:	08 95       	ret

000036e0 <fadingprocess_inzone>:
    36e0:	cf 93       	push	r28
    36e2:	df 93       	push	r29
    36e4:	c8 2f       	mov	r28, r24
    36e6:	d0 e0       	ldi	r29, 0x00	; 0
    36e8:	94 e2       	ldi	r25, 0x24	; 36
    36ea:	89 9f       	mul	r24, r25
    36ec:	f0 01       	movw	r30, r0
    36ee:	11 24       	eor	r1, r1
    36f0:	ee 59       	subi	r30, 0x9E	; 158
    36f2:	f5 4f       	sbci	r31, 0xF5	; 245
    36f4:	26 89       	ldd	r18, Z+22	; 0x16
    36f6:	37 89       	ldd	r19, Z+23	; 0x17
    36f8:	2f 5f       	subi	r18, 0xFF	; 255
    36fa:	3f 4f       	sbci	r19, 0xFF	; 255
    36fc:	37 8b       	std	Z+23, r19	; 0x17
    36fe:	26 8b       	std	Z+22, r18	; 0x16
    3700:	44 89       	ldd	r20, Z+20	; 0x14
    3702:	55 89       	ldd	r21, Z+21	; 0x15
    3704:	24 17       	cp	r18, r20
    3706:	35 07       	cpc	r19, r21
    3708:	a0 f0       	brcs	.+40     	; 0x3732 <fadingprocess_inzone+0x52>
    370a:	17 8a       	std	Z+23, r1	; 0x17
    370c:	16 8a       	std	Z+22, r1	; 0x16
    370e:	22 89       	ldd	r18, Z+18	; 0x12
    3710:	33 89       	ldd	r19, Z+19	; 0x13
    3712:	2f 5f       	subi	r18, 0xFF	; 255
    3714:	3f 4f       	sbci	r19, 0xFF	; 255
    3716:	33 8b       	std	Z+19, r19	; 0x13
    3718:	22 8b       	std	Z+18, r18	; 0x12
    371a:	97 85       	ldd	r25, Z+15	; 0x0f
    371c:	20 85       	ldd	r18, Z+8	; 0x08
    371e:	31 85       	ldd	r19, Z+9	; 0x09
    3720:	29 0f       	add	r18, r25
    3722:	31 1d       	adc	r19, r1
    3724:	97 fd       	sbrc	r25, 7
    3726:	3a 95       	dec	r19
    3728:	31 87       	std	Z+9, r19	; 0x09
    372a:	20 87       	std	Z+8, r18	; 0x08
    372c:	67 85       	ldd	r22, Z+15	; 0x0f
    372e:	0e 94 76 0d 	call	0x1aec	; 0x1aec <dimming>
    3732:	84 e2       	ldi	r24, 0x24	; 36
    3734:	8c 9f       	mul	r24, r28
    3736:	f0 01       	movw	r30, r0
    3738:	8d 9f       	mul	r24, r29
    373a:	f0 0d       	add	r31, r0
    373c:	11 24       	eor	r1, r1
    373e:	df 01       	movw	r26, r30
    3740:	ae 59       	subi	r26, 0x9E	; 158
    3742:	b5 4f       	sbci	r27, 0xF5	; 245
    3744:	52 96       	adiw	r26, 0x12	; 18
    3746:	2d 91       	ld	r18, X+
    3748:	3c 91       	ld	r19, X
    374a:	53 97       	sbiw	r26, 0x13	; 19
    374c:	50 96       	adiw	r26, 0x10	; 16
    374e:	8d 91       	ld	r24, X+
    3750:	9c 91       	ld	r25, X
    3752:	51 97       	sbiw	r26, 0x11	; 17
    3754:	28 17       	cp	r18, r24
    3756:	39 07       	cpc	r19, r25
    3758:	28 f0       	brcs	.+10     	; 0x3764 <fadingprocess_inzone+0x84>
    375a:	e6 58       	subi	r30, 0x86	; 134
    375c:	f5 4f       	sbci	r31, 0xF5	; 245
    375e:	80 81       	ld	r24, Z
    3760:	8e 7f       	andi	r24, 0xFE	; 254
    3762:	80 83       	st	Z, r24
    3764:	df 91       	pop	r29
    3766:	cf 91       	pop	r28
    3768:	08 95       	ret

0000376a <is_fadingprocess_allzone_finish>:
    376a:	80 e0       	ldi	r24, 0x00	; 0
    376c:	90 e0       	ldi	r25, 0x00	; 0
    376e:	24 e2       	ldi	r18, 0x24	; 36
    3770:	28 9f       	mul	r18, r24
    3772:	f0 01       	movw	r30, r0
    3774:	29 9f       	mul	r18, r25
    3776:	f0 0d       	add	r31, r0
    3778:	11 24       	eor	r1, r1
    377a:	e6 58       	subi	r30, 0x86	; 134
    377c:	f5 4f       	sbci	r31, 0xF5	; 245
    377e:	30 81       	ld	r19, Z
    3780:	30 fd       	sbrc	r19, 0
    3782:	06 c0       	rjmp	.+12     	; 0x3790 <is_fadingprocess_allzone_finish+0x26>
    3784:	01 96       	adiw	r24, 0x01	; 1
    3786:	86 30       	cpi	r24, 0x06	; 6
    3788:	91 05       	cpc	r25, r1
    378a:	91 f7       	brne	.-28     	; 0x3770 <is_fadingprocess_allzone_finish+0x6>
    378c:	81 e0       	ldi	r24, 0x01	; 1
    378e:	08 95       	ret
    3790:	80 e0       	ldi	r24, 0x00	; 0
    3792:	08 95       	ret

00003794 <InitGLCD192x64>:
    3794:	df 98       	cbi	0x1b, 7	; 27
    3796:	d7 9a       	sbi	0x1a, 7	; 26
    3798:	d4 9a       	sbi	0x1a, 4	; 26
    379a:	dc 98       	cbi	0x1b, 4	; 27
    379c:	e8 e0       	ldi	r30, 0x08	; 8
    379e:	f8 e0       	ldi	r31, 0x08	; 8
    37a0:	82 e0       	ldi	r24, 0x02	; 2
    37a2:	80 83       	st	Z, r24
    37a4:	17 82       	std	Z+7, r1	; 0x07
    37a6:	08 95       	ret

000037a8 <PrintNewDigitInASCIIAt>:
    37a8:	0f 93       	push	r16
    37aa:	1f 93       	push	r17
    37ac:	cf 93       	push	r28
    37ae:	df 93       	push	r29
    37b0:	c8 2f       	mov	r28, r24
    37b2:	d6 2f       	mov	r29, r22
    37b4:	10 2f       	mov	r17, r16
    37b6:	00 e0       	ldi	r16, 0x00	; 0
    37b8:	0e 94 61 28 	call	0x50c2	; 0x50c2 <ks0108FillRect>
    37bc:	6d 2f       	mov	r22, r29
    37be:	8c 2f       	mov	r24, r28
    37c0:	0e 94 da 25 	call	0x4bb4	; 0x4bb4 <ks0108GotoXY>
    37c4:	80 e3       	ldi	r24, 0x30	; 48
    37c6:	81 0f       	add	r24, r17
    37c8:	df 91       	pop	r29
    37ca:	cf 91       	pop	r28
    37cc:	1f 91       	pop	r17
    37ce:	0f 91       	pop	r16
    37d0:	0c 94 ea 2a 	jmp	0x55d4	; 0x55d4 <ks0108PutChar>

000037d4 <CenterText_HPix_CHIPn_fx>:
    37d4:	ef 92       	push	r14
    37d6:	0f 93       	push	r16
    37d8:	e6 2f       	mov	r30, r22
    37da:	f0 e0       	ldi	r31, 0x00	; 0
    37dc:	bf 01       	movw	r22, r30
    37de:	42 9f       	mul	r20, r18
    37e0:	60 19       	sub	r22, r0
    37e2:	71 09       	sbc	r23, r1
    37e4:	11 24       	eor	r1, r1
    37e6:	77 ff       	sbrs	r23, 7
    37e8:	02 c0       	rjmp	.+4      	; 0x37ee <CenterText_HPix_CHIPn_fx+0x1a>
    37ea:	6f 5f       	subi	r22, 0xFF	; 255
    37ec:	7f 4f       	sbci	r23, 0xFF	; 255
    37ee:	75 95       	asr	r23
    37f0:	67 95       	ror	r22
    37f2:	61 11       	cpse	r22, r1
    37f4:	02 c0       	rjmp	.+4      	; 0x37fa <CenterText_HPix_CHIPn_fx+0x26>
    37f6:	80 0f       	add	r24, r16
    37f8:	02 c0       	rjmp	.+4      	; 0x37fe <CenterText_HPix_CHIPn_fx+0x2a>
    37fa:	8e 0d       	add	r24, r14
    37fc:	86 0f       	add	r24, r22
    37fe:	0f 91       	pop	r16
    3800:	ef 90       	pop	r14
    3802:	08 95       	ret

00003804 <ClearFromCenter_GrowingSymmetric>:
    3804:	ff 92       	push	r15
    3806:	0f 93       	push	r16
    3808:	1f 93       	push	r17
    380a:	cf 93       	push	r28
    380c:	df 93       	push	r29
    380e:	18 2f       	mov	r17, r24
    3810:	14 1b       	sub	r17, r20
    3812:	c1 e0       	ldi	r28, 0x01	; 1
    3814:	d6 2f       	mov	r29, r22
    3816:	d8 1b       	sub	r29, r24
    3818:	6d 2f       	mov	r22, r29
    381a:	68 0f       	add	r22, r24
    381c:	81 17       	cp	r24, r17
    381e:	59 f0       	breq	.+22     	; 0x3836 <ClearFromCenter_GrowingSymmetric+0x32>
    3820:	ff 24       	eor	r15, r15
    3822:	fa 94       	dec	r15
    3824:	f8 0e       	add	r15, r24
    3826:	00 e0       	ldi	r16, 0x00	; 0
    3828:	2c 2f       	mov	r18, r28
    382a:	4c 2f       	mov	r20, r28
    382c:	0e 94 f4 28 	call	0x51e8	; 0x51e8 <ks0108DrawRect>
    3830:	ce 5f       	subi	r28, 0xFE	; 254
    3832:	8f 2d       	mov	r24, r15
    3834:	f1 cf       	rjmp	.-30     	; 0x3818 <ClearFromCenter_GrowingSymmetric+0x14>
    3836:	df 91       	pop	r29
    3838:	cf 91       	pop	r28
    383a:	1f 91       	pop	r17
    383c:	0f 91       	pop	r16
    383e:	ff 90       	pop	r15
    3840:	08 95       	ret

00003842 <_write_barlevel>:
    3842:	0f 93       	push	r16
    3844:	28 2f       	mov	r18, r24
    3846:	30 e0       	ldi	r19, 0x00	; 0
    3848:	44 e2       	ldi	r20, 0x24	; 36
    384a:	84 9f       	mul	r24, r20
    384c:	c0 01       	movw	r24, r0
    384e:	11 24       	eor	r1, r1
    3850:	fc 01       	movw	r30, r24
    3852:	ee 59       	subi	r30, 0x9E	; 158
    3854:	f5 4f       	sbci	r31, 0xF5	; 245
    3856:	40 85       	ldd	r20, Z+8	; 0x08
    3858:	51 85       	ldd	r21, Z+9	; 0x09
    385a:	80 91 00 01 	lds	r24, 0x0100	; 0x800100 <__DATA_REGION_ORIGIN__>
    385e:	90 e0       	ldi	r25, 0x00	; 0
    3860:	48 17       	cp	r20, r24
    3862:	59 07       	cpc	r21, r25
    3864:	70 f1       	brcs	.+92     	; 0x38c2 <_write_barlevel+0x80>
    3866:	80 85       	ldd	r24, Z+8	; 0x08
    3868:	91 85       	ldd	r25, Z+9	; 0x09
    386a:	60 91 00 01 	lds	r22, 0x0100	; 0x800100 <__DATA_REGION_ORIGIN__>
    386e:	70 e0       	ldi	r23, 0x00	; 0
    3870:	0e 94 9e 51 	call	0xa33c	; 0xa33c <__udivmodhi4>
    3874:	89 2b       	or	r24, r25
    3876:	29 f5       	brne	.+74     	; 0x38c2 <_write_barlevel+0x80>
    3878:	80 85       	ldd	r24, Z+8	; 0x08
    387a:	91 85       	ldd	r25, Z+9	; 0x09
    387c:	60 91 00 01 	lds	r22, 0x0100	; 0x800100 <__DATA_REGION_ORIGIN__>
    3880:	70 e0       	ldi	r23, 0x00	; 0
    3882:	0e 94 9e 51 	call	0xa33c	; 0xa33c <__udivmodhi4>
    3886:	f9 01       	movw	r30, r18
    3888:	ee 0f       	add	r30, r30
    388a:	ff 1f       	adc	r31, r31
    388c:	e2 0f       	add	r30, r18
    388e:	f3 1f       	adc	r31, r19
    3890:	e0 5d       	subi	r30, 0xD0	; 208
    3892:	fd 4f       	sbci	r31, 0xFD	; 253
    3894:	66 83       	std	Z+6, r22	; 0x06
    3896:	86 81       	ldd	r24, Z+6	; 0x06
    3898:	81 50       	subi	r24, 0x01	; 1
    389a:	86 83       	std	Z+6, r24	; 0x06
    389c:	80 91 37 08 	lds	r24, 0x0837	; 0x800837 <ps_fading_inbk>
    38a0:	82 ff       	sbrs	r24, 2
    38a2:	0f c0       	rjmp	.+30     	; 0x38c2 <_write_barlevel+0x80>
    38a4:	60 91 01 01 	lds	r22, 0x0101	; 0x800101 <NUM_ELEM_DENTRO_BAR>
    38a8:	86 81       	ldd	r24, Z+6	; 0x06
    38aa:	61 5f       	subi	r22, 0xF1	; 241
    38ac:	68 1b       	sub	r22, r24
    38ae:	f9 01       	movw	r30, r18
    38b0:	e8 5b       	subi	r30, 0xB8	; 184
    38b2:	fd 4f       	sbci	r31, 0xFD	; 253
    38b4:	80 81       	ld	r24, Z
    38b6:	0f ef       	ldi	r16, 0xFF	; 255
    38b8:	20 e0       	ldi	r18, 0x00	; 0
    38ba:	46 e0       	ldi	r20, 0x06	; 6
    38bc:	8e 5f       	subi	r24, 0xFE	; 254
    38be:	0e 94 61 28 	call	0x50c2	; 0x50c2 <ks0108FillRect>
    38c2:	0f 91       	pop	r16
    38c4:	08 95       	ret

000038c6 <_erase_barlevel>:
    38c6:	0f 93       	push	r16
    38c8:	28 2f       	mov	r18, r24
    38ca:	30 e0       	ldi	r19, 0x00	; 0
    38cc:	94 e2       	ldi	r25, 0x24	; 36
    38ce:	89 9f       	mul	r24, r25
    38d0:	f0 01       	movw	r30, r0
    38d2:	11 24       	eor	r1, r1
    38d4:	ee 59       	subi	r30, 0x9E	; 158
    38d6:	f5 4f       	sbci	r31, 0xF5	; 245
    38d8:	80 85       	ldd	r24, Z+8	; 0x08
    38da:	91 85       	ldd	r25, Z+9	; 0x09
    38dc:	60 91 00 01 	lds	r22, 0x0100	; 0x800100 <__DATA_REGION_ORIGIN__>
    38e0:	70 e0       	ldi	r23, 0x00	; 0
    38e2:	0e 94 9e 51 	call	0xa33c	; 0xa33c <__udivmodhi4>
    38e6:	89 2b       	or	r24, r25
    38e8:	11 f5       	brne	.+68     	; 0x392e <_erase_barlevel+0x68>
    38ea:	80 85       	ldd	r24, Z+8	; 0x08
    38ec:	91 85       	ldd	r25, Z+9	; 0x09
    38ee:	60 91 00 01 	lds	r22, 0x0100	; 0x800100 <__DATA_REGION_ORIGIN__>
    38f2:	70 e0       	ldi	r23, 0x00	; 0
    38f4:	0e 94 9e 51 	call	0xa33c	; 0xa33c <__udivmodhi4>
    38f8:	f9 01       	movw	r30, r18
    38fa:	ee 0f       	add	r30, r30
    38fc:	ff 1f       	adc	r31, r31
    38fe:	e2 0f       	add	r30, r18
    3900:	f3 1f       	adc	r31, r19
    3902:	e0 5d       	subi	r30, 0xD0	; 208
    3904:	fd 4f       	sbci	r31, 0xFD	; 253
    3906:	66 83       	std	Z+6, r22	; 0x06
    3908:	80 91 37 08 	lds	r24, 0x0837	; 0x800837 <ps_fading_inbk>
    390c:	82 ff       	sbrs	r24, 2
    390e:	0f c0       	rjmp	.+30     	; 0x392e <_erase_barlevel+0x68>
    3910:	60 91 01 01 	lds	r22, 0x0101	; 0x800101 <NUM_ELEM_DENTRO_BAR>
    3914:	86 81       	ldd	r24, Z+6	; 0x06
    3916:	61 5f       	subi	r22, 0xF1	; 241
    3918:	68 1b       	sub	r22, r24
    391a:	f9 01       	movw	r30, r18
    391c:	e8 5b       	subi	r30, 0xB8	; 184
    391e:	fd 4f       	sbci	r31, 0xFD	; 253
    3920:	80 81       	ld	r24, Z
    3922:	00 e0       	ldi	r16, 0x00	; 0
    3924:	20 e0       	ldi	r18, 0x00	; 0
    3926:	46 e0       	ldi	r20, 0x06	; 6
    3928:	8e 5f       	subi	r24, 0xFE	; 254
    392a:	0e 94 61 28 	call	0x50c2	; 0x50c2 <ks0108FillRect>
    392e:	0f 91       	pop	r16
    3930:	08 95       	ret

00003932 <_check_consistencia_barlevel>:
    3932:	0f 93       	push	r16
    3934:	90 e0       	ldi	r25, 0x00	; 0
    3936:	fc 01       	movw	r30, r24
    3938:	ee 0f       	add	r30, r30
    393a:	ff 1f       	adc	r31, r31
    393c:	e8 0f       	add	r30, r24
    393e:	f9 1f       	adc	r31, r25
    3940:	df 01       	movw	r26, r30
    3942:	a8 5c       	subi	r26, 0xC8	; 200
    3944:	bd 4f       	sbci	r27, 0xFD	; 253
    3946:	2c 91       	ld	r18, X
    3948:	20 ff       	sbrs	r18, 0
    394a:	20 c0       	rjmp	.+64     	; 0x398c <_check_consistencia_barlevel+0x5a>
    394c:	2c 91       	ld	r18, X
    394e:	2e 7f       	andi	r18, 0xFE	; 254
    3950:	2c 93       	st	X, r18
    3952:	e0 5d       	subi	r30, 0xD0	; 208
    3954:	fd 4f       	sbci	r31, 0xFD	; 253
    3956:	37 81       	ldd	r19, Z+7	; 0x07
    3958:	26 81       	ldd	r18, Z+6	; 0x06
    395a:	32 17       	cp	r19, r18
    395c:	b9 f0       	breq	.+46     	; 0x398c <_check_consistencia_barlevel+0x5a>
    395e:	36 81       	ldd	r19, Z+6	; 0x06
    3960:	27 81       	ldd	r18, Z+7	; 0x07
    3962:	23 17       	cp	r18, r19
    3964:	98 f4       	brcc	.+38     	; 0x398c <_check_consistencia_barlevel+0x5a>
    3966:	20 91 37 08 	lds	r18, 0x0837	; 0x800837 <ps_fading_inbk>
    396a:	22 ff       	sbrs	r18, 2
    396c:	0f c0       	rjmp	.+30     	; 0x398c <_check_consistencia_barlevel+0x5a>
    396e:	60 91 01 01 	lds	r22, 0x0101	; 0x800101 <NUM_ELEM_DENTRO_BAR>
    3972:	27 81       	ldd	r18, Z+7	; 0x07
    3974:	62 5f       	subi	r22, 0xF2	; 242
    3976:	62 1b       	sub	r22, r18
    3978:	fc 01       	movw	r30, r24
    397a:	e8 5b       	subi	r30, 0xB8	; 184
    397c:	fd 4f       	sbci	r31, 0xFD	; 253
    397e:	80 81       	ld	r24, Z
    3980:	00 e0       	ldi	r16, 0x00	; 0
    3982:	20 e0       	ldi	r18, 0x00	; 0
    3984:	46 e0       	ldi	r20, 0x06	; 6
    3986:	8e 5f       	subi	r24, 0xFE	; 254
    3988:	0e 94 61 28 	call	0x50c2	; 0x50c2 <ks0108FillRect>
    398c:	0f 91       	pop	r16
    398e:	08 95       	ret

00003990 <DrawBarsVertOfAllZones>:
    3990:	0f 93       	push	r16
    3992:	20 91 01 01 	lds	r18, 0x0101	; 0x800101 <NUM_ELEM_DENTRO_BAR>
    3996:	2d 5f       	subi	r18, 0xFD	; 253
    3998:	0f ef       	ldi	r16, 0xFF	; 255
    399a:	4a e0       	ldi	r20, 0x0A	; 10
    399c:	6e e0       	ldi	r22, 0x0E	; 14
    399e:	89 e4       	ldi	r24, 0x49	; 73
    39a0:	0e 94 f4 28 	call	0x51e8	; 0x51e8 <ks0108DrawRect>
    39a4:	20 91 01 01 	lds	r18, 0x0101	; 0x800101 <NUM_ELEM_DENTRO_BAR>
    39a8:	2d 5f       	subi	r18, 0xFD	; 253
    39aa:	4a e0       	ldi	r20, 0x0A	; 10
    39ac:	6e e0       	ldi	r22, 0x0E	; 14
    39ae:	8d e5       	ldi	r24, 0x5D	; 93
    39b0:	0e 94 f4 28 	call	0x51e8	; 0x51e8 <ks0108DrawRect>
    39b4:	20 91 01 01 	lds	r18, 0x0101	; 0x800101 <NUM_ELEM_DENTRO_BAR>
    39b8:	2d 5f       	subi	r18, 0xFD	; 253
    39ba:	4a e0       	ldi	r20, 0x0A	; 10
    39bc:	6e e0       	ldi	r22, 0x0E	; 14
    39be:	81 e7       	ldi	r24, 0x71	; 113
    39c0:	0e 94 f4 28 	call	0x51e8	; 0x51e8 <ks0108DrawRect>
    39c4:	20 91 01 01 	lds	r18, 0x0101	; 0x800101 <NUM_ELEM_DENTRO_BAR>
    39c8:	2d 5f       	subi	r18, 0xFD	; 253
    39ca:	4a e0       	ldi	r20, 0x0A	; 10
    39cc:	6e e0       	ldi	r22, 0x0E	; 14
    39ce:	85 e8       	ldi	r24, 0x85	; 133
    39d0:	0e 94 f4 28 	call	0x51e8	; 0x51e8 <ks0108DrawRect>
    39d4:	20 91 01 01 	lds	r18, 0x0101	; 0x800101 <NUM_ELEM_DENTRO_BAR>
    39d8:	2d 5f       	subi	r18, 0xFD	; 253
    39da:	4a e0       	ldi	r20, 0x0A	; 10
    39dc:	6e e0       	ldi	r22, 0x0E	; 14
    39de:	89 e9       	ldi	r24, 0x99	; 153
    39e0:	0e 94 f4 28 	call	0x51e8	; 0x51e8 <ks0108DrawRect>
    39e4:	20 91 01 01 	lds	r18, 0x0101	; 0x800101 <NUM_ELEM_DENTRO_BAR>
    39e8:	2d 5f       	subi	r18, 0xFD	; 253
    39ea:	4a e0       	ldi	r20, 0x0A	; 10
    39ec:	6e e0       	ldi	r22, 0x0E	; 14
    39ee:	8d ea       	ldi	r24, 0xAD	; 173
    39f0:	0e 94 f4 28 	call	0x51e8	; 0x51e8 <ks0108DrawRect>
    39f4:	0f 91       	pop	r16
    39f6:	08 95       	ret

000039f8 <CaptionOfAllZones>:
    39f8:	4f ef       	ldi	r20, 0xFF	; 255
    39fa:	64 e4       	ldi	r22, 0x44	; 68
    39fc:	75 e2       	ldi	r23, 0x25	; 37
    39fe:	86 e0       	ldi	r24, 0x06	; 6
    3a00:	90 e1       	ldi	r25, 0x10	; 16
    3a02:	0e 94 47 25 	call	0x4a8e	; 0x4a8e <ks0108SelectFont>
    3a06:	62 e0       	ldi	r22, 0x02	; 2
    3a08:	89 e4       	ldi	r24, 0x49	; 73
    3a0a:	0e 94 da 25 	call	0x4bb4	; 0x4bb4 <ks0108GotoXY>
    3a0e:	8f ec       	ldi	r24, 0xCF	; 207
    3a10:	9a e0       	ldi	r25, 0x0A	; 10
    3a12:	0e 94 11 2c 	call	0x5822	; 0x5822 <ks0108Puts_P>
    3a16:	62 e0       	ldi	r22, 0x02	; 2
    3a18:	8d e5       	ldi	r24, 0x5D	; 93
    3a1a:	0e 94 da 25 	call	0x4bb4	; 0x4bb4 <ks0108GotoXY>
    3a1e:	8c ec       	ldi	r24, 0xCC	; 204
    3a20:	9a e0       	ldi	r25, 0x0A	; 10
    3a22:	0e 94 11 2c 	call	0x5822	; 0x5822 <ks0108Puts_P>
    3a26:	62 e0       	ldi	r22, 0x02	; 2
    3a28:	81 e7       	ldi	r24, 0x71	; 113
    3a2a:	0e 94 da 25 	call	0x4bb4	; 0x4bb4 <ks0108GotoXY>
    3a2e:	89 ec       	ldi	r24, 0xC9	; 201
    3a30:	9a e0       	ldi	r25, 0x0A	; 10
    3a32:	0e 94 11 2c 	call	0x5822	; 0x5822 <ks0108Puts_P>
    3a36:	62 e0       	ldi	r22, 0x02	; 2
    3a38:	85 e8       	ldi	r24, 0x85	; 133
    3a3a:	0e 94 da 25 	call	0x4bb4	; 0x4bb4 <ks0108GotoXY>
    3a3e:	86 ec       	ldi	r24, 0xC6	; 198
    3a40:	9a e0       	ldi	r25, 0x0A	; 10
    3a42:	0e 94 11 2c 	call	0x5822	; 0x5822 <ks0108Puts_P>
    3a46:	62 e0       	ldi	r22, 0x02	; 2
    3a48:	89 e9       	ldi	r24, 0x99	; 153
    3a4a:	0e 94 da 25 	call	0x4bb4	; 0x4bb4 <ks0108GotoXY>
    3a4e:	83 ec       	ldi	r24, 0xC3	; 195
    3a50:	9a e0       	ldi	r25, 0x0A	; 10
    3a52:	0e 94 11 2c 	call	0x5822	; 0x5822 <ks0108Puts_P>
    3a56:	62 e0       	ldi	r22, 0x02	; 2
    3a58:	8d ea       	ldi	r24, 0xAD	; 173
    3a5a:	0e 94 da 25 	call	0x4bb4	; 0x4bb4 <ks0108GotoXY>
    3a5e:	80 ec       	ldi	r24, 0xC0	; 192
    3a60:	9a e0       	ldi	r25, 0x0A	; 10
    3a62:	0c 94 11 2c 	jmp	0x5822	; 0x5822 <ks0108Puts_P>

00003a66 <window_Aviso>:
    3a66:	ef 92       	push	r14
    3a68:	0f 93       	push	r16
    3a6a:	1f 93       	push	r17
    3a6c:	cf 93       	push	r28
    3a6e:	df 93       	push	r29
    3a70:	d8 2f       	mov	r29, r24
    3a72:	c6 2f       	mov	r28, r22
    3a74:	ee 24       	eor	r14, r14
    3a76:	ea 94       	dec	r14
    3a78:	03 e0       	ldi	r16, 0x03	; 3
    3a7a:	2b e3       	ldi	r18, 0x3B	; 59
    3a7c:	4b e3       	ldi	r20, 0x3B	; 59
    3a7e:	0e 94 0e 2a 	call	0x541c	; 0x541c <ks0108DrawRoundRect>
    3a82:	11 e0       	ldi	r17, 0x01	; 1
    3a84:	1c 0f       	add	r17, r28
    3a86:	02 e0       	ldi	r16, 0x02	; 2
    3a88:	29 e3       	ldi	r18, 0x39	; 57
    3a8a:	49 e3       	ldi	r20, 0x39	; 57
    3a8c:	61 2f       	mov	r22, r17
    3a8e:	81 e0       	ldi	r24, 0x01	; 1
    3a90:	8d 0f       	add	r24, r29
    3a92:	0e 94 0e 2a 	call	0x541c	; 0x541c <ks0108DrawRoundRect>
    3a96:	4f ef       	ldi	r20, 0xFF	; 255
    3a98:	64 e4       	ldi	r22, 0x44	; 68
    3a9a:	75 e2       	ldi	r23, 0x25	; 37
    3a9c:	86 e0       	ldi	r24, 0x06	; 6
    3a9e:	90 e1       	ldi	r25, 0x10	; 16
    3aa0:	0e 94 47 25 	call	0x4a8e	; 0x4a8e <ks0108SelectFont>
    3aa4:	61 2f       	mov	r22, r17
    3aa6:	8f e0       	ldi	r24, 0x0F	; 15
    3aa8:	8d 0f       	add	r24, r29
    3aaa:	0e 94 da 25 	call	0x4bb4	; 0x4bb4 <ks0108GotoXY>
    3aae:	8a eb       	ldi	r24, 0xBA	; 186
    3ab0:	9a e0       	ldi	r25, 0x0A	; 10
    3ab2:	0e 94 11 2c 	call	0x5822	; 0x5822 <ks0108Puts_P>
    3ab6:	62 e0       	ldi	r22, 0x02	; 2
    3ab8:	6c 0f       	add	r22, r28
    3aba:	2a e0       	ldi	r18, 0x0A	; 10
    3abc:	47 e3       	ldi	r20, 0x37	; 55
    3abe:	82 e0       	ldi	r24, 0x02	; 2
    3ac0:	8d 0f       	add	r24, r29
    3ac2:	df 91       	pop	r29
    3ac4:	cf 91       	pop	r28
    3ac6:	1f 91       	pop	r17
    3ac8:	0f 91       	pop	r16
    3aca:	ef 90       	pop	r14
    3acc:	0c 94 57 29 	jmp	0x52ae	; 0x52ae <ks0108InvertRect>

00003ad0 <_DrawOnOffState>:
    3ad0:	ef 92       	push	r14
    3ad2:	0f 93       	push	r16
    3ad4:	1f 93       	push	r17
    3ad6:	cf 93       	push	r28
    3ad8:	df 93       	push	r29
    3ada:	c8 2f       	mov	r28, r24
    3adc:	d6 2f       	mov	r29, r22
    3ade:	11 e0       	ldi	r17, 0x01	; 1
    3ae0:	16 0f       	add	r17, r22
    3ae2:	ee 24       	eor	r14, r14
    3ae4:	ea 94       	dec	r14
    3ae6:	03 e0       	ldi	r16, 0x03	; 3
    3ae8:	26 e0       	ldi	r18, 0x06	; 6
    3aea:	46 e0       	ldi	r20, 0x06	; 6
    3aec:	61 2f       	mov	r22, r17
    3aee:	8d ef       	ldi	r24, 0xFD	; 253
    3af0:	8c 0f       	add	r24, r28
    3af2:	0e 94 0e 2a 	call	0x541c	; 0x541c <ks0108DrawRoundRect>
    3af6:	00 e0       	ldi	r16, 0x00	; 0
    3af8:	20 e0       	ldi	r18, 0x00	; 0
    3afa:	42 e0       	ldi	r20, 0x02	; 2
    3afc:	61 2f       	mov	r22, r17
    3afe:	8f ef       	ldi	r24, 0xFF	; 255
    3b00:	8c 0f       	add	r24, r28
    3b02:	0e 94 61 28 	call	0x50c2	; 0x50c2 <ks0108FillRect>
    3b06:	0f ef       	ldi	r16, 0xFF	; 255
    3b08:	23 e0       	ldi	r18, 0x03	; 3
    3b0a:	40 e0       	ldi	r20, 0x00	; 0
    3b0c:	6d 2f       	mov	r22, r29
    3b0e:	8c 2f       	mov	r24, r28
    3b10:	0e 94 61 28 	call	0x50c2	; 0x50c2 <ks0108FillRect>
    3b14:	df 91       	pop	r29
    3b16:	cf 91       	pop	r28
    3b18:	1f 91       	pop	r17
    3b1a:	0f 91       	pop	r16
    3b1c:	ef 90       	pop	r14
    3b1e:	08 95       	ret

00003b20 <_DrawUpTriangleState>:
    3b20:	0f 93       	push	r16
    3b22:	cf 93       	push	r28
    3b24:	df 93       	push	r29
    3b26:	d8 2f       	mov	r29, r24
    3b28:	c6 2f       	mov	r28, r22
    3b2a:	4f ef       	ldi	r20, 0xFF	; 255
    3b2c:	0e 94 f0 29 	call	0x53e0	; 0x53e0 <ks0108SetDot>
    3b30:	61 e0       	ldi	r22, 0x01	; 1
    3b32:	6c 0f       	add	r22, r28
    3b34:	0f ef       	ldi	r16, 0xFF	; 255
    3b36:	20 e0       	ldi	r18, 0x00	; 0
    3b38:	42 e0       	ldi	r20, 0x02	; 2
    3b3a:	8f ef       	ldi	r24, 0xFF	; 255
    3b3c:	8d 0f       	add	r24, r29
    3b3e:	0e 94 61 28 	call	0x50c2	; 0x50c2 <ks0108FillRect>
    3b42:	62 e0       	ldi	r22, 0x02	; 2
    3b44:	6c 0f       	add	r22, r28
    3b46:	20 e0       	ldi	r18, 0x00	; 0
    3b48:	44 e0       	ldi	r20, 0x04	; 4
    3b4a:	8e ef       	ldi	r24, 0xFE	; 254
    3b4c:	8d 0f       	add	r24, r29
    3b4e:	0e 94 61 28 	call	0x50c2	; 0x50c2 <ks0108FillRect>
    3b52:	63 e0       	ldi	r22, 0x03	; 3
    3b54:	6c 0f       	add	r22, r28
    3b56:	20 e0       	ldi	r18, 0x00	; 0
    3b58:	46 e0       	ldi	r20, 0x06	; 6
    3b5a:	8d ef       	ldi	r24, 0xFD	; 253
    3b5c:	8d 0f       	add	r24, r29
    3b5e:	0e 94 61 28 	call	0x50c2	; 0x50c2 <ks0108FillRect>
    3b62:	64 e0       	ldi	r22, 0x04	; 4
    3b64:	6c 0f       	add	r22, r28
    3b66:	20 e0       	ldi	r18, 0x00	; 0
    3b68:	48 e0       	ldi	r20, 0x08	; 8
    3b6a:	8c ef       	ldi	r24, 0xFC	; 252
    3b6c:	8d 0f       	add	r24, r29
    3b6e:	0e 94 61 28 	call	0x50c2	; 0x50c2 <ks0108FillRect>
    3b72:	df 91       	pop	r29
    3b74:	cf 91       	pop	r28
    3b76:	0f 91       	pop	r16
    3b78:	08 95       	ret

00003b7a <_DrawDownTriangleState>:
    3b7a:	0f 93       	push	r16
    3b7c:	cf 93       	push	r28
    3b7e:	df 93       	push	r29
    3b80:	d8 2f       	mov	r29, r24
    3b82:	c6 2f       	mov	r28, r22
    3b84:	0f ef       	ldi	r16, 0xFF	; 255
    3b86:	20 e0       	ldi	r18, 0x00	; 0
    3b88:	48 e0       	ldi	r20, 0x08	; 8
    3b8a:	0e 94 61 28 	call	0x50c2	; 0x50c2 <ks0108FillRect>
    3b8e:	61 e0       	ldi	r22, 0x01	; 1
    3b90:	6c 0f       	add	r22, r28
    3b92:	20 e0       	ldi	r18, 0x00	; 0
    3b94:	46 e0       	ldi	r20, 0x06	; 6
    3b96:	81 e0       	ldi	r24, 0x01	; 1
    3b98:	8d 0f       	add	r24, r29
    3b9a:	0e 94 61 28 	call	0x50c2	; 0x50c2 <ks0108FillRect>
    3b9e:	62 e0       	ldi	r22, 0x02	; 2
    3ba0:	6c 0f       	add	r22, r28
    3ba2:	20 e0       	ldi	r18, 0x00	; 0
    3ba4:	44 e0       	ldi	r20, 0x04	; 4
    3ba6:	82 e0       	ldi	r24, 0x02	; 2
    3ba8:	8d 0f       	add	r24, r29
    3baa:	0e 94 61 28 	call	0x50c2	; 0x50c2 <ks0108FillRect>
    3bae:	63 e0       	ldi	r22, 0x03	; 3
    3bb0:	6c 0f       	add	r22, r28
    3bb2:	20 e0       	ldi	r18, 0x00	; 0
    3bb4:	42 e0       	ldi	r20, 0x02	; 2
    3bb6:	83 e0       	ldi	r24, 0x03	; 3
    3bb8:	8d 0f       	add	r24, r29
    3bba:	0e 94 61 28 	call	0x50c2	; 0x50c2 <ks0108FillRect>
    3bbe:	64 e0       	ldi	r22, 0x04	; 4
    3bc0:	6c 0f       	add	r22, r28
    3bc2:	4f ef       	ldi	r20, 0xFF	; 255
    3bc4:	84 e0       	ldi	r24, 0x04	; 4
    3bc6:	8d 0f       	add	r24, r29
    3bc8:	df 91       	pop	r29
    3bca:	cf 91       	pop	r28
    3bcc:	0f 91       	pop	r16
    3bce:	0c 94 f0 29 	jmp	0x53e0	; 0x53e0 <ks0108SetDot>

00003bd2 <_draw_triangle_left>:
    3bd2:	0f 93       	push	r16
    3bd4:	cf 93       	push	r28
    3bd6:	df 93       	push	r29
    3bd8:	d8 2f       	mov	r29, r24
    3bda:	c6 2f       	mov	r28, r22
    3bdc:	4f ef       	ldi	r20, 0xFF	; 255
    3bde:	0e 94 f0 29 	call	0x53e0	; 0x53e0 <ks0108SetDot>
    3be2:	6f ef       	ldi	r22, 0xFF	; 255
    3be4:	6c 0f       	add	r22, r28
    3be6:	0f ef       	ldi	r16, 0xFF	; 255
    3be8:	22 e0       	ldi	r18, 0x02	; 2
    3bea:	40 e0       	ldi	r20, 0x00	; 0
    3bec:	81 e0       	ldi	r24, 0x01	; 1
    3bee:	8d 0f       	add	r24, r29
    3bf0:	0e 94 61 28 	call	0x50c2	; 0x50c2 <ks0108FillRect>
    3bf4:	6e ef       	ldi	r22, 0xFE	; 254
    3bf6:	6c 0f       	add	r22, r28
    3bf8:	24 e0       	ldi	r18, 0x04	; 4
    3bfa:	40 e0       	ldi	r20, 0x00	; 0
    3bfc:	82 e0       	ldi	r24, 0x02	; 2
    3bfe:	8d 0f       	add	r24, r29
    3c00:	0e 94 61 28 	call	0x50c2	; 0x50c2 <ks0108FillRect>
    3c04:	6d ef       	ldi	r22, 0xFD	; 253
    3c06:	6c 0f       	add	r22, r28
    3c08:	26 e0       	ldi	r18, 0x06	; 6
    3c0a:	40 e0       	ldi	r20, 0x00	; 0
    3c0c:	83 e0       	ldi	r24, 0x03	; 3
    3c0e:	8d 0f       	add	r24, r29
    3c10:	0e 94 61 28 	call	0x50c2	; 0x50c2 <ks0108FillRect>
    3c14:	6c ef       	ldi	r22, 0xFC	; 252
    3c16:	6c 0f       	add	r22, r28
    3c18:	28 e0       	ldi	r18, 0x08	; 8
    3c1a:	40 e0       	ldi	r20, 0x00	; 0
    3c1c:	84 e0       	ldi	r24, 0x04	; 4
    3c1e:	8d 0f       	add	r24, r29
    3c20:	0e 94 61 28 	call	0x50c2	; 0x50c2 <ks0108FillRect>
    3c24:	6b ef       	ldi	r22, 0xFB	; 251
    3c26:	6c 0f       	add	r22, r28
    3c28:	2a e0       	ldi	r18, 0x0A	; 10
    3c2a:	40 e0       	ldi	r20, 0x00	; 0
    3c2c:	85 e0       	ldi	r24, 0x05	; 5
    3c2e:	8d 0f       	add	r24, r29
    3c30:	0e 94 61 28 	call	0x50c2	; 0x50c2 <ks0108FillRect>
    3c34:	df 91       	pop	r29
    3c36:	cf 91       	pop	r28
    3c38:	0f 91       	pop	r16
    3c3a:	08 95       	ret

00003c3c <_draw_triangle_rigth>:
    3c3c:	0f 93       	push	r16
    3c3e:	cf 93       	push	r28
    3c40:	df 93       	push	r29
    3c42:	c8 2f       	mov	r28, r24
    3c44:	d6 2f       	mov	r29, r22
    3c46:	6b ef       	ldi	r22, 0xFB	; 251
    3c48:	6d 0f       	add	r22, r29
    3c4a:	0f ef       	ldi	r16, 0xFF	; 255
    3c4c:	2a e0       	ldi	r18, 0x0A	; 10
    3c4e:	40 e0       	ldi	r20, 0x00	; 0
    3c50:	8b ef       	ldi	r24, 0xFB	; 251
    3c52:	8c 0f       	add	r24, r28
    3c54:	0e 94 61 28 	call	0x50c2	; 0x50c2 <ks0108FillRect>
    3c58:	6c ef       	ldi	r22, 0xFC	; 252
    3c5a:	6d 0f       	add	r22, r29
    3c5c:	28 e0       	ldi	r18, 0x08	; 8
    3c5e:	40 e0       	ldi	r20, 0x00	; 0
    3c60:	8c ef       	ldi	r24, 0xFC	; 252
    3c62:	8c 0f       	add	r24, r28
    3c64:	0e 94 61 28 	call	0x50c2	; 0x50c2 <ks0108FillRect>
    3c68:	6d ef       	ldi	r22, 0xFD	; 253
    3c6a:	6d 0f       	add	r22, r29
    3c6c:	26 e0       	ldi	r18, 0x06	; 6
    3c6e:	40 e0       	ldi	r20, 0x00	; 0
    3c70:	8d ef       	ldi	r24, 0xFD	; 253
    3c72:	8c 0f       	add	r24, r28
    3c74:	0e 94 61 28 	call	0x50c2	; 0x50c2 <ks0108FillRect>
    3c78:	6e ef       	ldi	r22, 0xFE	; 254
    3c7a:	6d 0f       	add	r22, r29
    3c7c:	24 e0       	ldi	r18, 0x04	; 4
    3c7e:	40 e0       	ldi	r20, 0x00	; 0
    3c80:	8e ef       	ldi	r24, 0xFE	; 254
    3c82:	8c 0f       	add	r24, r28
    3c84:	0e 94 61 28 	call	0x50c2	; 0x50c2 <ks0108FillRect>
    3c88:	6f ef       	ldi	r22, 0xFF	; 255
    3c8a:	6d 0f       	add	r22, r29
    3c8c:	22 e0       	ldi	r18, 0x02	; 2
    3c8e:	40 e0       	ldi	r20, 0x00	; 0
    3c90:	8f ef       	ldi	r24, 0xFF	; 255
    3c92:	8c 0f       	add	r24, r28
    3c94:	0e 94 61 28 	call	0x50c2	; 0x50c2 <ks0108FillRect>
    3c98:	4f ef       	ldi	r20, 0xFF	; 255
    3c9a:	6d 2f       	mov	r22, r29
    3c9c:	8c 2f       	mov	r24, r28
    3c9e:	df 91       	pop	r29
    3ca0:	cf 91       	pop	r28
    3ca2:	0f 91       	pop	r16
    3ca4:	0c 94 f0 29 	jmp	0x53e0	; 0x53e0 <ks0108SetDot>

00003ca8 <_draw_triangle_left_solid_black>:
    3ca8:	0f 93       	push	r16
    3caa:	cf 93       	push	r28
    3cac:	df 93       	push	r29
    3cae:	d8 2f       	mov	r29, r24
    3cb0:	c6 2f       	mov	r28, r22
    3cb2:	4f ef       	ldi	r20, 0xFF	; 255
    3cb4:	81 e0       	ldi	r24, 0x01	; 1
    3cb6:	8d 0f       	add	r24, r29
    3cb8:	0e 94 f0 29 	call	0x53e0	; 0x53e0 <ks0108SetDot>
    3cbc:	6f ef       	ldi	r22, 0xFF	; 255
    3cbe:	6c 0f       	add	r22, r28
    3cc0:	0f ef       	ldi	r16, 0xFF	; 255
    3cc2:	22 e0       	ldi	r18, 0x02	; 2
    3cc4:	40 e0       	ldi	r20, 0x00	; 0
    3cc6:	82 e0       	ldi	r24, 0x02	; 2
    3cc8:	8d 0f       	add	r24, r29
    3cca:	0e 94 61 28 	call	0x50c2	; 0x50c2 <ks0108FillRect>
    3cce:	6e ef       	ldi	r22, 0xFE	; 254
    3cd0:	6c 0f       	add	r22, r28
    3cd2:	24 e0       	ldi	r18, 0x04	; 4
    3cd4:	40 e0       	ldi	r20, 0x00	; 0
    3cd6:	83 e0       	ldi	r24, 0x03	; 3
    3cd8:	8d 0f       	add	r24, r29
    3cda:	0e 94 61 28 	call	0x50c2	; 0x50c2 <ks0108FillRect>
    3cde:	6d ef       	ldi	r22, 0xFD	; 253
    3ce0:	6c 0f       	add	r22, r28
    3ce2:	26 e0       	ldi	r18, 0x06	; 6
    3ce4:	40 e0       	ldi	r20, 0x00	; 0
    3ce6:	84 e0       	ldi	r24, 0x04	; 4
    3ce8:	8d 0f       	add	r24, r29
    3cea:	0e 94 61 28 	call	0x50c2	; 0x50c2 <ks0108FillRect>
    3cee:	df 91       	pop	r29
    3cf0:	cf 91       	pop	r28
    3cf2:	0f 91       	pop	r16
    3cf4:	08 95       	ret

00003cf6 <_draw_triangle_rigth_solid_black>:
    3cf6:	0f 93       	push	r16
    3cf8:	cf 93       	push	r28
    3cfa:	df 93       	push	r29
    3cfc:	d8 2f       	mov	r29, r24
    3cfe:	c6 2f       	mov	r28, r22
    3d00:	4f ef       	ldi	r20, 0xFF	; 255
    3d02:	8f ef       	ldi	r24, 0xFF	; 255
    3d04:	8d 0f       	add	r24, r29
    3d06:	0e 94 f0 29 	call	0x53e0	; 0x53e0 <ks0108SetDot>
    3d0a:	6f ef       	ldi	r22, 0xFF	; 255
    3d0c:	6c 0f       	add	r22, r28
    3d0e:	0f ef       	ldi	r16, 0xFF	; 255
    3d10:	22 e0       	ldi	r18, 0x02	; 2
    3d12:	40 e0       	ldi	r20, 0x00	; 0
    3d14:	8e ef       	ldi	r24, 0xFE	; 254
    3d16:	8d 0f       	add	r24, r29
    3d18:	0e 94 61 28 	call	0x50c2	; 0x50c2 <ks0108FillRect>
    3d1c:	6e ef       	ldi	r22, 0xFE	; 254
    3d1e:	6c 0f       	add	r22, r28
    3d20:	24 e0       	ldi	r18, 0x04	; 4
    3d22:	40 e0       	ldi	r20, 0x00	; 0
    3d24:	8d ef       	ldi	r24, 0xFD	; 253
    3d26:	8d 0f       	add	r24, r29
    3d28:	0e 94 61 28 	call	0x50c2	; 0x50c2 <ks0108FillRect>
    3d2c:	6d ef       	ldi	r22, 0xFD	; 253
    3d2e:	6c 0f       	add	r22, r28
    3d30:	26 e0       	ldi	r18, 0x06	; 6
    3d32:	40 e0       	ldi	r20, 0x00	; 0
    3d34:	8c ef       	ldi	r24, 0xFC	; 252
    3d36:	8d 0f       	add	r24, r29
    3d38:	0e 94 61 28 	call	0x50c2	; 0x50c2 <ks0108FillRect>
    3d3c:	df 91       	pop	r29
    3d3e:	cf 91       	pop	r28
    3d40:	0f 91       	pop	r16
    3d42:	08 95       	ret

00003d44 <_draw_triangle_left_solid_white>:
    3d44:	0f 93       	push	r16
    3d46:	cf 93       	push	r28
    3d48:	df 93       	push	r29
    3d4a:	d8 2f       	mov	r29, r24
    3d4c:	c6 2f       	mov	r28, r22
    3d4e:	40 e0       	ldi	r20, 0x00	; 0
    3d50:	81 e0       	ldi	r24, 0x01	; 1
    3d52:	8d 0f       	add	r24, r29
    3d54:	0e 94 f0 29 	call	0x53e0	; 0x53e0 <ks0108SetDot>
    3d58:	6f ef       	ldi	r22, 0xFF	; 255
    3d5a:	6c 0f       	add	r22, r28
    3d5c:	00 e0       	ldi	r16, 0x00	; 0
    3d5e:	22 e0       	ldi	r18, 0x02	; 2
    3d60:	40 e0       	ldi	r20, 0x00	; 0
    3d62:	82 e0       	ldi	r24, 0x02	; 2
    3d64:	8d 0f       	add	r24, r29
    3d66:	0e 94 61 28 	call	0x50c2	; 0x50c2 <ks0108FillRect>
    3d6a:	6e ef       	ldi	r22, 0xFE	; 254
    3d6c:	6c 0f       	add	r22, r28
    3d6e:	24 e0       	ldi	r18, 0x04	; 4
    3d70:	40 e0       	ldi	r20, 0x00	; 0
    3d72:	83 e0       	ldi	r24, 0x03	; 3
    3d74:	8d 0f       	add	r24, r29
    3d76:	0e 94 61 28 	call	0x50c2	; 0x50c2 <ks0108FillRect>
    3d7a:	6d ef       	ldi	r22, 0xFD	; 253
    3d7c:	6c 0f       	add	r22, r28
    3d7e:	26 e0       	ldi	r18, 0x06	; 6
    3d80:	40 e0       	ldi	r20, 0x00	; 0
    3d82:	84 e0       	ldi	r24, 0x04	; 4
    3d84:	8d 0f       	add	r24, r29
    3d86:	0e 94 61 28 	call	0x50c2	; 0x50c2 <ks0108FillRect>
    3d8a:	df 91       	pop	r29
    3d8c:	cf 91       	pop	r28
    3d8e:	0f 91       	pop	r16
    3d90:	08 95       	ret

00003d92 <_draw_triangle_rigth_solid_white>:
    3d92:	0f 93       	push	r16
    3d94:	cf 93       	push	r28
    3d96:	df 93       	push	r29
    3d98:	d8 2f       	mov	r29, r24
    3d9a:	c6 2f       	mov	r28, r22
    3d9c:	40 e0       	ldi	r20, 0x00	; 0
    3d9e:	8f ef       	ldi	r24, 0xFF	; 255
    3da0:	8d 0f       	add	r24, r29
    3da2:	0e 94 f0 29 	call	0x53e0	; 0x53e0 <ks0108SetDot>
    3da6:	6f ef       	ldi	r22, 0xFF	; 255
    3da8:	6c 0f       	add	r22, r28
    3daa:	00 e0       	ldi	r16, 0x00	; 0
    3dac:	22 e0       	ldi	r18, 0x02	; 2
    3dae:	40 e0       	ldi	r20, 0x00	; 0
    3db0:	8e ef       	ldi	r24, 0xFE	; 254
    3db2:	8d 0f       	add	r24, r29
    3db4:	0e 94 61 28 	call	0x50c2	; 0x50c2 <ks0108FillRect>
    3db8:	6e ef       	ldi	r22, 0xFE	; 254
    3dba:	6c 0f       	add	r22, r28
    3dbc:	24 e0       	ldi	r18, 0x04	; 4
    3dbe:	40 e0       	ldi	r20, 0x00	; 0
    3dc0:	8d ef       	ldi	r24, 0xFD	; 253
    3dc2:	8d 0f       	add	r24, r29
    3dc4:	0e 94 61 28 	call	0x50c2	; 0x50c2 <ks0108FillRect>
    3dc8:	6d ef       	ldi	r22, 0xFD	; 253
    3dca:	6c 0f       	add	r22, r28
    3dcc:	26 e0       	ldi	r18, 0x06	; 6
    3dce:	40 e0       	ldi	r20, 0x00	; 0
    3dd0:	8c ef       	ldi	r24, 0xFC	; 252
    3dd2:	8d 0f       	add	r24, r29
    3dd4:	0e 94 61 28 	call	0x50c2	; 0x50c2 <ks0108FillRect>
    3dd8:	df 91       	pop	r29
    3dda:	cf 91       	pop	r28
    3ddc:	0f 91       	pop	r16
    3dde:	08 95       	ret

00003de0 <preview_dc_barlevel>:
    3de0:	cf 92       	push	r12
    3de2:	df 92       	push	r13
    3de4:	ef 92       	push	r14
    3de6:	ff 92       	push	r15
    3de8:	0f 93       	push	r16
    3dea:	1f 93       	push	r17
    3dec:	cf 93       	push	r28
    3dee:	df 93       	push	r29
    3df0:	28 2f       	mov	r18, r24
    3df2:	cb 01       	movw	r24, r22
    3df4:	40 91 00 01 	lds	r20, 0x0100	; 0x800100 <__DATA_REGION_ORIGIN__>
    3df8:	64 2f       	mov	r22, r20
    3dfa:	70 e0       	ldi	r23, 0x00	; 0
    3dfc:	0e 94 9e 51 	call	0xa33c	; 0xa33c <__udivmodhi4>
    3e00:	d6 2e       	mov	r13, r22
    3e02:	66 23       	and	r22, r22
    3e04:	09 f4       	brne	.+2      	; 0x3e08 <preview_dc_barlevel+0x28>
    3e06:	4a c0       	rjmp	.+148    	; 0x3e9c <preview_dc_barlevel+0xbc>
    3e08:	80 91 01 01 	lds	r24, 0x0101	; 0x800101 <NUM_ELEM_DENTRO_BAR>
    3e0c:	80 5f       	subi	r24, 0xF0	; 240
    3e0e:	f8 2e       	mov	r15, r24
    3e10:	f6 1a       	sub	r15, r22
    3e12:	82 2f       	mov	r24, r18
    3e14:	90 e0       	ldi	r25, 0x00	; 0
    3e16:	61 50       	subi	r22, 0x01	; 1
    3e18:	fc 01       	movw	r30, r24
    3e1a:	ee 0f       	add	r30, r30
    3e1c:	ff 1f       	adc	r31, r31
    3e1e:	e8 0f       	add	r30, r24
    3e20:	f9 1f       	adc	r31, r25
    3e22:	e0 5d       	subi	r30, 0xD0	; 208
    3e24:	fd 4f       	sbci	r31, 0xFD	; 253
    3e26:	66 83       	std	Z+6, r22	; 0x06
    3e28:	cf 2d       	mov	r28, r15
    3e2a:	ee 24       	eor	r14, r14
    3e2c:	ea 94       	dec	r14
    3e2e:	8c 01       	movw	r16, r24
    3e30:	08 5b       	subi	r16, 0xB8	; 184
    3e32:	1d 4f       	sbci	r17, 0xFD	; 253
    3e34:	ce 2c       	mov	r12, r14
    3e36:	c0 94       	com	r12
    3e38:	f8 01       	movw	r30, r16
    3e3a:	d0 81       	ld	r29, Z
    3e3c:	4e 2d       	mov	r20, r14
    3e3e:	6c 2f       	mov	r22, r28
    3e40:	82 e0       	ldi	r24, 0x02	; 2
    3e42:	8d 0f       	add	r24, r29
    3e44:	0e 94 f0 29 	call	0x53e0	; 0x53e0 <ks0108SetDot>
    3e48:	4c 2d       	mov	r20, r12
    3e4a:	6c 2f       	mov	r22, r28
    3e4c:	83 e0       	ldi	r24, 0x03	; 3
    3e4e:	8d 0f       	add	r24, r29
    3e50:	0e 94 f0 29 	call	0x53e0	; 0x53e0 <ks0108SetDot>
    3e54:	4e 2d       	mov	r20, r14
    3e56:	6c 2f       	mov	r22, r28
    3e58:	84 e0       	ldi	r24, 0x04	; 4
    3e5a:	8d 0f       	add	r24, r29
    3e5c:	0e 94 f0 29 	call	0x53e0	; 0x53e0 <ks0108SetDot>
    3e60:	4c 2d       	mov	r20, r12
    3e62:	6c 2f       	mov	r22, r28
    3e64:	85 e0       	ldi	r24, 0x05	; 5
    3e66:	8d 0f       	add	r24, r29
    3e68:	0e 94 f0 29 	call	0x53e0	; 0x53e0 <ks0108SetDot>
    3e6c:	4e 2d       	mov	r20, r14
    3e6e:	6c 2f       	mov	r22, r28
    3e70:	86 e0       	ldi	r24, 0x06	; 6
    3e72:	8d 0f       	add	r24, r29
    3e74:	0e 94 f0 29 	call	0x53e0	; 0x53e0 <ks0108SetDot>
    3e78:	4c 2d       	mov	r20, r12
    3e7a:	6c 2f       	mov	r22, r28
    3e7c:	87 e0       	ldi	r24, 0x07	; 7
    3e7e:	8d 0f       	add	r24, r29
    3e80:	0e 94 f0 29 	call	0x53e0	; 0x53e0 <ks0108SetDot>
    3e84:	4e 2d       	mov	r20, r14
    3e86:	6c 2f       	mov	r22, r28
    3e88:	88 e0       	ldi	r24, 0x08	; 8
    3e8a:	8d 0f       	add	r24, r29
    3e8c:	0e 94 f0 29 	call	0x53e0	; 0x53e0 <ks0108SetDot>
    3e90:	cf 5f       	subi	r28, 0xFF	; 255
    3e92:	ec 2c       	mov	r14, r12
    3e94:	8c 2f       	mov	r24, r28
    3e96:	8f 19       	sub	r24, r15
    3e98:	8d 15       	cp	r24, r13
    3e9a:	60 f2       	brcs	.-104    	; 0x3e34 <preview_dc_barlevel+0x54>
    3e9c:	df 91       	pop	r29
    3e9e:	cf 91       	pop	r28
    3ea0:	1f 91       	pop	r17
    3ea2:	0f 91       	pop	r16
    3ea4:	ff 90       	pop	r15
    3ea6:	ef 90       	pop	r14
    3ea8:	df 90       	pop	r13
    3eaa:	cf 90       	pop	r12
    3eac:	08 95       	ret

00003eae <direct_fillclear_barlevel>:
    3eae:	0f 93       	push	r16
    3eb0:	1f 93       	push	r17
    3eb2:	cf 93       	push	r28
    3eb4:	df 93       	push	r29
    3eb6:	c8 2f       	mov	r28, r24
    3eb8:	cb 01       	movw	r24, r22
    3eba:	20 91 00 01 	lds	r18, 0x0100	; 0x800100 <__DATA_REGION_ORIGIN__>
    3ebe:	62 2f       	mov	r22, r18
    3ec0:	70 e0       	ldi	r23, 0x00	; 0
    3ec2:	0e 94 9e 51 	call	0xa33c	; 0xa33c <__udivmodhi4>
    3ec6:	1f ef       	ldi	r17, 0xFF	; 255
    3ec8:	16 0f       	add	r17, r22
    3eca:	d0 e0       	ldi	r29, 0x00	; 0
    3ecc:	66 23       	and	r22, r22
    3ece:	79 f0       	breq	.+30     	; 0x3eee <direct_fillclear_barlevel+0x40>
    3ed0:	86 2f       	mov	r24, r22
    3ed2:	04 2f       	mov	r16, r20
    3ed4:	60 91 01 01 	lds	r22, 0x0101	; 0x800101 <NUM_ELEM_DENTRO_BAR>
    3ed8:	60 5f       	subi	r22, 0xF0	; 240
    3eda:	68 1b       	sub	r22, r24
    3edc:	fe 01       	movw	r30, r28
    3ede:	e8 5b       	subi	r30, 0xB8	; 184
    3ee0:	fd 4f       	sbci	r31, 0xFD	; 253
    3ee2:	80 81       	ld	r24, Z
    3ee4:	21 2f       	mov	r18, r17
    3ee6:	46 e0       	ldi	r20, 0x06	; 6
    3ee8:	8e 5f       	subi	r24, 0xFE	; 254
    3eea:	0e 94 61 28 	call	0x50c2	; 0x50c2 <ks0108FillRect>
    3eee:	ce 01       	movw	r24, r28
    3ef0:	88 0f       	add	r24, r24
    3ef2:	99 1f       	adc	r25, r25
    3ef4:	c8 0f       	add	r28, r24
    3ef6:	d9 1f       	adc	r29, r25
    3ef8:	c0 5d       	subi	r28, 0xD0	; 208
    3efa:	dd 4f       	sbci	r29, 0xFD	; 253
    3efc:	1e 83       	std	Y+6, r17	; 0x06
    3efe:	df 91       	pop	r29
    3f00:	cf 91       	pop	r28
    3f02:	1f 91       	pop	r17
    3f04:	0f 91       	pop	r16
    3f06:	08 95       	ret

00003f08 <_write_display_threshold_ofzone>:
    3f08:	28 2f       	mov	r18, r24
    3f0a:	30 e0       	ldi	r19, 0x00	; 0
    3f0c:	94 e2       	ldi	r25, 0x24	; 36
    3f0e:	89 9f       	mul	r24, r25
    3f10:	f0 01       	movw	r30, r0
    3f12:	11 24       	eor	r1, r1
    3f14:	ee 59       	subi	r30, 0x9E	; 158
    3f16:	f5 4f       	sbci	r31, 0xF5	; 245
    3f18:	85 8d       	ldd	r24, Z+29	; 0x1d
    3f1a:	96 8d       	ldd	r25, Z+30	; 0x1e
    3f1c:	40 91 00 01 	lds	r20, 0x0100	; 0x800100 <__DATA_REGION_ORIGIN__>
    3f20:	50 e0       	ldi	r21, 0x00	; 0
    3f22:	84 17       	cp	r24, r20
    3f24:	95 07       	cpc	r25, r21
    3f26:	90 f0       	brcs	.+36     	; 0x3f4c <_write_display_threshold_ofzone+0x44>
    3f28:	60 91 00 01 	lds	r22, 0x0100	; 0x800100 <__DATA_REGION_ORIGIN__>
    3f2c:	70 e0       	ldi	r23, 0x00	; 0
    3f2e:	0e 94 9e 51 	call	0xa33c	; 0xa33c <__udivmodhi4>
    3f32:	86 2f       	mov	r24, r22
    3f34:	60 91 01 01 	lds	r22, 0x0101	; 0x800101 <NUM_ELEM_DENTRO_BAR>
    3f38:	68 1b       	sub	r22, r24
    3f3a:	60 5f       	subi	r22, 0xF0	; 240
    3f3c:	f9 01       	movw	r30, r18
    3f3e:	e8 5b       	subi	r30, 0xB8	; 184
    3f40:	fd 4f       	sbci	r31, 0xFD	; 253
    3f42:	80 81       	ld	r24, Z
    3f44:	4f ef       	ldi	r20, 0xFF	; 255
    3f46:	81 50       	subi	r24, 0x01	; 1
    3f48:	0c 94 f0 29 	jmp	0x53e0	; 0x53e0 <ks0108SetDot>
    3f4c:	08 95       	ret

00003f4e <_write_display_threshold_allzone>:
    3f4e:	cf 93       	push	r28
    3f50:	c0 e0       	ldi	r28, 0x00	; 0
    3f52:	8c 2f       	mov	r24, r28
    3f54:	0e 94 84 1f 	call	0x3f08	; 0x3f08 <_write_display_threshold_ofzone>
    3f58:	cf 5f       	subi	r28, 0xFF	; 255
    3f5a:	c6 30       	cpi	r28, 0x06	; 6
    3f5c:	d1 f7       	brne	.-12     	; 0x3f52 <_write_display_threshold_allzone+0x4>
    3f5e:	cf 91       	pop	r28
    3f60:	08 95       	ret

00003f62 <I2Ccfx_Write1Byte>:
    3f62:	1f 93       	push	r17
    3f64:	cf 93       	push	r28
    3f66:	df 93       	push	r29
    3f68:	18 2f       	mov	r17, r24
    3f6a:	d6 2f       	mov	r29, r22
    3f6c:	c4 2f       	mov	r28, r20
    3f6e:	0e 94 07 20 	call	0x400e	; 0x400e <Start_I2C_unimaster>
    3f72:	81 2f       	mov	r24, r17
    3f74:	8e 7f       	andi	r24, 0xFE	; 254
    3f76:	0e 94 48 20 	call	0x4090	; 0x4090 <TxAddressSlave_I2C_unimaster>
    3f7a:	8d 2f       	mov	r24, r29
    3f7c:	0e 94 39 20 	call	0x4072	; 0x4072 <TxData_I2C_unimaster>
    3f80:	8c 2f       	mov	r24, r28
    3f82:	0e 94 39 20 	call	0x4072	; 0x4072 <TxData_I2C_unimaster>
    3f86:	df 91       	pop	r29
    3f88:	cf 91       	pop	r28
    3f8a:	1f 91       	pop	r17
    3f8c:	0c 94 ff 1f 	jmp	0x3ffe	; 0x3ffe <Stop_I2C_unimaster>

00003f90 <I2Ccfx_ReadRegistersAtAddress>:
    3f90:	ff 92       	push	r15
    3f92:	0f 93       	push	r16
    3f94:	1f 93       	push	r17
    3f96:	cf 93       	push	r28
    3f98:	df 93       	push	r29
    3f9a:	f6 2e       	mov	r15, r22
    3f9c:	8a 01       	movw	r16, r20
    3f9e:	d2 2f       	mov	r29, r18
    3fa0:	c8 2f       	mov	r28, r24
    3fa2:	ce 7f       	andi	r28, 0xFE	; 254
    3fa4:	0e 94 07 20 	call	0x400e	; 0x400e <Start_I2C_unimaster>
    3fa8:	8c 2f       	mov	r24, r28
    3faa:	0e 94 48 20 	call	0x4090	; 0x4090 <TxAddressSlave_I2C_unimaster>
    3fae:	8f 2d       	mov	r24, r15
    3fb0:	0e 94 39 20 	call	0x4072	; 0x4072 <TxData_I2C_unimaster>
    3fb4:	0e 94 1b 20 	call	0x4036	; 0x4036 <Restart_I2C_unimaster>
    3fb8:	8c 2f       	mov	r24, r28
    3fba:	81 60       	ori	r24, 0x01	; 1
    3fbc:	0e 94 48 20 	call	0x4090	; 0x4090 <TxAddressSlave_I2C_unimaster>
    3fc0:	c0 e0       	ldi	r28, 0x00	; 0
    3fc2:	cf 5f       	subi	r28, 0xFF	; 255
    3fc4:	cd 17       	cp	r28, r29
    3fc6:	10 f4       	brcc	.+4      	; 0x3fcc <I2Ccfx_ReadRegistersAtAddress+0x3c>
    3fc8:	81 e0       	ldi	r24, 0x01	; 1
    3fca:	01 c0       	rjmp	.+2      	; 0x3fce <I2Ccfx_ReadRegistersAtAddress+0x3e>
    3fcc:	80 e0       	ldi	r24, 0x00	; 0
    3fce:	0e 94 62 20 	call	0x40c4	; 0x40c4 <RxData_I2C_unimaster>
    3fd2:	80 91 73 00 	lds	r24, 0x0073	; 0x800073 <__TEXT_REGION_LENGTH__+0x7e0073>
    3fd6:	f8 01       	movw	r30, r16
    3fd8:	81 93       	st	Z+, r24
    3fda:	8f 01       	movw	r16, r30
    3fdc:	cd 17       	cp	r28, r29
    3fde:	88 f3       	brcs	.-30     	; 0x3fc2 <I2Ccfx_ReadRegistersAtAddress+0x32>
    3fe0:	df 91       	pop	r29
    3fe2:	cf 91       	pop	r28
    3fe4:	1f 91       	pop	r17
    3fe6:	0f 91       	pop	r16
    3fe8:	ff 90       	pop	r15
    3fea:	0c 94 ff 1f 	jmp	0x3ffe	; 0x3ffe <Stop_I2C_unimaster>

00003fee <Init_I2C_unimaster>:
    3fee:	90 98       	cbi	0x12, 0	; 18
    3ff0:	91 98       	cbi	0x12, 1	; 18
    3ff2:	10 92 71 00 	sts	0x0071, r1	; 0x800071 <__TEXT_REGION_LENGTH__+0x7e0071>
    3ff6:	82 e1       	ldi	r24, 0x12	; 18
    3ff8:	80 93 70 00 	sts	0x0070, r24	; 0x800070 <__TEXT_REGION_LENGTH__+0x7e0070>
    3ffc:	08 95       	ret

00003ffe <Stop_I2C_unimaster>:
    3ffe:	84 e9       	ldi	r24, 0x94	; 148
    4000:	80 93 74 00 	sts	0x0074, r24	; 0x800074 <__TEXT_REGION_LENGTH__+0x7e0074>
    4004:	80 91 74 00 	lds	r24, 0x0074	; 0x800074 <__TEXT_REGION_LENGTH__+0x7e0074>
    4008:	84 fd       	sbrc	r24, 4
    400a:	fc cf       	rjmp	.-8      	; 0x4004 <Stop_I2C_unimaster+0x6>
    400c:	08 95       	ret

0000400e <Start_I2C_unimaster>:
    400e:	84 ea       	ldi	r24, 0xA4	; 164
    4010:	80 93 74 00 	sts	0x0074, r24	; 0x800074 <__TEXT_REGION_LENGTH__+0x7e0074>
    4014:	80 91 74 00 	lds	r24, 0x0074	; 0x800074 <__TEXT_REGION_LENGTH__+0x7e0074>
    4018:	87 ff       	sbrs	r24, 7
    401a:	fc cf       	rjmp	.-8      	; 0x4014 <Start_I2C_unimaster+0x6>
    401c:	80 91 71 00 	lds	r24, 0x0071	; 0x800071 <__TEXT_REGION_LENGTH__+0x7e0071>
    4020:	88 7f       	andi	r24, 0xF8	; 248
    4022:	88 30       	cpi	r24, 0x08	; 8
    4024:	31 f0       	breq	.+12     	; 0x4032 <Start_I2C_unimaster+0x24>
    4026:	80 91 71 00 	lds	r24, 0x0071	; 0x800071 <__TEXT_REGION_LENGTH__+0x7e0071>
    402a:	0e 94 ff 1f 	call	0x3ffe	; 0x3ffe <Stop_I2C_unimaster>
    402e:	80 e0       	ldi	r24, 0x00	; 0
    4030:	08 95       	ret
    4032:	81 e0       	ldi	r24, 0x01	; 1
    4034:	08 95       	ret

00004036 <Restart_I2C_unimaster>:
    4036:	84 ea       	ldi	r24, 0xA4	; 164
    4038:	80 93 74 00 	sts	0x0074, r24	; 0x800074 <__TEXT_REGION_LENGTH__+0x7e0074>
    403c:	80 91 74 00 	lds	r24, 0x0074	; 0x800074 <__TEXT_REGION_LENGTH__+0x7e0074>
    4040:	87 ff       	sbrs	r24, 7
    4042:	fc cf       	rjmp	.-8      	; 0x403c <Restart_I2C_unimaster+0x6>
    4044:	80 91 71 00 	lds	r24, 0x0071	; 0x800071 <__TEXT_REGION_LENGTH__+0x7e0071>
    4048:	88 7f       	andi	r24, 0xF8	; 248
    404a:	80 31       	cpi	r24, 0x10	; 16
    404c:	31 f0       	breq	.+12     	; 0x405a <Restart_I2C_unimaster+0x24>
    404e:	80 91 71 00 	lds	r24, 0x0071	; 0x800071 <__TEXT_REGION_LENGTH__+0x7e0071>
    4052:	0e 94 ff 1f 	call	0x3ffe	; 0x3ffe <Stop_I2C_unimaster>
    4056:	80 e0       	ldi	r24, 0x00	; 0
    4058:	08 95       	ret
    405a:	81 e0       	ldi	r24, 0x01	; 1
    405c:	08 95       	ret

0000405e <__TxByte_I2C_unimaster>:
    405e:	80 93 73 00 	sts	0x0073, r24	; 0x800073 <__TEXT_REGION_LENGTH__+0x7e0073>
    4062:	84 e8       	ldi	r24, 0x84	; 132
    4064:	80 93 74 00 	sts	0x0074, r24	; 0x800074 <__TEXT_REGION_LENGTH__+0x7e0074>
    4068:	80 91 74 00 	lds	r24, 0x0074	; 0x800074 <__TEXT_REGION_LENGTH__+0x7e0074>
    406c:	87 ff       	sbrs	r24, 7
    406e:	fc cf       	rjmp	.-8      	; 0x4068 <__TxByte_I2C_unimaster+0xa>
    4070:	08 95       	ret

00004072 <TxData_I2C_unimaster>:
    4072:	0e 94 2f 20 	call	0x405e	; 0x405e <__TxByte_I2C_unimaster>
    4076:	80 91 71 00 	lds	r24, 0x0071	; 0x800071 <__TEXT_REGION_LENGTH__+0x7e0071>
    407a:	88 7f       	andi	r24, 0xF8	; 248
    407c:	88 32       	cpi	r24, 0x28	; 40
    407e:	31 f0       	breq	.+12     	; 0x408c <TxData_I2C_unimaster+0x1a>
    4080:	80 91 71 00 	lds	r24, 0x0071	; 0x800071 <__TEXT_REGION_LENGTH__+0x7e0071>
    4084:	0e 94 ff 1f 	call	0x3ffe	; 0x3ffe <Stop_I2C_unimaster>
    4088:	80 e0       	ldi	r24, 0x00	; 0
    408a:	08 95       	ret
    408c:	81 e0       	ldi	r24, 0x01	; 1
    408e:	08 95       	ret

00004090 <TxAddressSlave_I2C_unimaster>:
    4090:	cf 93       	push	r28
    4092:	80 fd       	sbrc	r24, 0
    4094:	02 c0       	rjmp	.+4      	; 0x409a <TxAddressSlave_I2C_unimaster+0xa>
    4096:	c8 e1       	ldi	r28, 0x18	; 24
    4098:	01 c0       	rjmp	.+2      	; 0x409c <TxAddressSlave_I2C_unimaster+0xc>
    409a:	c0 e4       	ldi	r28, 0x40	; 64
    409c:	0e 94 2f 20 	call	0x405e	; 0x405e <__TxByte_I2C_unimaster>
    40a0:	80 91 71 00 	lds	r24, 0x0071	; 0x800071 <__TEXT_REGION_LENGTH__+0x7e0071>
    40a4:	88 7f       	andi	r24, 0xF8	; 248
    40a6:	90 e0       	ldi	r25, 0x00	; 0
    40a8:	2c 2f       	mov	r18, r28
    40aa:	30 e0       	ldi	r19, 0x00	; 0
    40ac:	82 17       	cp	r24, r18
    40ae:	93 07       	cpc	r25, r19
    40b0:	31 f0       	breq	.+12     	; 0x40be <TxAddressSlave_I2C_unimaster+0x2e>
    40b2:	80 91 71 00 	lds	r24, 0x0071	; 0x800071 <__TEXT_REGION_LENGTH__+0x7e0071>
    40b6:	0e 94 ff 1f 	call	0x3ffe	; 0x3ffe <Stop_I2C_unimaster>
    40ba:	80 e0       	ldi	r24, 0x00	; 0
    40bc:	01 c0       	rjmp	.+2      	; 0x40c0 <TxAddressSlave_I2C_unimaster+0x30>
    40be:	81 e0       	ldi	r24, 0x01	; 1
    40c0:	cf 91       	pop	r28
    40c2:	08 95       	ret

000040c4 <RxData_I2C_unimaster>:
    40c4:	88 23       	and	r24, r24
    40c6:	29 f0       	breq	.+10     	; 0x40d2 <RxData_I2C_unimaster+0xe>
    40c8:	84 ec       	ldi	r24, 0xC4	; 196
    40ca:	80 93 74 00 	sts	0x0074, r24	; 0x800074 <__TEXT_REGION_LENGTH__+0x7e0074>
    40ce:	20 e5       	ldi	r18, 0x50	; 80
    40d0:	04 c0       	rjmp	.+8      	; 0x40da <RxData_I2C_unimaster+0x16>
    40d2:	84 e8       	ldi	r24, 0x84	; 132
    40d4:	80 93 74 00 	sts	0x0074, r24	; 0x800074 <__TEXT_REGION_LENGTH__+0x7e0074>
    40d8:	28 e5       	ldi	r18, 0x58	; 88
    40da:	80 91 74 00 	lds	r24, 0x0074	; 0x800074 <__TEXT_REGION_LENGTH__+0x7e0074>
    40de:	87 ff       	sbrs	r24, 7
    40e0:	fc cf       	rjmp	.-8      	; 0x40da <RxData_I2C_unimaster+0x16>
    40e2:	80 91 71 00 	lds	r24, 0x0071	; 0x800071 <__TEXT_REGION_LENGTH__+0x7e0071>
    40e6:	88 7f       	andi	r24, 0xF8	; 248
    40e8:	90 e0       	ldi	r25, 0x00	; 0
    40ea:	30 e0       	ldi	r19, 0x00	; 0
    40ec:	82 17       	cp	r24, r18
    40ee:	93 07       	cpc	r25, r19
    40f0:	31 f0       	breq	.+12     	; 0x40fe <RxData_I2C_unimaster+0x3a>
    40f2:	80 91 71 00 	lds	r24, 0x0071	; 0x800071 <__TEXT_REGION_LENGTH__+0x7e0071>
    40f6:	0e 94 ff 1f 	call	0x3ffe	; 0x3ffe <Stop_I2C_unimaster>
    40fa:	80 e0       	ldi	r24, 0x00	; 0
    40fc:	08 95       	ret
    40fe:	81 e0       	ldi	r24, 0x01	; 1
    4100:	08 95       	ret

00004102 <kb_free_and_complete_ps>:
    4102:	80 91 96 07 	lds	r24, 0x0796	; 0x800796 <synch_kb>
    4106:	81 11       	cpse	r24, r1
    4108:	2d c0       	rjmp	.+90     	; 0x4164 <kb_free_and_complete_ps+0x62>
    410a:	80 e0       	ldi	r24, 0x00	; 0
    410c:	90 e0       	ldi	r25, 0x00	; 0
    410e:	fc 01       	movw	r30, r24
    4110:	63 e0       	ldi	r22, 0x03	; 3
    4112:	ee 0f       	add	r30, r30
    4114:	ff 1f       	adc	r31, r31
    4116:	6a 95       	dec	r22
    4118:	e1 f7       	brne	.-8      	; 0x4112 <kb_free_and_complete_ps+0x10>
    411a:	e9 5b       	subi	r30, 0xB9	; 185
    411c:	f7 4f       	sbci	r31, 0xF7	; 247
    411e:	20 81       	ld	r18, Z
    4120:	21 fd       	sbrc	r18, 1
    4122:	20 c0       	rjmp	.+64     	; 0x4164 <kb_free_and_complete_ps+0x62>
    4124:	01 96       	adiw	r24, 0x01	; 1
    4126:	84 30       	cpi	r24, 0x04	; 4
    4128:	91 05       	cpc	r25, r1
    412a:	89 f7       	brne	.-30     	; 0x410e <kb_free_and_complete_ps+0xc>
    412c:	80 e0       	ldi	r24, 0x00	; 0
    412e:	90 e0       	ldi	r25, 0x00	; 0
    4130:	fc 01       	movw	r30, r24
    4132:	53 e0       	ldi	r21, 0x03	; 3
    4134:	ee 0f       	add	r30, r30
    4136:	ff 1f       	adc	r31, r31
    4138:	5a 95       	dec	r21
    413a:	e1 f7       	brne	.-8      	; 0x4134 <kb_free_and_complete_ps+0x32>
    413c:	e9 5b       	subi	r30, 0xB9	; 185
    413e:	f7 4f       	sbci	r31, 0xF7	; 247
    4140:	20 81       	ld	r18, Z
    4142:	22 ff       	sbrs	r18, 2
    4144:	06 c0       	rjmp	.+12     	; 0x4152 <kb_free_and_complete_ps+0x50>
    4146:	20 81       	ld	r18, Z
    4148:	2b 7f       	andi	r18, 0xFB	; 251
    414a:	20 83       	st	Z, r18
    414c:	20 81       	ld	r18, Z
    414e:	27 7f       	andi	r18, 0xF7	; 247
    4150:	20 83       	st	Z, r18
    4152:	01 96       	adiw	r24, 0x01	; 1
    4154:	84 30       	cpi	r24, 0x04	; 4
    4156:	91 05       	cpc	r25, r1
    4158:	59 f7       	brne	.-42     	; 0x4130 <kb_free_and_complete_ps+0x2e>
    415a:	80 91 96 07 	lds	r24, 0x0796	; 0x800796 <synch_kb>
    415e:	8f 5f       	subi	r24, 0xFF	; 255
    4160:	80 93 96 07 	sts	0x0796, r24	; 0x800796 <synch_kb>
    4164:	80 91 96 07 	lds	r24, 0x0796	; 0x800796 <synch_kb>
    4168:	81 30       	cpi	r24, 0x01	; 1
    416a:	49 f5       	brne	.+82     	; 0x41be <kb_free_and_complete_ps+0xbc>
    416c:	20 e0       	ldi	r18, 0x00	; 0
    416e:	30 e0       	ldi	r19, 0x00	; 0
    4170:	f9 01       	movw	r30, r18
    4172:	43 e0       	ldi	r20, 0x03	; 3
    4174:	ee 0f       	add	r30, r30
    4176:	ff 1f       	adc	r31, r31
    4178:	4a 95       	dec	r20
    417a:	e1 f7       	brne	.-8      	; 0x4174 <kb_free_and_complete_ps+0x72>
    417c:	e9 5b       	subi	r30, 0xB9	; 185
    417e:	f7 4f       	sbci	r31, 0xF7	; 247
    4180:	90 81       	ld	r25, Z
    4182:	91 fd       	sbrc	r25, 1
    4184:	1a c0       	rjmp	.+52     	; 0x41ba <kb_free_and_complete_ps+0xb8>
    4186:	2f 5f       	subi	r18, 0xFF	; 255
    4188:	3f 4f       	sbci	r19, 0xFF	; 255
    418a:	24 30       	cpi	r18, 0x04	; 4
    418c:	31 05       	cpc	r19, r1
    418e:	81 f7       	brne	.-32     	; 0x4170 <kb_free_and_complete_ps+0x6e>
    4190:	20 e0       	ldi	r18, 0x00	; 0
    4192:	30 e0       	ldi	r19, 0x00	; 0
    4194:	f9 01       	movw	r30, r18
    4196:	93 e0       	ldi	r25, 0x03	; 3
    4198:	ee 0f       	add	r30, r30
    419a:	ff 1f       	adc	r31, r31
    419c:	9a 95       	dec	r25
    419e:	e1 f7       	brne	.-8      	; 0x4198 <kb_free_and_complete_ps+0x96>
    41a0:	e9 5b       	subi	r30, 0xB9	; 185
    41a2:	f7 4f       	sbci	r31, 0xF7	; 247
    41a4:	90 81       	ld	r25, Z
    41a6:	95 fd       	sbrc	r25, 5
    41a8:	0a c0       	rjmp	.+20     	; 0x41be <kb_free_and_complete_ps+0xbc>
    41aa:	2f 5f       	subi	r18, 0xFF	; 255
    41ac:	3f 4f       	sbci	r19, 0xFF	; 255
    41ae:	24 30       	cpi	r18, 0x04	; 4
    41b0:	31 05       	cpc	r19, r1
    41b2:	81 f7       	brne	.-32     	; 0x4194 <kb_free_and_complete_ps+0x92>
    41b4:	10 92 96 07 	sts	0x0796, r1	; 0x800796 <synch_kb>
    41b8:	08 95       	ret
    41ba:	10 92 96 07 	sts	0x0796, r1	; 0x800796 <synch_kb>
    41be:	80 e0       	ldi	r24, 0x00	; 0
    41c0:	08 95       	ret

000041c2 <InitKeyboard>:
    41c2:	d9 9a       	sbi	0x1b, 1	; 27
    41c4:	d1 98       	cbi	0x1a, 1	; 26
    41c6:	da 9a       	sbi	0x1b, 2	; 27
    41c8:	d2 98       	cbi	0x1a, 2	; 26
    41ca:	db 9a       	sbi	0x1b, 3	; 27
    41cc:	d3 98       	cbi	0x1a, 3	; 26
    41ce:	d8 9a       	sbi	0x1b, 0	; 27
    41d0:	d0 98       	cbi	0x1a, 0	; 26
    41d2:	08 95       	ret

000041d4 <KB_KeyboardProcess>:
    41d4:	4f 92       	push	r4
    41d6:	5f 92       	push	r5
    41d8:	6f 92       	push	r6
    41da:	7f 92       	push	r7
    41dc:	8f 92       	push	r8
    41de:	9f 92       	push	r9
    41e0:	af 92       	push	r10
    41e2:	bf 92       	push	r11
    41e4:	cf 92       	push	r12
    41e6:	df 92       	push	r13
    41e8:	ef 92       	push	r14
    41ea:	ff 92       	push	r15
    41ec:	0f 93       	push	r16
    41ee:	1f 93       	push	r17
    41f0:	cf 93       	push	r28
    41f2:	df 93       	push	r29
    41f4:	89 b3       	in	r24, 0x19	; 25
    41f6:	86 95       	lsr	r24
    41f8:	81 70       	andi	r24, 0x01	; 1
    41fa:	90 91 47 08 	lds	r25, 0x0847	; 0x800847 <objkey+0x5>
    41fe:	80 fb       	bst	r24, 0
    4200:	90 f9       	bld	r25, 0
    4202:	90 93 47 08 	sts	0x0847, r25	; 0x800847 <objkey+0x5>
    4206:	89 b3       	in	r24, 0x19	; 25
    4208:	82 fb       	bst	r24, 2
    420a:	88 27       	eor	r24, r24
    420c:	80 f9       	bld	r24, 0
    420e:	90 91 4f 08 	lds	r25, 0x084F	; 0x80084f <objkey+0xd>
    4212:	80 fb       	bst	r24, 0
    4214:	90 f9       	bld	r25, 0
    4216:	90 93 4f 08 	sts	0x084F, r25	; 0x80084f <objkey+0xd>
    421a:	89 b3       	in	r24, 0x19	; 25
    421c:	83 fb       	bst	r24, 3
    421e:	88 27       	eor	r24, r24
    4220:	80 f9       	bld	r24, 0
    4222:	90 91 57 08 	lds	r25, 0x0857	; 0x800857 <objkey+0x15>
    4226:	80 fb       	bst	r24, 0
    4228:	90 f9       	bld	r25, 0
    422a:	90 93 57 08 	sts	0x0857, r25	; 0x800857 <objkey+0x15>
    422e:	99 b3       	in	r25, 0x19	; 25
    4230:	80 91 5f 08 	lds	r24, 0x085F	; 0x80085f <objkey+0x1d>
    4234:	90 fb       	bst	r25, 0
    4236:	80 f9       	bld	r24, 0
    4238:	80 93 5f 08 	sts	0x085F, r24	; 0x80085f <objkey+0x1d>
    423c:	20 e0       	ldi	r18, 0x00	; 0
    423e:	30 e0       	ldi	r19, 0x00	; 0
    4240:	c9 01       	movw	r24, r18
    4242:	63 e0       	ldi	r22, 0x03	; 3
    4244:	88 0f       	add	r24, r24
    4246:	99 1f       	adc	r25, r25
    4248:	6a 95       	dec	r22
    424a:	e1 f7       	brne	.-8      	; 0x4244 <KB_KeyboardProcess+0x70>
    424c:	fc 01       	movw	r30, r24
    424e:	ee 5b       	subi	r30, 0xBE	; 190
    4250:	f7 4f       	sbci	r31, 0xF7	; 247
    4252:	40 81       	ld	r20, Z
    4254:	41 11       	cpse	r20, r1
    4256:	07 c0       	rjmp	.+14     	; 0x4266 <KB_KeyboardProcess+0x92>
    4258:	dc 01       	movw	r26, r24
    425a:	a9 5b       	subi	r26, 0xB9	; 185
    425c:	b7 4f       	sbci	r27, 0xF7	; 247
    425e:	8c 91       	ld	r24, X
    4260:	80 fd       	sbrc	r24, 0
    4262:	37 c0       	rjmp	.+110    	; 0x42d2 <KB_KeyboardProcess+0xfe>
    4264:	20 c0       	rjmp	.+64     	; 0x42a6 <KB_KeyboardProcess+0xd2>
    4266:	40 81       	ld	r20, Z
    4268:	41 30       	cpi	r20, 0x01	; 1
    426a:	a1 f4       	brne	.+40     	; 0x4294 <KB_KeyboardProcess+0xc0>
    426c:	41 81       	ldd	r20, Z+1	; 0x01
    426e:	4f 5f       	subi	r20, 0xFF	; 255
    4270:	41 83       	std	Z+1, r20	; 0x01
    4272:	45 30       	cpi	r20, 0x05	; 5
    4274:	70 f1       	brcs	.+92     	; 0x42d2 <KB_KeyboardProcess+0xfe>
    4276:	11 82       	std	Z+1, r1	; 0x01
    4278:	dc 01       	movw	r26, r24
    427a:	a9 5b       	subi	r26, 0xB9	; 185
    427c:	b7 4f       	sbci	r27, 0xF7	; 247
    427e:	8c 91       	ld	r24, X
    4280:	80 ff       	sbrs	r24, 0
    4282:	04 c0       	rjmp	.+8      	; 0x428c <KB_KeyboardProcess+0xb8>
    4284:	80 81       	ld	r24, Z
    4286:	81 50       	subi	r24, 0x01	; 1
    4288:	80 83       	st	Z, r24
    428a:	23 c0       	rjmp	.+70     	; 0x42d2 <KB_KeyboardProcess+0xfe>
    428c:	8c 91       	ld	r24, X
    428e:	82 60       	ori	r24, 0x02	; 2
    4290:	8c 93       	st	X, r24
    4292:	09 c0       	rjmp	.+18     	; 0x42a6 <KB_KeyboardProcess+0xd2>
    4294:	40 81       	ld	r20, Z
    4296:	42 30       	cpi	r20, 0x02	; 2
    4298:	49 f4       	brne	.+18     	; 0x42ac <KB_KeyboardProcess+0xd8>
    429a:	dc 01       	movw	r26, r24
    429c:	a9 5b       	subi	r26, 0xB9	; 185
    429e:	b7 4f       	sbci	r27, 0xF7	; 247
    42a0:	8c 91       	ld	r24, X
    42a2:	80 ff       	sbrs	r24, 0
    42a4:	16 c0       	rjmp	.+44     	; 0x42d2 <KB_KeyboardProcess+0xfe>
    42a6:	80 81       	ld	r24, Z
    42a8:	8f 5f       	subi	r24, 0xFF	; 255
    42aa:	ee cf       	rjmp	.-36     	; 0x4288 <KB_KeyboardProcess+0xb4>
    42ac:	40 81       	ld	r20, Z
    42ae:	43 30       	cpi	r20, 0x03	; 3
    42b0:	81 f4       	brne	.+32     	; 0x42d2 <KB_KeyboardProcess+0xfe>
    42b2:	41 81       	ldd	r20, Z+1	; 0x01
    42b4:	4f 5f       	subi	r20, 0xFF	; 255
    42b6:	41 83       	std	Z+1, r20	; 0x01
    42b8:	45 30       	cpi	r20, 0x05	; 5
    42ba:	58 f0       	brcs	.+22     	; 0x42d2 <KB_KeyboardProcess+0xfe>
    42bc:	11 82       	std	Z+1, r1	; 0x01
    42be:	dc 01       	movw	r26, r24
    42c0:	a9 5b       	subi	r26, 0xB9	; 185
    42c2:	b7 4f       	sbci	r27, 0xF7	; 247
    42c4:	8c 91       	ld	r24, X
    42c6:	80 ff       	sbrs	r24, 0
    42c8:	dd cf       	rjmp	.-70     	; 0x4284 <KB_KeyboardProcess+0xb0>
    42ca:	8c 91       	ld	r24, X
    42cc:	8d 7f       	andi	r24, 0xFD	; 253
    42ce:	8c 93       	st	X, r24
    42d0:	10 82       	st	Z, r1
    42d2:	2f 5f       	subi	r18, 0xFF	; 255
    42d4:	3f 4f       	sbci	r19, 0xFF	; 255
    42d6:	24 30       	cpi	r18, 0x04	; 4
    42d8:	31 05       	cpc	r19, r1
    42da:	09 f0       	breq	.+2      	; 0x42de <KB_KeyboardProcess+0x10a>
    42dc:	b1 cf       	rjmp	.-158    	; 0x4240 <KB_KeyboardProcess+0x6c>
    42de:	c1 2c       	mov	r12, r1
    42e0:	d1 2c       	mov	r13, r1
    42e2:	aa 24       	eor	r10, r10
    42e4:	a3 94       	inc	r10
    42e6:	03 e0       	ldi	r16, 0x03	; 3
    42e8:	70 2e       	mov	r7, r16
    42ea:	84 e0       	ldi	r24, 0x04	; 4
    42ec:	68 2e       	mov	r6, r24
    42ee:	95 e0       	ldi	r25, 0x05	; 5
    42f0:	59 2e       	mov	r5, r25
    42f2:	22 e0       	ldi	r18, 0x02	; 2
    42f4:	b2 2e       	mov	r11, r18
    42f6:	36 e0       	ldi	r19, 0x06	; 6
    42f8:	93 2e       	mov	r9, r19
    42fa:	47 e0       	ldi	r20, 0x07	; 7
    42fc:	84 2e       	mov	r8, r20
    42fe:	58 e0       	ldi	r21, 0x08	; 8
    4300:	45 2e       	mov	r4, r21
    4302:	e6 01       	movw	r28, r12
    4304:	13 e0       	ldi	r17, 0x03	; 3
    4306:	cc 0f       	add	r28, r28
    4308:	dd 1f       	adc	r29, r29
    430a:	1a 95       	dec	r17
    430c:	e1 f7       	brne	.-8      	; 0x4306 <KB_KeyboardProcess+0x132>
    430e:	fe 01       	movw	r30, r28
    4310:	ee 5b       	subi	r30, 0xBE	; 190
    4312:	f7 4f       	sbci	r31, 0xF7	; 247
    4314:	82 81       	ldd	r24, Z+2	; 0x02
    4316:	81 11       	cpse	r24, r1
    4318:	3d c0       	rjmp	.+122    	; 0x4394 <KB_KeyboardProcess+0x1c0>
    431a:	87 81       	ldd	r24, Z+7	; 0x07
    431c:	88 23       	and	r24, r24
    431e:	69 f0       	breq	.+26     	; 0x433a <KB_KeyboardProcess+0x166>
    4320:	e7 81       	ldd	r30, Z+7	; 0x07
    4322:	f0 e0       	ldi	r31, 0x00	; 0
    4324:	e2 5b       	subi	r30, 0xB2	; 178
    4326:	fd 4f       	sbci	r31, 0xFD	; 253
    4328:	80 81       	ld	r24, Z
    432a:	81 30       	cpi	r24, 0x01	; 1
    432c:	31 f4       	brne	.+12     	; 0x433a <KB_KeyboardProcess+0x166>
    432e:	fe 01       	movw	r30, r28
    4330:	e9 5b       	subi	r30, 0xB9	; 185
    4332:	f7 4f       	sbci	r31, 0xF7	; 247
    4334:	80 81       	ld	r24, Z
    4336:	84 ff       	sbrs	r24, 4
    4338:	2d c0       	rjmp	.+90     	; 0x4394 <KB_KeyboardProcess+0x1c0>
    433a:	de 01       	movw	r26, r28
    433c:	a9 5b       	subi	r26, 0xB9	; 185
    433e:	b7 4f       	sbci	r27, 0xF7	; 247
    4340:	8c 91       	ld	r24, X
    4342:	81 fb       	bst	r24, 1
    4344:	99 27       	eor	r25, r25
    4346:	90 f9       	bld	r25, 0
    4348:	81 ff       	sbrs	r24, 1
    434a:	24 c0       	rjmp	.+72     	; 0x4394 <KB_KeyboardProcess+0x1c0>
    434c:	fe 01       	movw	r30, r28
    434e:	e8 5b       	subi	r30, 0xB8	; 184
    4350:	f7 4f       	sbci	r31, 0xF7	; 247
    4352:	80 81       	ld	r24, Z
    4354:	80 ff       	sbrs	r24, 0
    4356:	d2 c1       	rjmp	.+932    	; 0x46fc <KB_KeyboardProcess+0x528>
    4358:	8c 91       	ld	r24, X
    435a:	84 60       	ori	r24, 0x04	; 4
    435c:	8c 93       	st	X, r24
    435e:	80 81       	ld	r24, Z
    4360:	fe 01       	movw	r30, r28
    4362:	ee 5b       	subi	r30, 0xBE	; 190
    4364:	f7 4f       	sbci	r31, 0xF7	; 247
    4366:	83 ff       	sbrs	r24, 3
    4368:	c7 c1       	rjmp	.+910    	; 0x46f8 <KB_KeyboardProcess+0x524>
    436a:	52 82       	std	Z+2, r5	; 0x02
    436c:	de 01       	movw	r26, r28
    436e:	a9 5b       	subi	r26, 0xB9	; 185
    4370:	b7 4f       	sbci	r27, 0xF7	; 247
    4372:	8c 91       	ld	r24, X
    4374:	80 62       	ori	r24, 0x20	; 32
    4376:	8c 93       	st	X, r24
    4378:	fe 01       	movw	r30, r28
    437a:	ee 5b       	subi	r30, 0xBE	; 190
    437c:	f7 4f       	sbci	r31, 0xF7	; 247
    437e:	87 81       	ldd	r24, Z+7	; 0x07
    4380:	88 23       	and	r24, r24
    4382:	41 f0       	breq	.+16     	; 0x4394 <KB_KeyboardProcess+0x1c0>
    4384:	e7 81       	ldd	r30, Z+7	; 0x07
    4386:	f0 e0       	ldi	r31, 0x00	; 0
    4388:	e2 5b       	subi	r30, 0xB2	; 178
    438a:	fd 4f       	sbci	r31, 0xFD	; 253
    438c:	a0 82       	st	Z, r10
    438e:	8c 91       	ld	r24, X
    4390:	80 61       	ori	r24, 0x10	; 16
    4392:	8c 93       	st	X, r24
    4394:	fe 01       	movw	r30, r28
    4396:	ee 5b       	subi	r30, 0xBE	; 190
    4398:	f7 4f       	sbci	r31, 0xF7	; 247
    439a:	82 81       	ldd	r24, Z+2	; 0x02
    439c:	85 30       	cpi	r24, 0x05	; 5
    439e:	60 f0       	brcs	.+24     	; 0x43b8 <KB_KeyboardProcess+0x1e4>
    43a0:	82 81       	ldd	r24, Z+2	; 0x02
    43a2:	88 30       	cpi	r24, 0x08	; 8
    43a4:	48 f4       	brcc	.+18     	; 0x43b8 <KB_KeyboardProcess+0x1e4>
    43a6:	de 01       	movw	r26, r28
    43a8:	a9 5b       	subi	r26, 0xB9	; 185
    43aa:	b7 4f       	sbci	r27, 0xF7	; 247
    43ac:	8c 91       	ld	r24, X
    43ae:	81 fd       	sbrc	r24, 1
    43b0:	03 c0       	rjmp	.+6      	; 0x43b8 <KB_KeyboardProcess+0x1e4>
    43b2:	14 82       	std	Z+4, r1	; 0x04
    43b4:	13 82       	std	Z+3, r1	; 0x03
    43b6:	b2 82       	std	Z+2, r11	; 0x02
    43b8:	fe 01       	movw	r30, r28
    43ba:	ee 5b       	subi	r30, 0xBE	; 190
    43bc:	f7 4f       	sbci	r31, 0xF7	; 247
    43be:	82 81       	ldd	r24, Z+2	; 0x02
    43c0:	85 30       	cpi	r24, 0x05	; 5
    43c2:	71 f4       	brne	.+28     	; 0x43e0 <KB_KeyboardProcess+0x20c>
    43c4:	83 81       	ldd	r24, Z+3	; 0x03
    43c6:	94 81       	ldd	r25, Z+4	; 0x04
    43c8:	01 96       	adiw	r24, 0x01	; 1
    43ca:	94 83       	std	Z+4, r25	; 0x04
    43cc:	83 83       	std	Z+3, r24	; 0x03
    43ce:	20 91 50 02 	lds	r18, 0x0250	; 0x800250 <objsharedfeatkeys+0x2>
    43d2:	30 e0       	ldi	r19, 0x00	; 0
    43d4:	82 17       	cp	r24, r18
    43d6:	93 07       	cpc	r25, r19
    43d8:	18 f0       	brcs	.+6      	; 0x43e0 <KB_KeyboardProcess+0x20c>
    43da:	14 82       	std	Z+4, r1	; 0x04
    43dc:	13 82       	std	Z+3, r1	; 0x03
    43de:	92 82       	std	Z+2, r9	; 0x02
    43e0:	de 01       	movw	r26, r28
    43e2:	ae 5b       	subi	r26, 0xBE	; 190
    43e4:	b7 4f       	sbci	r27, 0xF7	; 247
    43e6:	12 96       	adiw	r26, 0x02	; 2
    43e8:	8c 91       	ld	r24, X
    43ea:	12 97       	sbiw	r26, 0x02	; 2
    43ec:	86 30       	cpi	r24, 0x06	; 6
    43ee:	59 f4       	brne	.+22     	; 0x4406 <KB_KeyboardProcess+0x232>
    43f0:	fe 01       	movw	r30, r28
    43f2:	e9 5b       	subi	r30, 0xB9	; 185
    43f4:	f7 4f       	sbci	r31, 0xF7	; 247
    43f6:	80 81       	ld	r24, Z
    43f8:	82 fd       	sbrc	r24, 2
    43fa:	05 c0       	rjmp	.+10     	; 0x4406 <KB_KeyboardProcess+0x232>
    43fc:	80 81       	ld	r24, Z
    43fe:	84 60       	ori	r24, 0x04	; 4
    4400:	80 83       	st	Z, r24
    4402:	12 96       	adiw	r26, 0x02	; 2
    4404:	8c 92       	st	X, r8
    4406:	fe 01       	movw	r30, r28
    4408:	ee 5b       	subi	r30, 0xBE	; 190
    440a:	f7 4f       	sbci	r31, 0xF7	; 247
    440c:	82 81       	ldd	r24, Z+2	; 0x02
    440e:	87 30       	cpi	r24, 0x07	; 7
    4410:	71 f4       	brne	.+28     	; 0x442e <KB_KeyboardProcess+0x25a>
    4412:	83 81       	ldd	r24, Z+3	; 0x03
    4414:	94 81       	ldd	r25, Z+4	; 0x04
    4416:	01 96       	adiw	r24, 0x01	; 1
    4418:	94 83       	std	Z+4, r25	; 0x04
    441a:	83 83       	std	Z+3, r24	; 0x03
    441c:	20 91 51 02 	lds	r18, 0x0251	; 0x800251 <objsharedfeatkeys+0x3>
    4420:	30 e0       	ldi	r19, 0x00	; 0
    4422:	82 17       	cp	r24, r18
    4424:	93 07       	cpc	r25, r19
    4426:	18 f0       	brcs	.+6      	; 0x442e <KB_KeyboardProcess+0x25a>
    4428:	14 82       	std	Z+4, r1	; 0x04
    442a:	13 82       	std	Z+3, r1	; 0x03
    442c:	92 82       	std	Z+2, r9	; 0x02
    442e:	de 01       	movw	r26, r28
    4430:	ae 5b       	subi	r26, 0xBE	; 190
    4432:	b7 4f       	sbci	r27, 0xF7	; 247
    4434:	12 96       	adiw	r26, 0x02	; 2
    4436:	8c 91       	ld	r24, X
    4438:	12 97       	sbiw	r26, 0x02	; 2
    443a:	84 30       	cpi	r24, 0x04	; 4
    443c:	59 f4       	brne	.+22     	; 0x4454 <KB_KeyboardProcess+0x280>
    443e:	fe 01       	movw	r30, r28
    4440:	e9 5b       	subi	r30, 0xB9	; 185
    4442:	f7 4f       	sbci	r31, 0xF7	; 247
    4444:	80 81       	ld	r24, Z
    4446:	81 fd       	sbrc	r24, 1
    4448:	05 c0       	rjmp	.+10     	; 0x4454 <KB_KeyboardProcess+0x280>
    444a:	80 81       	ld	r24, Z
    444c:	84 60       	ori	r24, 0x04	; 4
    444e:	80 83       	st	Z, r24
    4450:	12 96       	adiw	r26, 0x02	; 2
    4452:	bc 92       	st	X, r11
    4454:	8e 01       	movw	r16, r28
    4456:	0e 5b       	subi	r16, 0xBE	; 190
    4458:	17 4f       	sbci	r17, 0xF7	; 247
    445a:	f8 01       	movw	r30, r16
    445c:	82 81       	ldd	r24, Z+2	; 0x02
    445e:	83 30       	cpi	r24, 0x03	; 3
    4460:	09 f0       	breq	.+2      	; 0x4464 <KB_KeyboardProcess+0x290>
    4462:	50 c0       	rjmp	.+160    	; 0x4504 <KB_KeyboardProcess+0x330>
    4464:	83 81       	ldd	r24, Z+3	; 0x03
    4466:	94 81       	ldd	r25, Z+4	; 0x04
    4468:	01 96       	adiw	r24, 0x01	; 1
    446a:	94 83       	std	Z+4, r25	; 0x04
    446c:	83 83       	std	Z+3, r24	; 0x03
    446e:	ce 01       	movw	r24, r28
    4470:	89 5b       	subi	r24, 0xB9	; 185
    4472:	97 4f       	sbci	r25, 0xF7	; 247
    4474:	7c 01       	movw	r14, r24
    4476:	fc 01       	movw	r30, r24
    4478:	80 81       	ld	r24, Z
    447a:	81 fd       	sbrc	r24, 1
    447c:	1b c0       	rjmp	.+54     	; 0x44b4 <KB_KeyboardProcess+0x2e0>
    447e:	f8 01       	movw	r30, r16
    4480:	63 81       	ldd	r22, Z+3	; 0x03
    4482:	74 81       	ldd	r23, Z+4	; 0x04
    4484:	80 e0       	ldi	r24, 0x00	; 0
    4486:	90 e0       	ldi	r25, 0x00	; 0
    4488:	0e 94 21 50 	call	0xa042	; 0xa042 <__floatunsisf>
    448c:	2f ef       	ldi	r18, 0xFF	; 255
    448e:	3f ef       	ldi	r19, 0xFF	; 255
    4490:	47 e4       	ldi	r20, 0x47	; 71
    4492:	53 e4       	ldi	r21, 0x43	; 67
    4494:	0e 94 7b 4f 	call	0x9ef6	; 0x9ef6 <__cmpsf2>
    4498:	18 16       	cp	r1, r24
    449a:	64 f0       	brlt	.+24     	; 0x44b4 <KB_KeyboardProcess+0x2e0>
    449c:	f8 01       	movw	r30, r16
    449e:	14 82       	std	Z+4, r1	; 0x04
    44a0:	13 82       	std	Z+3, r1	; 0x03
    44a2:	f7 01       	movw	r30, r14
    44a4:	80 81       	ld	r24, Z
    44a6:	84 60       	ori	r24, 0x04	; 4
    44a8:	80 83       	st	Z, r24
    44aa:	80 81       	ld	r24, Z
    44ac:	87 7f       	andi	r24, 0xF7	; 247
    44ae:	80 83       	st	Z, r24
    44b0:	f8 01       	movw	r30, r16
    44b2:	b2 82       	std	Z+2, r11	; 0x02
    44b4:	8e 01       	movw	r16, r28
    44b6:	0e 5b       	subi	r16, 0xBE	; 190
    44b8:	17 4f       	sbci	r17, 0xF7	; 247
    44ba:	f8 01       	movw	r30, r16
    44bc:	63 81       	ldd	r22, Z+3	; 0x03
    44be:	74 81       	ldd	r23, Z+4	; 0x04
    44c0:	80 e0       	ldi	r24, 0x00	; 0
    44c2:	90 e0       	ldi	r25, 0x00	; 0
    44c4:	0e 94 21 50 	call	0xa042	; 0xa042 <__floatunsisf>
    44c8:	2f ef       	ldi	r18, 0xFF	; 255
    44ca:	3f ef       	ldi	r19, 0xFF	; 255
    44cc:	47 e4       	ldi	r20, 0x47	; 71
    44ce:	53 e4       	ldi	r21, 0x43	; 67
    44d0:	0e 94 d3 50 	call	0xa1a6	; 0xa1a6 <__gesf2>
    44d4:	18 16       	cp	r1, r24
    44d6:	b4 f4       	brge	.+44     	; 0x4504 <KB_KeyboardProcess+0x330>
    44d8:	f8 01       	movw	r30, r16
    44da:	14 82       	std	Z+4, r1	; 0x04
    44dc:	13 82       	std	Z+3, r1	; 0x03
    44de:	fe 01       	movw	r30, r28
    44e0:	e9 5b       	subi	r30, 0xB9	; 185
    44e2:	f7 4f       	sbci	r31, 0xF7	; 247
    44e4:	80 81       	ld	r24, Z
    44e6:	84 60       	ori	r24, 0x04	; 4
    44e8:	80 83       	st	Z, r24
    44ea:	80 81       	ld	r24, Z
    44ec:	88 60       	ori	r24, 0x08	; 8
    44ee:	80 83       	st	Z, r24
    44f0:	fe 01       	movw	r30, r28
    44f2:	e8 5b       	subi	r30, 0xB8	; 184
    44f4:	f7 4f       	sbci	r31, 0xF7	; 247
    44f6:	80 81       	ld	r24, Z
    44f8:	f8 01       	movw	r30, r16
    44fa:	83 fd       	sbrc	r24, 3
    44fc:	02 c0       	rjmp	.+4      	; 0x4502 <KB_KeyboardProcess+0x32e>
    44fe:	a2 82       	std	Z+2, r10	; 0x02
    4500:	01 c0       	rjmp	.+2      	; 0x4504 <KB_KeyboardProcess+0x330>
    4502:	82 82       	std	Z+2, r8	; 0x02
    4504:	fe 01       	movw	r30, r28
    4506:	ee 5b       	subi	r30, 0xBE	; 190
    4508:	f7 4f       	sbci	r31, 0xF7	; 247
    450a:	82 81       	ldd	r24, Z+2	; 0x02
    450c:	81 30       	cpi	r24, 0x01	; 1
    450e:	31 f4       	brne	.+12     	; 0x451c <KB_KeyboardProcess+0x348>
    4510:	de 01       	movw	r26, r28
    4512:	a9 5b       	subi	r26, 0xB9	; 185
    4514:	b7 4f       	sbci	r27, 0xF7	; 247
    4516:	8c 91       	ld	r24, X
    4518:	81 ff       	sbrs	r24, 1
    451a:	b2 82       	std	Z+2, r11	; 0x02
    451c:	fe 01       	movw	r30, r28
    451e:	ee 5b       	subi	r30, 0xBE	; 190
    4520:	f7 4f       	sbci	r31, 0xF7	; 247
    4522:	82 81       	ldd	r24, Z+2	; 0x02
    4524:	82 30       	cpi	r24, 0x02	; 2
    4526:	31 f4       	brne	.+12     	; 0x4534 <KB_KeyboardProcess+0x360>
    4528:	de 01       	movw	r26, r28
    452a:	a9 5b       	subi	r26, 0xB9	; 185
    452c:	b7 4f       	sbci	r27, 0xF7	; 247
    452e:	8c 91       	ld	r24, X
    4530:	82 ff       	sbrs	r24, 2
    4532:	42 82       	std	Z+2, r4	; 0x02
    4534:	fe 01       	movw	r30, r28
    4536:	ee 5b       	subi	r30, 0xBE	; 190
    4538:	f7 4f       	sbci	r31, 0xF7	; 247
    453a:	82 81       	ldd	r24, Z+2	; 0x02
    453c:	88 30       	cpi	r24, 0x08	; 8
    453e:	b9 f4       	brne	.+46     	; 0x456e <KB_KeyboardProcess+0x39a>
    4540:	87 81       	ldd	r24, Z+7	; 0x07
    4542:	88 23       	and	r24, r24
    4544:	59 f0       	breq	.+22     	; 0x455c <KB_KeyboardProcess+0x388>
    4546:	e7 81       	ldd	r30, Z+7	; 0x07
    4548:	f0 e0       	ldi	r31, 0x00	; 0
    454a:	e2 5b       	subi	r30, 0xB2	; 178
    454c:	fd 4f       	sbci	r31, 0xFD	; 253
    454e:	10 82       	st	Z, r1
    4550:	fe 01       	movw	r30, r28
    4552:	e9 5b       	subi	r30, 0xB9	; 185
    4554:	f7 4f       	sbci	r31, 0xF7	; 247
    4556:	80 81       	ld	r24, Z
    4558:	8f 7e       	andi	r24, 0xEF	; 239
    455a:	80 83       	st	Z, r24
    455c:	fe 01       	movw	r30, r28
    455e:	ee 5b       	subi	r30, 0xBE	; 190
    4560:	f7 4f       	sbci	r31, 0xF7	; 247
    4562:	12 82       	std	Z+2, r1	; 0x02
    4564:	c9 5b       	subi	r28, 0xB9	; 185
    4566:	d7 4f       	sbci	r29, 0xF7	; 247
    4568:	88 81       	ld	r24, Y
    456a:	8f 7d       	andi	r24, 0xDF	; 223
    456c:	88 83       	st	Y, r24
    456e:	ff ef       	ldi	r31, 0xFF	; 255
    4570:	cf 1a       	sub	r12, r31
    4572:	df 0a       	sbc	r13, r31
    4574:	34 e0       	ldi	r19, 0x04	; 4
    4576:	c3 16       	cp	r12, r19
    4578:	d1 04       	cpc	r13, r1
    457a:	09 f0       	breq	.+2      	; 0x457e <KB_KeyboardProcess+0x3aa>
    457c:	c2 ce       	rjmp	.-636    	; 0x4302 <KB_KeyboardProcess+0x12e>
    457e:	80 91 63 08 	lds	r24, 0x0863	; 0x800863 <synch_kb_exposed_to_app+0x1>
    4582:	81 30       	cpi	r24, 0x01	; 1
    4584:	09 f0       	breq	.+2      	; 0x4588 <KB_KeyboardProcess+0x3b4>
    4586:	aa c0       	rjmp	.+340    	; 0x46dc <KB_KeyboardProcess+0x508>
    4588:	80 91 e8 07 	lds	r24, 0x07E8	; 0x8007e8 <key_change_layout+0x51>
    458c:	81 11       	cpse	r24, r1
    458e:	09 c0       	rjmp	.+18     	; 0x45a2 <KB_KeyboardProcess+0x3ce>
    4590:	0e 94 81 20 	call	0x4102	; 0x4102 <kb_free_and_complete_ps>
    4594:	88 23       	and	r24, r24
    4596:	29 f0       	breq	.+10     	; 0x45a2 <KB_KeyboardProcess+0x3ce>
    4598:	80 91 e8 07 	lds	r24, 0x07E8	; 0x8007e8 <key_change_layout+0x51>
    459c:	8f 5f       	subi	r24, 0xFF	; 255
    459e:	80 93 e8 07 	sts	0x07E8, r24	; 0x8007e8 <key_change_layout+0x51>
    45a2:	80 91 e8 07 	lds	r24, 0x07E8	; 0x8007e8 <key_change_layout+0x51>
    45a6:	81 30       	cpi	r24, 0x01	; 1
    45a8:	09 f0       	breq	.+2      	; 0x45ac <KB_KeyboardProcess+0x3d8>
    45aa:	98 c0       	rjmp	.+304    	; 0x46dc <KB_KeyboardProcess+0x508>
    45ac:	10 92 e8 07 	sts	0x07E8, r1	; 0x8007e8 <key_change_layout+0x51>
    45b0:	80 91 64 08 	lds	r24, 0x0864	; 0x800864 <synch_kb_exposed_to_app+0x2>
    45b4:	83 30       	cpi	r24, 0x03	; 3
    45b6:	c1 f5       	brne	.+112    	; 0x4628 <KB_KeyboardProcess+0x454>
    45b8:	80 91 97 07 	lds	r24, 0x0797	; 0x800797 <key_change_layout>
    45bc:	81 50       	subi	r24, 0x01	; 1
    45be:	80 93 97 07 	sts	0x0797, r24	; 0x800797 <key_change_layout>
    45c2:	80 e0       	ldi	r24, 0x00	; 0
    45c4:	90 e0       	ldi	r25, 0x00	; 0
    45c6:	20 91 97 07 	lds	r18, 0x0797	; 0x800797 <key_change_layout>
    45ca:	fc 01       	movw	r30, r24
    45cc:	44 e0       	ldi	r20, 0x04	; 4
    45ce:	24 9f       	mul	r18, r20
    45d0:	e0 0d       	add	r30, r0
    45d2:	f1 1d       	adc	r31, r1
    45d4:	11 24       	eor	r1, r1
    45d6:	ee 0f       	add	r30, r30
    45d8:	ff 1f       	adc	r31, r31
    45da:	e9 56       	subi	r30, 0x69	; 105
    45dc:	f8 4f       	sbci	r31, 0xF8	; 248
    45de:	21 81       	ldd	r18, Z+1	; 0x01
    45e0:	dc 01       	movw	r26, r24
    45e2:	c3 e0       	ldi	r28, 0x03	; 3
    45e4:	aa 0f       	add	r26, r26
    45e6:	bb 1f       	adc	r27, r27
    45e8:	ca 95       	dec	r28
    45ea:	e1 f7       	brne	.-8      	; 0x45e4 <KB_KeyboardProcess+0x410>
    45ec:	ae 5b       	subi	r26, 0xBE	; 190
    45ee:	b7 4f       	sbci	r27, 0xF7	; 247
    45f0:	16 96       	adiw	r26, 0x06	; 6
    45f2:	2c 93       	st	X, r18
    45f4:	16 97       	sbiw	r26, 0x06	; 6
    45f6:	20 91 97 07 	lds	r18, 0x0797	; 0x800797 <key_change_layout>
    45fa:	fc 01       	movw	r30, r24
    45fc:	34 e0       	ldi	r19, 0x04	; 4
    45fe:	23 9f       	mul	r18, r19
    4600:	e0 0d       	add	r30, r0
    4602:	f1 1d       	adc	r31, r1
    4604:	11 24       	eor	r1, r1
    4606:	ee 0f       	add	r30, r30
    4608:	ff 1f       	adc	r31, r31
    460a:	e7 56       	subi	r30, 0x67	; 103
    460c:	f8 4f       	sbci	r31, 0xF8	; 248
    460e:	20 81       	ld	r18, Z
    4610:	17 96       	adiw	r26, 0x07	; 7
    4612:	2c 93       	st	X, r18
    4614:	01 96       	adiw	r24, 0x01	; 1
    4616:	84 30       	cpi	r24, 0x04	; 4
    4618:	91 05       	cpc	r25, r1
    461a:	a9 f6       	brne	.-86     	; 0x45c6 <KB_KeyboardProcess+0x3f2>
    461c:	80 91 63 08 	lds	r24, 0x0863	; 0x800863 <synch_kb_exposed_to_app+0x1>
    4620:	8f 5f       	subi	r24, 0xFF	; 255
    4622:	80 93 63 08 	sts	0x0863, r24	; 0x800863 <synch_kb_exposed_to_app+0x1>
    4626:	5a c0       	rjmp	.+180    	; 0x46dc <KB_KeyboardProcess+0x508>
    4628:	80 91 64 08 	lds	r24, 0x0864	; 0x800864 <synch_kb_exposed_to_app+0x2>
    462c:	82 30       	cpi	r24, 0x02	; 2
    462e:	91 f5       	brne	.+100    	; 0x4694 <KB_KeyboardProcess+0x4c0>
    4630:	80 e0       	ldi	r24, 0x00	; 0
    4632:	90 e0       	ldi	r25, 0x00	; 0
    4634:	30 91 97 07 	lds	r19, 0x0797	; 0x800797 <key_change_layout>
    4638:	dc 01       	movw	r26, r24
    463a:	63 e0       	ldi	r22, 0x03	; 3
    463c:	aa 0f       	add	r26, r26
    463e:	bb 1f       	adc	r27, r27
    4640:	6a 95       	dec	r22
    4642:	e1 f7       	brne	.-8      	; 0x463c <KB_KeyboardProcess+0x468>
    4644:	ae 5b       	subi	r26, 0xBE	; 190
    4646:	b7 4f       	sbci	r27, 0xF7	; 247
    4648:	16 96       	adiw	r26, 0x06	; 6
    464a:	2c 91       	ld	r18, X
    464c:	16 97       	sbiw	r26, 0x06	; 6
    464e:	fc 01       	movw	r30, r24
    4650:	44 e0       	ldi	r20, 0x04	; 4
    4652:	34 9f       	mul	r19, r20
    4654:	e0 0d       	add	r30, r0
    4656:	f1 1d       	adc	r31, r1
    4658:	11 24       	eor	r1, r1
    465a:	ee 0f       	add	r30, r30
    465c:	ff 1f       	adc	r31, r31
    465e:	e9 56       	subi	r30, 0x69	; 105
    4660:	f8 4f       	sbci	r31, 0xF8	; 248
    4662:	21 83       	std	Z+1, r18	; 0x01
    4664:	30 91 97 07 	lds	r19, 0x0797	; 0x800797 <key_change_layout>
    4668:	17 96       	adiw	r26, 0x07	; 7
    466a:	2c 91       	ld	r18, X
    466c:	fc 01       	movw	r30, r24
    466e:	44 e0       	ldi	r20, 0x04	; 4
    4670:	34 9f       	mul	r19, r20
    4672:	e0 0d       	add	r30, r0
    4674:	f1 1d       	adc	r31, r1
    4676:	11 24       	eor	r1, r1
    4678:	ee 0f       	add	r30, r30
    467a:	ff 1f       	adc	r31, r31
    467c:	e7 56       	subi	r30, 0x67	; 103
    467e:	f8 4f       	sbci	r31, 0xF8	; 248
    4680:	20 83       	st	Z, r18
    4682:	01 96       	adiw	r24, 0x01	; 1
    4684:	84 30       	cpi	r24, 0x04	; 4
    4686:	91 05       	cpc	r25, r1
    4688:	a9 f6       	brne	.-86     	; 0x4634 <KB_KeyboardProcess+0x460>
    468a:	80 91 97 07 	lds	r24, 0x0797	; 0x800797 <key_change_layout>
    468e:	8f 5f       	subi	r24, 0xFF	; 255
    4690:	80 93 97 07 	sts	0x0797, r24	; 0x800797 <key_change_layout>
    4694:	80 e0       	ldi	r24, 0x00	; 0
    4696:	90 e0       	ldi	r25, 0x00	; 0
    4698:	e0 91 65 08 	lds	r30, 0x0865	; 0x800865 <synch_kb_exposed_to_app+0x3>
    469c:	f0 91 66 08 	lds	r31, 0x0866	; 0x800866 <synch_kb_exposed_to_app+0x4>
    46a0:	9c 01       	movw	r18, r24
    46a2:	22 0f       	add	r18, r18
    46a4:	33 1f       	adc	r19, r19
    46a6:	e2 0f       	add	r30, r18
    46a8:	f3 1f       	adc	r31, r19
    46aa:	40 81       	ld	r20, Z
    46ac:	fc 01       	movw	r30, r24
    46ae:	53 e0       	ldi	r21, 0x03	; 3
    46b0:	ee 0f       	add	r30, r30
    46b2:	ff 1f       	adc	r31, r31
    46b4:	5a 95       	dec	r21
    46b6:	e1 f7       	brne	.-8      	; 0x46b0 <KB_KeyboardProcess+0x4dc>
    46b8:	ee 5b       	subi	r30, 0xBE	; 190
    46ba:	f7 4f       	sbci	r31, 0xF7	; 247
    46bc:	46 83       	std	Z+6, r20	; 0x06
    46be:	40 91 65 08 	lds	r20, 0x0865	; 0x800865 <synch_kb_exposed_to_app+0x3>
    46c2:	50 91 66 08 	lds	r21, 0x0866	; 0x800866 <synch_kb_exposed_to_app+0x4>
    46c6:	da 01       	movw	r26, r20
    46c8:	a2 0f       	add	r26, r18
    46ca:	b3 1f       	adc	r27, r19
    46cc:	11 96       	adiw	r26, 0x01	; 1
    46ce:	2c 91       	ld	r18, X
    46d0:	27 83       	std	Z+7, r18	; 0x07
    46d2:	01 96       	adiw	r24, 0x01	; 1
    46d4:	84 30       	cpi	r24, 0x04	; 4
    46d6:	91 05       	cpc	r25, r1
    46d8:	f9 f6       	brne	.-66     	; 0x4698 <KB_KeyboardProcess+0x4c4>
    46da:	a0 cf       	rjmp	.-192    	; 0x461c <KB_KeyboardProcess+0x448>
    46dc:	80 91 62 08 	lds	r24, 0x0862	; 0x800862 <synch_kb_exposed_to_app>
    46e0:	81 30       	cpi	r24, 0x01	; 1
    46e2:	e1 f4       	brne	.+56     	; 0x471c <KB_KeyboardProcess+0x548>
    46e4:	0e 94 81 20 	call	0x4102	; 0x4102 <kb_free_and_complete_ps>
    46e8:	88 23       	and	r24, r24
    46ea:	c1 f0       	breq	.+48     	; 0x471c <KB_KeyboardProcess+0x548>
    46ec:	80 91 62 08 	lds	r24, 0x0862	; 0x800862 <synch_kb_exposed_to_app>
    46f0:	8f 5f       	subi	r24, 0xFF	; 255
    46f2:	80 93 62 08 	sts	0x0862, r24	; 0x800862 <synch_kb_exposed_to_app>
    46f6:	12 c0       	rjmp	.+36     	; 0x471c <KB_KeyboardProcess+0x548>
    46f8:	92 83       	std	Z+2, r25	; 0x02
    46fa:	38 ce       	rjmp	.-912    	; 0x436c <KB_KeyboardProcess+0x198>
    46fc:	80 81       	ld	r24, Z
    46fe:	81 ff       	sbrs	r24, 1
    4700:	05 c0       	rjmp	.+10     	; 0x470c <KB_KeyboardProcess+0x538>
    4702:	fe 01       	movw	r30, r28
    4704:	ee 5b       	subi	r30, 0xBE	; 190
    4706:	f7 4f       	sbci	r31, 0xF7	; 247
    4708:	62 82       	std	Z+2, r6	; 0x02
    470a:	30 ce       	rjmp	.-928    	; 0x436c <KB_KeyboardProcess+0x198>
    470c:	80 81       	ld	r24, Z
    470e:	82 ff       	sbrs	r24, 2
    4710:	2d ce       	rjmp	.-934    	; 0x436c <KB_KeyboardProcess+0x198>
    4712:	fe 01       	movw	r30, r28
    4714:	ee 5b       	subi	r30, 0xBE	; 190
    4716:	f7 4f       	sbci	r31, 0xF7	; 247
    4718:	72 82       	std	Z+2, r7	; 0x02
    471a:	28 ce       	rjmp	.-944    	; 0x436c <KB_KeyboardProcess+0x198>
    471c:	df 91       	pop	r29
    471e:	cf 91       	pop	r28
    4720:	1f 91       	pop	r17
    4722:	0f 91       	pop	r16
    4724:	ff 90       	pop	r15
    4726:	ef 90       	pop	r14
    4728:	df 90       	pop	r13
    472a:	cf 90       	pop	r12
    472c:	bf 90       	pop	r11
    472e:	af 90       	pop	r10
    4730:	9f 90       	pop	r9
    4732:	8f 90       	pop	r8
    4734:	7f 90       	pop	r7
    4736:	6f 90       	pop	r6
    4738:	5f 90       	pop	r5
    473a:	4f 90       	pop	r4
    473c:	08 95       	ret

0000473e <synch_change_layout_kb>:
    473e:	e2 e6       	ldi	r30, 0x62	; 98
    4740:	f8 e0       	ldi	r31, 0x08	; 8
    4742:	82 83       	std	Z+2, r24	; 0x02
    4744:	74 83       	std	Z+4, r23	; 0x04
    4746:	63 83       	std	Z+3, r22	; 0x03
    4748:	9e ef       	ldi	r25, 0xFE	; 254
    474a:	90 93 69 08 	sts	0x0869, r25	; 0x800869 <kbhandler_app>
    474e:	08 95       	ret

00004750 <kb_handler0>:
    4750:	80 91 69 08 	lds	r24, 0x0869	; 0x800869 <kbhandler_app>
    4754:	8e 3f       	cpi	r24, 0xFE	; 254
    4756:	99 f4       	brne	.+38     	; 0x477e <kb_handler0+0x2e>
    4758:	80 91 63 08 	lds	r24, 0x0863	; 0x800863 <synch_kb_exposed_to_app+0x1>
    475c:	81 11       	cpse	r24, r1
    475e:	05 c0       	rjmp	.+10     	; 0x476a <kb_handler0+0x1a>
    4760:	80 91 63 08 	lds	r24, 0x0863	; 0x800863 <synch_kb_exposed_to_app+0x1>
    4764:	8f 5f       	subi	r24, 0xFF	; 255
    4766:	80 93 63 08 	sts	0x0863, r24	; 0x800863 <synch_kb_exposed_to_app+0x1>
    476a:	80 91 63 08 	lds	r24, 0x0863	; 0x800863 <synch_kb_exposed_to_app+0x1>
    476e:	82 30       	cpi	r24, 0x02	; 2
    4770:	09 f0       	breq	.+2      	; 0x4774 <kb_handler0+0x24>
    4772:	51 c0       	rjmp	.+162    	; 0x4816 <kb_handler0+0xc6>
    4774:	10 92 63 08 	sts	0x0863, r1	; 0x800863 <synch_kb_exposed_to_app+0x1>
    4778:	83 e0       	ldi	r24, 0x03	; 3
    477a:	80 93 69 08 	sts	0x0869, r24	; 0x800869 <kbhandler_app>
    477e:	80 91 69 08 	lds	r24, 0x0869	; 0x800869 <kbhandler_app>
    4782:	81 11       	cpse	r24, r1
    4784:	48 c0       	rjmp	.+144    	; 0x4816 <kb_handler0+0xc6>
    4786:	80 91 5f 08 	lds	r24, 0x085F	; 0x80085f <objkey+0x1d>
    478a:	81 fd       	sbrc	r24, 1
    478c:	18 c0       	rjmp	.+48     	; 0x47be <kb_handler0+0x6e>
    478e:	80 91 47 08 	lds	r24, 0x0847	; 0x800847 <objkey+0x5>
    4792:	85 ff       	sbrs	r24, 5
    4794:	03 c0       	rjmp	.+6      	; 0x479c <kb_handler0+0x4c>
    4796:	10 92 6a 08 	sts	0x086A, r1	; 0x80086a <kbhandler_app+0x1>
    479a:	0f c0       	rjmp	.+30     	; 0x47ba <kb_handler0+0x6a>
    479c:	80 91 4f 08 	lds	r24, 0x084F	; 0x80084f <objkey+0xd>
    47a0:	85 ff       	sbrs	r24, 5
    47a2:	04 c0       	rjmp	.+8      	; 0x47ac <kb_handler0+0x5c>
    47a4:	81 e0       	ldi	r24, 0x01	; 1
    47a6:	80 93 6a 08 	sts	0x086A, r24	; 0x80086a <kbhandler_app+0x1>
    47aa:	33 c0       	rjmp	.+102    	; 0x4812 <kb_handler0+0xc2>
    47ac:	80 91 57 08 	lds	r24, 0x0857	; 0x800857 <objkey+0x15>
    47b0:	85 ff       	sbrs	r24, 5
    47b2:	05 c0       	rjmp	.+10     	; 0x47be <kb_handler0+0x6e>
    47b4:	82 e0       	ldi	r24, 0x02	; 2
    47b6:	80 93 6a 08 	sts	0x086A, r24	; 0x80086a <kbhandler_app+0x1>
    47ba:	81 e0       	ldi	r24, 0x01	; 1
    47bc:	2a c0       	rjmp	.+84     	; 0x4812 <kb_handler0+0xc2>
    47be:	80 91 5f 08 	lds	r24, 0x085F	; 0x80085f <objkey+0x1d>
    47c2:	82 fb       	bst	r24, 2
    47c4:	99 27       	eor	r25, r25
    47c6:	90 f9       	bld	r25, 0
    47c8:	82 ff       	sbrs	r24, 2
    47ca:	12 c0       	rjmp	.+36     	; 0x47f0 <kb_handler0+0xa0>
    47cc:	90 93 0f 08 	sts	0x080F, r25	; 0x80080f <DimmHandler+0x7>
    47d0:	e0 91 83 08 	lds	r30, 0x0883	; 0x800883 <key+0x18>
    47d4:	f0 91 84 08 	lds	r31, 0x0884	; 0x800884 <key+0x19>
    47d8:	09 95       	icall
    47da:	80 91 5f 08 	lds	r24, 0x085F	; 0x80085f <objkey+0x1d>
    47de:	8b 7f       	andi	r24, 0xFB	; 251
    47e0:	80 93 5f 08 	sts	0x085F, r24	; 0x80085f <objkey+0x1d>
    47e4:	80 91 69 08 	lds	r24, 0x0869	; 0x800869 <kbhandler_app>
    47e8:	87 fd       	sbrc	r24, 7
    47ea:	15 c0       	rjmp	.+42     	; 0x4816 <kb_handler0+0xc6>
    47ec:	83 e0       	ldi	r24, 0x03	; 3
    47ee:	11 c0       	rjmp	.+34     	; 0x4812 <kb_handler0+0xc2>
    47f0:	80 91 5f 08 	lds	r24, 0x085F	; 0x80085f <objkey+0x1d>
    47f4:	81 ff       	sbrs	r24, 1
    47f6:	68 c0       	rjmp	.+208    	; 0x48c8 <kb_handler0+0x178>
    47f8:	80 91 47 08 	lds	r24, 0x0847	; 0x800847 <objkey+0x5>
    47fc:	85 fd       	sbrc	r24, 5
    47fe:	08 c0       	rjmp	.+16     	; 0x4810 <kb_handler0+0xc0>
    4800:	80 91 4f 08 	lds	r24, 0x084F	; 0x80084f <objkey+0xd>
    4804:	85 fd       	sbrc	r24, 5
    4806:	04 c0       	rjmp	.+8      	; 0x4810 <kb_handler0+0xc0>
    4808:	80 91 57 08 	lds	r24, 0x0857	; 0x800857 <objkey+0x15>
    480c:	85 ff       	sbrs	r24, 5
    480e:	5c c0       	rjmp	.+184    	; 0x48c8 <kb_handler0+0x178>
    4810:	82 e0       	ldi	r24, 0x02	; 2
    4812:	80 93 69 08 	sts	0x0869, r24	; 0x800869 <kbhandler_app>
    4816:	80 91 69 08 	lds	r24, 0x0869	; 0x800869 <kbhandler_app>
    481a:	81 30       	cpi	r24, 0x01	; 1
    481c:	09 f0       	breq	.+2      	; 0x4820 <kb_handler0+0xd0>
    481e:	54 c0       	rjmp	.+168    	; 0x48c8 <kb_handler0+0x178>
    4820:	80 91 47 08 	lds	r24, 0x0847	; 0x800847 <objkey+0x5>
    4824:	82 fb       	bst	r24, 2
    4826:	99 27       	eor	r25, r25
    4828:	90 f9       	bld	r25, 0
    482a:	82 ff       	sbrs	r24, 2
    482c:	0c c0       	rjmp	.+24     	; 0x4846 <kb_handler0+0xf6>
    482e:	80 91 47 08 	lds	r24, 0x0847	; 0x800847 <objkey+0x5>
    4832:	8b 7f       	andi	r24, 0xFB	; 251
    4834:	80 93 47 08 	sts	0x0847, r24	; 0x800847 <objkey+0x5>
    4838:	90 93 0f 08 	sts	0x080F, r25	; 0x80080f <DimmHandler+0x7>
    483c:	e0 91 6b 08 	lds	r30, 0x086B	; 0x80086b <key>
    4840:	f0 91 6c 08 	lds	r31, 0x086C	; 0x80086c <key+0x1>
    4844:	2e c0       	rjmp	.+92     	; 0x48a2 <kb_handler0+0x152>
    4846:	80 91 4f 08 	lds	r24, 0x084F	; 0x80084f <objkey+0xd>
    484a:	82 fb       	bst	r24, 2
    484c:	99 27       	eor	r25, r25
    484e:	90 f9       	bld	r25, 0
    4850:	82 ff       	sbrs	r24, 2
    4852:	0c c0       	rjmp	.+24     	; 0x486c <kb_handler0+0x11c>
    4854:	80 91 4f 08 	lds	r24, 0x084F	; 0x80084f <objkey+0xd>
    4858:	8b 7f       	andi	r24, 0xFB	; 251
    485a:	80 93 4f 08 	sts	0x084F, r24	; 0x80084f <objkey+0xd>
    485e:	90 93 0f 08 	sts	0x080F, r25	; 0x80080f <DimmHandler+0x7>
    4862:	e0 91 73 08 	lds	r30, 0x0873	; 0x800873 <key+0x8>
    4866:	f0 91 74 08 	lds	r31, 0x0874	; 0x800874 <key+0x9>
    486a:	1b c0       	rjmp	.+54     	; 0x48a2 <kb_handler0+0x152>
    486c:	80 91 57 08 	lds	r24, 0x0857	; 0x800857 <objkey+0x15>
    4870:	82 fb       	bst	r24, 2
    4872:	99 27       	eor	r25, r25
    4874:	90 f9       	bld	r25, 0
    4876:	82 ff       	sbrs	r24, 2
    4878:	15 c0       	rjmp	.+42     	; 0x48a4 <kb_handler0+0x154>
    487a:	80 91 57 08 	lds	r24, 0x0857	; 0x800857 <objkey+0x15>
    487e:	8b 7f       	andi	r24, 0xFB	; 251
    4880:	80 93 57 08 	sts	0x0857, r24	; 0x800857 <objkey+0x15>
    4884:	90 93 0f 08 	sts	0x080F, r25	; 0x80080f <DimmHandler+0x7>
    4888:	80 91 57 08 	lds	r24, 0x0857	; 0x800857 <objkey+0x15>
    488c:	83 fd       	sbrc	r24, 3
    488e:	05 c0       	rjmp	.+10     	; 0x489a <kb_handler0+0x14a>
    4890:	e0 91 7b 08 	lds	r30, 0x087B	; 0x80087b <key+0x10>
    4894:	f0 91 7c 08 	lds	r31, 0x087C	; 0x80087c <key+0x11>
    4898:	04 c0       	rjmp	.+8      	; 0x48a2 <kb_handler0+0x152>
    489a:	e0 91 7d 08 	lds	r30, 0x087D	; 0x80087d <key+0x12>
    489e:	f0 91 7e 08 	lds	r31, 0x087E	; 0x80087e <key+0x13>
    48a2:	09 95       	icall
    48a4:	80 91 69 08 	lds	r24, 0x0869	; 0x800869 <kbhandler_app>
    48a8:	87 fd       	sbrc	r24, 7
    48aa:	0e c0       	rjmp	.+28     	; 0x48c8 <kb_handler0+0x178>
    48ac:	e0 91 6a 08 	lds	r30, 0x086A	; 0x80086a <kbhandler_app+0x1>
    48b0:	88 e0       	ldi	r24, 0x08	; 8
    48b2:	e8 9f       	mul	r30, r24
    48b4:	f0 01       	movw	r30, r0
    48b6:	11 24       	eor	r1, r1
    48b8:	e9 5b       	subi	r30, 0xB9	; 185
    48ba:	f7 4f       	sbci	r31, 0xF7	; 247
    48bc:	80 81       	ld	r24, Z
    48be:	85 fd       	sbrc	r24, 5
    48c0:	03 c0       	rjmp	.+6      	; 0x48c8 <kb_handler0+0x178>
    48c2:	83 e0       	ldi	r24, 0x03	; 3
    48c4:	80 93 69 08 	sts	0x0869, r24	; 0x800869 <kbhandler_app>
    48c8:	80 91 69 08 	lds	r24, 0x0869	; 0x800869 <kbhandler_app>
    48cc:	82 30       	cpi	r24, 0x02	; 2
    48ce:	b9 f5       	brne	.+110    	; 0x493e <kb_handler0+0x1ee>
    48d0:	80 91 5f 08 	lds	r24, 0x085F	; 0x80085f <objkey+0x1d>
    48d4:	81 fb       	bst	r24, 1
    48d6:	99 27       	eor	r25, r25
    48d8:	90 f9       	bld	r25, 0
    48da:	81 ff       	sbrs	r24, 1
    48dc:	2d c0       	rjmp	.+90     	; 0x4938 <kb_handler0+0x1e8>
    48de:	90 93 0f 08 	sts	0x080F, r25	; 0x80080f <DimmHandler+0x7>
    48e2:	80 91 47 08 	lds	r24, 0x0847	; 0x800847 <objkey+0x5>
    48e6:	82 ff       	sbrs	r24, 2
    48e8:	0a c0       	rjmp	.+20     	; 0x48fe <kb_handler0+0x1ae>
    48ea:	80 91 47 08 	lds	r24, 0x0847	; 0x800847 <objkey+0x5>
    48ee:	8b 7f       	andi	r24, 0xFB	; 251
    48f0:	80 93 47 08 	sts	0x0847, r24	; 0x800847 <objkey+0x5>
    48f4:	e0 91 6f 08 	lds	r30, 0x086F	; 0x80086f <key+0x4>
    48f8:	f0 91 70 08 	lds	r31, 0x0870	; 0x800870 <key+0x5>
    48fc:	09 95       	icall
    48fe:	80 91 4f 08 	lds	r24, 0x084F	; 0x80084f <objkey+0xd>
    4902:	82 ff       	sbrs	r24, 2
    4904:	0a c0       	rjmp	.+20     	; 0x491a <kb_handler0+0x1ca>
    4906:	80 91 4f 08 	lds	r24, 0x084F	; 0x80084f <objkey+0xd>
    490a:	8b 7f       	andi	r24, 0xFB	; 251
    490c:	80 93 4f 08 	sts	0x084F, r24	; 0x80084f <objkey+0xd>
    4910:	e0 91 77 08 	lds	r30, 0x0877	; 0x800877 <key+0xc>
    4914:	f0 91 78 08 	lds	r31, 0x0878	; 0x800878 <key+0xd>
    4918:	09 95       	icall
    491a:	80 91 57 08 	lds	r24, 0x0857	; 0x800857 <objkey+0x15>
    491e:	85 ff       	sbrs	r24, 5
    4920:	0e c0       	rjmp	.+28     	; 0x493e <kb_handler0+0x1ee>
    4922:	80 91 57 08 	lds	r24, 0x0857	; 0x800857 <objkey+0x15>
    4926:	8b 7f       	andi	r24, 0xFB	; 251
    4928:	80 93 57 08 	sts	0x0857, r24	; 0x800857 <objkey+0x15>
    492c:	e0 91 7f 08 	lds	r30, 0x087F	; 0x80087f <key+0x14>
    4930:	f0 91 80 08 	lds	r31, 0x0880	; 0x800880 <key+0x15>
    4934:	09 95       	icall
    4936:	03 c0       	rjmp	.+6      	; 0x493e <kb_handler0+0x1ee>
    4938:	83 e0       	ldi	r24, 0x03	; 3
    493a:	80 93 69 08 	sts	0x0869, r24	; 0x800869 <kbhandler_app>
    493e:	80 91 69 08 	lds	r24, 0x0869	; 0x800869 <kbhandler_app>
    4942:	83 30       	cpi	r24, 0x03	; 3
    4944:	a1 f4       	brne	.+40     	; 0x496e <kb_handler0+0x21e>
    4946:	80 91 62 08 	lds	r24, 0x0862	; 0x800862 <synch_kb_exposed_to_app>
    494a:	81 11       	cpse	r24, r1
    494c:	05 c0       	rjmp	.+10     	; 0x4958 <kb_handler0+0x208>
    494e:	80 91 62 08 	lds	r24, 0x0862	; 0x800862 <synch_kb_exposed_to_app>
    4952:	8f 5f       	subi	r24, 0xFF	; 255
    4954:	80 93 62 08 	sts	0x0862, r24	; 0x800862 <synch_kb_exposed_to_app>
    4958:	80 91 62 08 	lds	r24, 0x0862	; 0x800862 <synch_kb_exposed_to_app>
    495c:	82 30       	cpi	r24, 0x02	; 2
    495e:	21 f4       	brne	.+8      	; 0x4968 <kb_handler0+0x218>
    4960:	10 92 62 08 	sts	0x0862, r1	; 0x800862 <synch_kb_exposed_to_app>
    4964:	10 92 69 08 	sts	0x0869, r1	; 0x800869 <kbhandler_app>
    4968:	81 e0       	ldi	r24, 0x01	; 1
    496a:	80 93 0f 08 	sts	0x080F, r24	; 0x80080f <DimmHandler+0x7>
    496e:	08 95       	ret

00004970 <change_operating_mode>:
    4970:	cf 93       	push	r28
    4972:	df 93       	push	r29
    4974:	dc 01       	movw	r26, r24
    4976:	28 e0       	ldi	r18, 0x08	; 8
    4978:	62 9f       	mul	r22, r18
    497a:	a0 0d       	add	r26, r0
    497c:	b1 1d       	adc	r27, r1
    497e:	11 24       	eor	r1, r1
    4980:	eb e6       	ldi	r30, 0x6B	; 107
    4982:	f8 e0       	ldi	r31, 0x08	; 8
    4984:	8d 91       	ld	r24, X+
    4986:	9d 91       	ld	r25, X+
    4988:	91 83       	std	Z+1, r25	; 0x01
    498a:	80 83       	st	Z, r24
    498c:	5e 96       	adiw	r26, 0x1e	; 30
    498e:	8d 91       	ld	r24, X+
    4990:	9c 91       	ld	r25, X
    4992:	5f 97       	sbiw	r26, 0x1f	; 31
    4994:	93 83       	std	Z+3, r25	; 0x03
    4996:	82 83       	std	Z+2, r24	; 0x02
    4998:	de 96       	adiw	r26, 0x3e	; 62
    499a:	8d 91       	ld	r24, X+
    499c:	9c 91       	ld	r25, X
    499e:	df 97       	sbiw	r26, 0x3f	; 63
    49a0:	95 83       	std	Z+5, r25	; 0x05
    49a2:	84 83       	std	Z+4, r24	; 0x04
    49a4:	ed 01       	movw	r28, r26
    49a6:	c2 5a       	subi	r28, 0xA2	; 162
    49a8:	df 4f       	sbci	r29, 0xFF	; 255
    49aa:	88 81       	ld	r24, Y
    49ac:	99 81       	ldd	r25, Y+1	; 0x01
    49ae:	97 83       	std	Z+7, r25	; 0x07
    49b0:	86 83       	std	Z+6, r24	; 0x06
    49b2:	38 96       	adiw	r30, 0x08	; 8
    49b4:	88 e0       	ldi	r24, 0x08	; 8
    49b6:	eb 38       	cpi	r30, 0x8B	; 139
    49b8:	f8 07       	cpc	r31, r24
    49ba:	21 f7       	brne	.-56     	; 0x4984 <change_operating_mode+0x14>
    49bc:	df 91       	pop	r29
    49be:	cf 91       	pop	r28
    49c0:	08 95       	ret

000049c2 <_save_address_fxs>:
    49c2:	ab e6       	ldi	r26, 0x6B	; 107
    49c4:	b8 e0       	ldi	r27, 0x08	; 8
    49c6:	20 e2       	ldi	r18, 0x20	; 32
    49c8:	82 9f       	mul	r24, r18
    49ca:	c0 01       	movw	r24, r0
    49cc:	11 24       	eor	r1, r1
    49ce:	fc 01       	movw	r30, r24
    49d0:	e5 57       	subi	r30, 0x75	; 117
    49d2:	f7 4f       	sbci	r31, 0xF7	; 247
    49d4:	8d 91       	ld	r24, X+
    49d6:	9c 91       	ld	r25, X
    49d8:	11 97       	sbiw	r26, 0x01	; 1
    49da:	91 83       	std	Z+1, r25	; 0x01
    49dc:	80 83       	st	Z, r24
    49de:	12 96       	adiw	r26, 0x02	; 2
    49e0:	8d 91       	ld	r24, X+
    49e2:	9c 91       	ld	r25, X
    49e4:	13 97       	sbiw	r26, 0x03	; 3
    49e6:	93 83       	std	Z+3, r25	; 0x03
    49e8:	82 83       	std	Z+2, r24	; 0x02
    49ea:	14 96       	adiw	r26, 0x04	; 4
    49ec:	8d 91       	ld	r24, X+
    49ee:	9c 91       	ld	r25, X
    49f0:	15 97       	sbiw	r26, 0x05	; 5
    49f2:	95 83       	std	Z+5, r25	; 0x05
    49f4:	84 83       	std	Z+4, r24	; 0x04
    49f6:	16 96       	adiw	r26, 0x06	; 6
    49f8:	8d 91       	ld	r24, X+
    49fa:	9c 91       	ld	r25, X
    49fc:	17 97       	sbiw	r26, 0x07	; 7
    49fe:	97 83       	std	Z+7, r25	; 0x07
    4a00:	86 83       	std	Z+6, r24	; 0x06
    4a02:	18 96       	adiw	r26, 0x08	; 8
    4a04:	38 96       	adiw	r30, 0x08	; 8
    4a06:	88 e0       	ldi	r24, 0x08	; 8
    4a08:	ab 38       	cpi	r26, 0x8B	; 139
    4a0a:	b8 07       	cpc	r27, r24
    4a0c:	19 f7       	brne	.-58     	; 0x49d4 <_save_address_fxs+0x12>
    4a0e:	08 95       	ret

00004a10 <_restore_address_fxs>:
    4a10:	20 e2       	ldi	r18, 0x20	; 32
    4a12:	82 9f       	mul	r24, r18
    4a14:	c0 01       	movw	r24, r0
    4a16:	11 24       	eor	r1, r1
    4a18:	fc 01       	movw	r30, r24
    4a1a:	e5 57       	subi	r30, 0x75	; 117
    4a1c:	f7 4f       	sbci	r31, 0xF7	; 247
    4a1e:	ab e6       	ldi	r26, 0x6B	; 107
    4a20:	b8 e0       	ldi	r27, 0x08	; 8
    4a22:	80 81       	ld	r24, Z
    4a24:	91 81       	ldd	r25, Z+1	; 0x01
    4a26:	11 96       	adiw	r26, 0x01	; 1
    4a28:	9c 93       	st	X, r25
    4a2a:	8e 93       	st	-X, r24
    4a2c:	82 81       	ldd	r24, Z+2	; 0x02
    4a2e:	93 81       	ldd	r25, Z+3	; 0x03
    4a30:	13 96       	adiw	r26, 0x03	; 3
    4a32:	9c 93       	st	X, r25
    4a34:	8e 93       	st	-X, r24
    4a36:	12 97       	sbiw	r26, 0x02	; 2
    4a38:	84 81       	ldd	r24, Z+4	; 0x04
    4a3a:	95 81       	ldd	r25, Z+5	; 0x05
    4a3c:	15 96       	adiw	r26, 0x05	; 5
    4a3e:	9c 93       	st	X, r25
    4a40:	8e 93       	st	-X, r24
    4a42:	14 97       	sbiw	r26, 0x04	; 4
    4a44:	86 81       	ldd	r24, Z+6	; 0x06
    4a46:	97 81       	ldd	r25, Z+7	; 0x07
    4a48:	17 96       	adiw	r26, 0x07	; 7
    4a4a:	9c 93       	st	X, r25
    4a4c:	8e 93       	st	-X, r24
    4a4e:	16 97       	sbiw	r26, 0x06	; 6
    4a50:	38 96       	adiw	r30, 0x08	; 8
    4a52:	18 96       	adiw	r26, 0x08	; 8
    4a54:	88 e0       	ldi	r24, 0x08	; 8
    4a56:	ab 38       	cpi	r26, 0x8B	; 139
    4a58:	b8 07       	cpc	r27, r24
    4a5a:	19 f7       	brne	.-58     	; 0x4a22 <_restore_address_fxs+0x12>
    4a5c:	08 95       	ret

00004a5e <push_address_fx>:
    4a5e:	cf 93       	push	r28
    4a60:	df 93       	push	r29
    4a62:	cb ec       	ldi	r28, 0xCB	; 203
    4a64:	d9 e0       	ldi	r29, 0x09	; 9
    4a66:	88 81       	ld	r24, Y
    4a68:	0e 94 e1 24 	call	0x49c2	; 0x49c2 <_save_address_fxs>
    4a6c:	88 81       	ld	r24, Y
    4a6e:	8f 5f       	subi	r24, 0xFF	; 255
    4a70:	88 83       	st	Y, r24
    4a72:	df 91       	pop	r29
    4a74:	cf 91       	pop	r28
    4a76:	08 95       	ret

00004a78 <pop_address_fx>:
    4a78:	eb ec       	ldi	r30, 0xCB	; 203
    4a7a:	f9 e0       	ldi	r31, 0x09	; 9
    4a7c:	80 81       	ld	r24, Z
    4a7e:	81 50       	subi	r24, 0x01	; 1
    4a80:	80 83       	st	Z, r24
    4a82:	0c 94 08 25 	jmp	0x4a10	; 0x4a10 <_restore_address_fxs>

00004a86 <DUMMYFX>:
    4a86:	08 95       	ret

00004a88 <ks0108ReadFontData>:
    4a88:	fc 01       	movw	r30, r24
    4a8a:	84 91       	lpm	r24, Z
    4a8c:	08 95       	ret

00004a8e <ks0108SelectFont>:
    4a8e:	90 93 d3 09 	sts	0x09D3, r25	; 0x8009d3 <ks0108Font+0x1>
    4a92:	80 93 d2 09 	sts	0x09D2, r24	; 0x8009d2 <ks0108Font>
    4a96:	70 93 d1 09 	sts	0x09D1, r23	; 0x8009d1 <ks0108FontRead+0x1>
    4a9a:	60 93 d0 09 	sts	0x09D0, r22	; 0x8009d0 <ks0108FontRead>
    4a9e:	40 93 cc 09 	sts	0x09CC, r20	; 0x8009cc <ks0108FontColor>
    4aa2:	08 95       	ret

00004aa4 <ks0108WriteCommand>:
    4aa4:	cf 93       	push	r28
    4aa6:	df 93       	push	r29
    4aa8:	1f 92       	push	r1
    4aaa:	cd b7       	in	r28, 0x3d	; 61
    4aac:	de b7       	in	r29, 0x3e	; 62
    4aae:	61 11       	cpse	r22, r1
    4ab0:	0b c0       	rjmp	.+22     	; 0x4ac8 <ks0108WriteCommand+0x24>
    4ab2:	9f b7       	in	r25, 0x3f	; 63
    4ab4:	90 93 d4 09 	sts	0x09D4, r25	; 0x8009d4 <_sreg_temp_main_>
    4ab8:	f8 94       	cli
    4aba:	90 91 65 00 	lds	r25, 0x0065	; 0x800065 <__TEXT_REGION_LENGTH__+0x7e0065>
    4abe:	9b 7f       	andi	r25, 0xFB	; 251
    4ac0:	90 93 65 00 	sts	0x0065, r25	; 0x800065 <__TEXT_REGION_LENGTH__+0x7e0065>
    4ac4:	de 9a       	sbi	0x1b, 6	; 27
    4ac6:	0c c0       	rjmp	.+24     	; 0x4ae0 <ks0108WriteCommand+0x3c>
    4ac8:	61 30       	cpi	r22, 0x01	; 1
    4aca:	61 f4       	brne	.+24     	; 0x4ae4 <ks0108WriteCommand+0x40>
    4acc:	9f b7       	in	r25, 0x3f	; 63
    4ace:	90 93 d4 09 	sts	0x09D4, r25	; 0x8009d4 <_sreg_temp_main_>
    4ad2:	f8 94       	cli
    4ad4:	90 91 65 00 	lds	r25, 0x0065	; 0x800065 <__TEXT_REGION_LENGTH__+0x7e0065>
    4ad8:	94 60       	ori	r25, 0x04	; 4
    4ada:	90 93 65 00 	sts	0x0065, r25	; 0x800065 <__TEXT_REGION_LENGTH__+0x7e0065>
    4ade:	de 98       	cbi	0x1b, 6	; 27
    4ae0:	dd 9a       	sbi	0x1b, 5	; 27
    4ae2:	0d c0       	rjmp	.+26     	; 0x4afe <ks0108WriteCommand+0x5a>
    4ae4:	62 30       	cpi	r22, 0x02	; 2
    4ae6:	71 f4       	brne	.+28     	; 0x4b04 <ks0108WriteCommand+0x60>
    4ae8:	9f b7       	in	r25, 0x3f	; 63
    4aea:	90 93 d4 09 	sts	0x09D4, r25	; 0x8009d4 <_sreg_temp_main_>
    4aee:	f8 94       	cli
    4af0:	90 91 65 00 	lds	r25, 0x0065	; 0x800065 <__TEXT_REGION_LENGTH__+0x7e0065>
    4af4:	94 60       	ori	r25, 0x04	; 4
    4af6:	90 93 65 00 	sts	0x0065, r25	; 0x800065 <__TEXT_REGION_LENGTH__+0x7e0065>
    4afa:	de 9a       	sbi	0x1b, 6	; 27
    4afc:	dd 98       	cbi	0x1b, 5	; 27
    4afe:	90 91 d4 09 	lds	r25, 0x09D4	; 0x8009d4 <_sreg_temp_main_>
    4b02:	9f bf       	out	0x3f, r25	; 63
    4b04:	97 98       	cbi	0x12, 7	; 18
    4b06:	9f b7       	in	r25, 0x3f	; 63
    4b08:	90 93 d4 09 	sts	0x09D4, r25	; 0x8009d4 <_sreg_temp_main_>
    4b0c:	f8 94       	cli
    4b0e:	90 91 65 00 	lds	r25, 0x0065	; 0x800065 <__TEXT_REGION_LENGTH__+0x7e0065>
    4b12:	9e 7f       	andi	r25, 0xFE	; 254
    4b14:	90 93 65 00 	sts	0x0065, r25	; 0x800065 <__TEXT_REGION_LENGTH__+0x7e0065>
    4b18:	90 91 d4 09 	lds	r25, 0x09D4	; 0x8009d4 <_sreg_temp_main_>
    4b1c:	9f bf       	out	0x3f, r25	; 63
    4b1e:	9f ef       	ldi	r25, 0xFF	; 255
    4b20:	94 bb       	out	0x14, r25	; 20
    4b22:	85 bb       	out	0x15, r24	; 21
	...
    4b3c:	8f b7       	in	r24, 0x3f	; 63
    4b3e:	80 93 d4 09 	sts	0x09D4, r24	; 0x8009d4 <_sreg_temp_main_>
    4b42:	f8 94       	cli
    4b44:	80 91 65 00 	lds	r24, 0x0065	; 0x800065 <__TEXT_REGION_LENGTH__+0x7e0065>
    4b48:	82 60       	ori	r24, 0x02	; 2
    4b4a:	80 93 65 00 	sts	0x0065, r24	; 0x800065 <__TEXT_REGION_LENGTH__+0x7e0065>
    4b4e:	80 91 d4 09 	lds	r24, 0x09D4	; 0x8009d4 <_sreg_temp_main_>
    4b52:	8f bf       	out	0x3f, r24	; 63
	...
    4b6c:	00 00       	nop
    4b6e:	8f b7       	in	r24, 0x3f	; 63
    4b70:	80 93 d4 09 	sts	0x09D4, r24	; 0x8009d4 <_sreg_temp_main_>
    4b74:	f8 94       	cli
    4b76:	80 91 65 00 	lds	r24, 0x0065	; 0x800065 <__TEXT_REGION_LENGTH__+0x7e0065>
    4b7a:	8d 7f       	andi	r24, 0xFD	; 253
    4b7c:	80 93 65 00 	sts	0x0065, r24	; 0x800065 <__TEXT_REGION_LENGTH__+0x7e0065>
    4b80:	80 91 d4 09 	lds	r24, 0x09D4	; 0x8009d4 <_sreg_temp_main_>
    4b84:	8f bf       	out	0x3f, r24	; 63
    4b86:	19 82       	std	Y+1, r1	; 0x01
    4b88:	89 81       	ldd	r24, Y+1	; 0x01
    4b8a:	88 30       	cpi	r24, 0x08	; 8
    4b8c:	20 f4       	brcc	.+8      	; 0x4b96 <ks0108WriteCommand+0xf2>
    4b8e:	89 81       	ldd	r24, Y+1	; 0x01
    4b90:	8f 5f       	subi	r24, 0xFF	; 255
    4b92:	89 83       	std	Y+1, r24	; 0x01
    4b94:	f9 cf       	rjmp	.-14     	; 0x4b88 <ks0108WriteCommand+0xe4>
	...
    4baa:	15 ba       	out	0x15, r1	; 21
    4bac:	0f 90       	pop	r0
    4bae:	df 91       	pop	r29
    4bb0:	cf 91       	pop	r28
    4bb2:	08 95       	ret

00004bb4 <ks0108GotoXY>:
    4bb4:	cf 93       	push	r28
    4bb6:	80 3c       	cpi	r24, 0xC0	; 192
    4bb8:	c0 f4       	brcc	.+48     	; 0x4bea <ks0108GotoXY+0x36>
    4bba:	60 34       	cpi	r22, 0x40	; 64
    4bbc:	08 f0       	brcs	.+2      	; 0x4bc0 <ks0108GotoXY+0xc>
    4bbe:	60 e0       	ldi	r22, 0x00	; 0
    4bc0:	80 93 cd 09 	sts	0x09CD, r24	; 0x8009cd <ks0108Coord>
    4bc4:	60 93 ce 09 	sts	0x09CE, r22	; 0x8009ce <ks0108Coord+0x1>
    4bc8:	66 95       	lsr	r22
    4bca:	66 95       	lsr	r22
    4bcc:	66 95       	lsr	r22
    4bce:	60 93 cf 09 	sts	0x09CF, r22	; 0x8009cf <ks0108Coord+0x2>
    4bd2:	90 ec       	ldi	r25, 0xC0	; 192
    4bd4:	98 0f       	add	r25, r24
    4bd6:	90 34       	cpi	r25, 0x40	; 64
    4bd8:	30 f0       	brcs	.+12     	; 0x4be6 <ks0108GotoXY+0x32>
    4bda:	98 2f       	mov	r25, r24
    4bdc:	87 ff       	sbrs	r24, 7
    4bde:	0e c0       	rjmp	.+28     	; 0x4bfc <ks0108GotoXY+0x48>
    4be0:	90 58       	subi	r25, 0x80	; 128
    4be2:	62 e0       	ldi	r22, 0x02	; 2
    4be4:	0c c0       	rjmp	.+24     	; 0x4bfe <ks0108GotoXY+0x4a>
    4be6:	61 e0       	ldi	r22, 0x01	; 1
    4be8:	0a c0       	rjmp	.+20     	; 0x4bfe <ks0108GotoXY+0x4a>
    4bea:	10 92 cd 09 	sts	0x09CD, r1	; 0x8009cd <ks0108Coord>
    4bee:	60 34       	cpi	r22, 0x40	; 64
    4bf0:	d0 f0       	brcs	.+52     	; 0x4c26 <ks0108GotoXY+0x72>
    4bf2:	10 92 ce 09 	sts	0x09CE, r1	; 0x8009ce <ks0108Coord+0x1>
    4bf6:	10 92 cf 09 	sts	0x09CF, r1	; 0x8009cf <ks0108Coord+0x2>
    4bfa:	90 e0       	ldi	r25, 0x00	; 0
    4bfc:	60 e0       	ldi	r22, 0x00	; 0
    4bfe:	89 2f       	mov	r24, r25
    4c00:	80 64       	ori	r24, 0x40	; 64
    4c02:	0e 94 52 25 	call	0x4aa4	; 0x4aa4 <ks0108WriteCommand>
    4c06:	c0 91 cf 09 	lds	r28, 0x09CF	; 0x8009cf <ks0108Coord+0x2>
    4c0a:	c8 6b       	ori	r28, 0xB8	; 184
    4c0c:	60 e0       	ldi	r22, 0x00	; 0
    4c0e:	8c 2f       	mov	r24, r28
    4c10:	0e 94 52 25 	call	0x4aa4	; 0x4aa4 <ks0108WriteCommand>
    4c14:	61 e0       	ldi	r22, 0x01	; 1
    4c16:	8c 2f       	mov	r24, r28
    4c18:	0e 94 52 25 	call	0x4aa4	; 0x4aa4 <ks0108WriteCommand>
    4c1c:	62 e0       	ldi	r22, 0x02	; 2
    4c1e:	8c 2f       	mov	r24, r28
    4c20:	cf 91       	pop	r28
    4c22:	0c 94 52 25 	jmp	0x4aa4	; 0x4aa4 <ks0108WriteCommand>
    4c26:	60 93 ce 09 	sts	0x09CE, r22	; 0x8009ce <ks0108Coord+0x1>
    4c2a:	66 95       	lsr	r22
    4c2c:	66 95       	lsr	r22
    4c2e:	66 95       	lsr	r22
    4c30:	60 93 cf 09 	sts	0x09CF, r22	; 0x8009cf <ks0108Coord+0x2>
    4c34:	e2 cf       	rjmp	.-60     	; 0x4bfa <ks0108GotoXY+0x46>

00004c36 <ks0108DoReadData>:
    4c36:	1f 93       	push	r17
    4c38:	cf 93       	push	r28
    4c3a:	df 93       	push	r29
    4c3c:	1f 92       	push	r1
    4c3e:	cd b7       	in	r28, 0x3d	; 61
    4c40:	de b7       	in	r29, 0x3e	; 62
    4c42:	18 2f       	mov	r17, r24
    4c44:	15 ba       	out	0x15, r1	; 21
    4c46:	14 ba       	out	0x14, r1	; 20
    4c48:	80 91 cd 09 	lds	r24, 0x09CD	; 0x8009cd <ks0108Coord>
    4c4c:	80 34       	cpi	r24, 0x40	; 64
    4c4e:	58 f4       	brcc	.+22     	; 0x4c66 <ks0108DoReadData+0x30>
    4c50:	8f b7       	in	r24, 0x3f	; 63
    4c52:	80 93 d4 09 	sts	0x09D4, r24	; 0x8009d4 <_sreg_temp_main_>
    4c56:	f8 94       	cli
    4c58:	80 91 65 00 	lds	r24, 0x0065	; 0x800065 <__TEXT_REGION_LENGTH__+0x7e0065>
    4c5c:	8b 7f       	andi	r24, 0xFB	; 251
    4c5e:	80 93 65 00 	sts	0x0065, r24	; 0x800065 <__TEXT_REGION_LENGTH__+0x7e0065>
    4c62:	de 9a       	sbi	0x1b, 6	; 27
    4c64:	0d c0       	rjmp	.+26     	; 0x4c80 <ks0108DoReadData+0x4a>
    4c66:	80 54       	subi	r24, 0x40	; 64
    4c68:	80 34       	cpi	r24, 0x40	; 64
    4c6a:	60 f4       	brcc	.+24     	; 0x4c84 <ks0108DoReadData+0x4e>
    4c6c:	8f b7       	in	r24, 0x3f	; 63
    4c6e:	80 93 d4 09 	sts	0x09D4, r24	; 0x8009d4 <_sreg_temp_main_>
    4c72:	f8 94       	cli
    4c74:	80 91 65 00 	lds	r24, 0x0065	; 0x800065 <__TEXT_REGION_LENGTH__+0x7e0065>
    4c78:	84 60       	ori	r24, 0x04	; 4
    4c7a:	80 93 65 00 	sts	0x0065, r24	; 0x800065 <__TEXT_REGION_LENGTH__+0x7e0065>
    4c7e:	de 98       	cbi	0x1b, 6	; 27
    4c80:	dd 9a       	sbi	0x1b, 5	; 27
    4c82:	0b c0       	rjmp	.+22     	; 0x4c9a <ks0108DoReadData+0x64>
    4c84:	8f b7       	in	r24, 0x3f	; 63
    4c86:	80 93 d4 09 	sts	0x09D4, r24	; 0x8009d4 <_sreg_temp_main_>
    4c8a:	f8 94       	cli
    4c8c:	80 91 65 00 	lds	r24, 0x0065	; 0x800065 <__TEXT_REGION_LENGTH__+0x7e0065>
    4c90:	84 60       	ori	r24, 0x04	; 4
    4c92:	80 93 65 00 	sts	0x0065, r24	; 0x800065 <__TEXT_REGION_LENGTH__+0x7e0065>
    4c96:	de 9a       	sbi	0x1b, 6	; 27
    4c98:	dd 98       	cbi	0x1b, 5	; 27
    4c9a:	80 91 d4 09 	lds	r24, 0x09D4	; 0x8009d4 <_sreg_temp_main_>
    4c9e:	8f bf       	out	0x3f, r24	; 63
    4ca0:	80 91 cd 09 	lds	r24, 0x09CD	; 0x8009cd <ks0108Coord>
    4ca4:	80 34       	cpi	r24, 0x40	; 64
    4ca6:	29 f4       	brne	.+10     	; 0x4cb2 <ks0108DoReadData+0x7c>
    4ca8:	11 23       	and	r17, r17
    4caa:	19 f0       	breq	.+6      	; 0x4cb2 <ks0108DoReadData+0x7c>
    4cac:	61 e0       	ldi	r22, 0x01	; 1
    4cae:	0e 94 52 25 	call	0x4aa4	; 0x4aa4 <ks0108WriteCommand>
    4cb2:	80 91 cd 09 	lds	r24, 0x09CD	; 0x8009cd <ks0108Coord>
    4cb6:	80 38       	cpi	r24, 0x80	; 128
    4cb8:	31 f4       	brne	.+12     	; 0x4cc6 <ks0108DoReadData+0x90>
    4cba:	11 23       	and	r17, r17
    4cbc:	21 f0       	breq	.+8      	; 0x4cc6 <ks0108DoReadData+0x90>
    4cbe:	62 e0       	ldi	r22, 0x02	; 2
    4cc0:	80 e4       	ldi	r24, 0x40	; 64
    4cc2:	0e 94 52 25 	call	0x4aa4	; 0x4aa4 <ks0108WriteCommand>
    4cc6:	97 9a       	sbi	0x12, 7	; 18
    4cc8:	8f b7       	in	r24, 0x3f	; 63
    4cca:	80 93 d4 09 	sts	0x09D4, r24	; 0x8009d4 <_sreg_temp_main_>
    4cce:	f8 94       	cli
    4cd0:	80 91 65 00 	lds	r24, 0x0065	; 0x800065 <__TEXT_REGION_LENGTH__+0x7e0065>
    4cd4:	81 60       	ori	r24, 0x01	; 1
    4cd6:	80 93 65 00 	sts	0x0065, r24	; 0x800065 <__TEXT_REGION_LENGTH__+0x7e0065>
    4cda:	80 91 65 00 	lds	r24, 0x0065	; 0x800065 <__TEXT_REGION_LENGTH__+0x7e0065>
    4cde:	82 60       	ori	r24, 0x02	; 2
    4ce0:	80 93 65 00 	sts	0x0065, r24	; 0x800065 <__TEXT_REGION_LENGTH__+0x7e0065>
    4ce4:	80 91 d4 09 	lds	r24, 0x09D4	; 0x8009d4 <_sreg_temp_main_>
    4ce8:	8f bf       	out	0x3f, r24	; 63
    4cea:	00 00       	nop
    4cec:	00 00       	nop
    4cee:	00 00       	nop
    4cf0:	13 b3       	in	r17, 0x13	; 19
    4cf2:	8f b7       	in	r24, 0x3f	; 63
    4cf4:	80 93 d4 09 	sts	0x09D4, r24	; 0x8009d4 <_sreg_temp_main_>
    4cf8:	f8 94       	cli
    4cfa:	80 91 65 00 	lds	r24, 0x0065	; 0x800065 <__TEXT_REGION_LENGTH__+0x7e0065>
    4cfe:	8d 7f       	andi	r24, 0xFD	; 253
    4d00:	80 93 65 00 	sts	0x0065, r24	; 0x800065 <__TEXT_REGION_LENGTH__+0x7e0065>
    4d04:	80 91 d4 09 	lds	r24, 0x09D4	; 0x8009d4 <_sreg_temp_main_>
    4d08:	8f bf       	out	0x3f, r24	; 63
    4d0a:	19 82       	std	Y+1, r1	; 0x01
    4d0c:	89 81       	ldd	r24, Y+1	; 0x01
    4d0e:	88 30       	cpi	r24, 0x08	; 8
    4d10:	20 f4       	brcc	.+8      	; 0x4d1a <ks0108DoReadData+0xe4>
    4d12:	89 81       	ldd	r24, Y+1	; 0x01
    4d14:	8f 5f       	subi	r24, 0xFF	; 255
    4d16:	89 83       	std	Y+1, r24	; 0x01
    4d18:	f9 cf       	rjmp	.-14     	; 0x4d0c <ks0108DoReadData+0xd6>
    4d1a:	8f ef       	ldi	r24, 0xFF	; 255
    4d1c:	84 bb       	out	0x14, r24	; 20
    4d1e:	60 91 ce 09 	lds	r22, 0x09CE	; 0x8009ce <ks0108Coord+0x1>
    4d22:	80 91 cd 09 	lds	r24, 0x09CD	; 0x8009cd <ks0108Coord>
    4d26:	0e 94 da 25 	call	0x4bb4	; 0x4bb4 <ks0108GotoXY>
    4d2a:	80 91 e9 07 	lds	r24, 0x07E9	; 0x8007e9 <ks0108Inverted>
    4d2e:	81 11       	cpse	r24, r1
    4d30:	10 95       	com	r17
    4d32:	81 2f       	mov	r24, r17
    4d34:	0f 90       	pop	r0
    4d36:	df 91       	pop	r29
    4d38:	cf 91       	pop	r28
    4d3a:	1f 91       	pop	r17
    4d3c:	08 95       	ret

00004d3e <ks0108WriteData>:
    4d3e:	0f 93       	push	r16
    4d40:	1f 93       	push	r17
    4d42:	cf 93       	push	r28
    4d44:	df 93       	push	r29
    4d46:	cd b7       	in	r28, 0x3d	; 61
    4d48:	de b7       	in	r29, 0x3e	; 62
    4d4a:	28 97       	sbiw	r28, 0x08	; 8
    4d4c:	0f b6       	in	r0, 0x3f	; 63
    4d4e:	f8 94       	cli
    4d50:	de bf       	out	0x3e, r29	; 62
    4d52:	0f be       	out	0x3f, r0	; 63
    4d54:	cd bf       	out	0x3d, r28	; 61
    4d56:	08 2f       	mov	r16, r24
    4d58:	80 91 cd 09 	lds	r24, 0x09CD	; 0x8009cd <ks0108Coord>
    4d5c:	80 3c       	cpi	r24, 0xC0	; 192
    4d5e:	08 f0       	brcs	.+2      	; 0x4d62 <ks0108WriteData+0x24>
    4d60:	a5 c1       	rjmp	.+842    	; 0x50ac <ks0108WriteData+0x36e>
    4d62:	80 34       	cpi	r24, 0x40	; 64
    4d64:	58 f4       	brcc	.+22     	; 0x4d7c <ks0108WriteData+0x3e>
    4d66:	8f b7       	in	r24, 0x3f	; 63
    4d68:	80 93 d4 09 	sts	0x09D4, r24	; 0x8009d4 <_sreg_temp_main_>
    4d6c:	f8 94       	cli
    4d6e:	80 91 65 00 	lds	r24, 0x0065	; 0x800065 <__TEXT_REGION_LENGTH__+0x7e0065>
    4d72:	8b 7f       	andi	r24, 0xFB	; 251
    4d74:	80 93 65 00 	sts	0x0065, r24	; 0x800065 <__TEXT_REGION_LENGTH__+0x7e0065>
    4d78:	de 9a       	sbi	0x1b, 6	; 27
    4d7a:	0d c0       	rjmp	.+26     	; 0x4d96 <ks0108WriteData+0x58>
    4d7c:	80 54       	subi	r24, 0x40	; 64
    4d7e:	80 34       	cpi	r24, 0x40	; 64
    4d80:	60 f4       	brcc	.+24     	; 0x4d9a <ks0108WriteData+0x5c>
    4d82:	8f b7       	in	r24, 0x3f	; 63
    4d84:	80 93 d4 09 	sts	0x09D4, r24	; 0x8009d4 <_sreg_temp_main_>
    4d88:	f8 94       	cli
    4d8a:	80 91 65 00 	lds	r24, 0x0065	; 0x800065 <__TEXT_REGION_LENGTH__+0x7e0065>
    4d8e:	84 60       	ori	r24, 0x04	; 4
    4d90:	80 93 65 00 	sts	0x0065, r24	; 0x800065 <__TEXT_REGION_LENGTH__+0x7e0065>
    4d94:	de 98       	cbi	0x1b, 6	; 27
    4d96:	dd 9a       	sbi	0x1b, 5	; 27
    4d98:	0b c0       	rjmp	.+22     	; 0x4db0 <ks0108WriteData+0x72>
    4d9a:	8f b7       	in	r24, 0x3f	; 63
    4d9c:	80 93 d4 09 	sts	0x09D4, r24	; 0x8009d4 <_sreg_temp_main_>
    4da0:	f8 94       	cli
    4da2:	80 91 65 00 	lds	r24, 0x0065	; 0x800065 <__TEXT_REGION_LENGTH__+0x7e0065>
    4da6:	84 60       	ori	r24, 0x04	; 4
    4da8:	80 93 65 00 	sts	0x0065, r24	; 0x800065 <__TEXT_REGION_LENGTH__+0x7e0065>
    4dac:	de 9a       	sbi	0x1b, 6	; 27
    4dae:	dd 98       	cbi	0x1b, 5	; 27
    4db0:	80 91 d4 09 	lds	r24, 0x09D4	; 0x8009d4 <_sreg_temp_main_>
    4db4:	8f bf       	out	0x3f, r24	; 63
    4db6:	80 91 cd 09 	lds	r24, 0x09CD	; 0x8009cd <ks0108Coord>
    4dba:	80 34       	cpi	r24, 0x40	; 64
    4dbc:	19 f4       	brne	.+6      	; 0x4dc4 <ks0108WriteData+0x86>
    4dbe:	61 e0       	ldi	r22, 0x01	; 1
    4dc0:	0e 94 52 25 	call	0x4aa4	; 0x4aa4 <ks0108WriteCommand>
    4dc4:	80 91 cd 09 	lds	r24, 0x09CD	; 0x8009cd <ks0108Coord>
    4dc8:	80 38       	cpi	r24, 0x80	; 128
    4dca:	21 f4       	brne	.+8      	; 0x4dd4 <ks0108WriteData+0x96>
    4dcc:	62 e0       	ldi	r22, 0x02	; 2
    4dce:	80 e4       	ldi	r24, 0x40	; 64
    4dd0:	0e 94 52 25 	call	0x4aa4	; 0x4aa4 <ks0108WriteCommand>
    4dd4:	97 9a       	sbi	0x12, 7	; 18
    4dd6:	8f b7       	in	r24, 0x3f	; 63
    4dd8:	80 93 d4 09 	sts	0x09D4, r24	; 0x8009d4 <_sreg_temp_main_>
    4ddc:	f8 94       	cli
    4dde:	80 91 65 00 	lds	r24, 0x0065	; 0x800065 <__TEXT_REGION_LENGTH__+0x7e0065>
    4de2:	8e 7f       	andi	r24, 0xFE	; 254
    4de4:	80 93 65 00 	sts	0x0065, r24	; 0x800065 <__TEXT_REGION_LENGTH__+0x7e0065>
    4de8:	80 91 d4 09 	lds	r24, 0x09D4	; 0x8009d4 <_sreg_temp_main_>
    4dec:	8f bf       	out	0x3f, r24	; 63
    4dee:	1f ef       	ldi	r17, 0xFF	; 255
    4df0:	14 bb       	out	0x14, r17	; 20
    4df2:	80 91 ce 09 	lds	r24, 0x09CE	; 0x8009ce <ks0108Coord+0x1>
    4df6:	87 70       	andi	r24, 0x07	; 7
    4df8:	8f 83       	std	Y+7, r24	; 0x07
    4dfa:	8f 81       	ldd	r24, Y+7	; 0x07
    4dfc:	88 23       	and	r24, r24
    4dfe:	09 f4       	brne	.+2      	; 0x4e02 <ks0108WriteData+0xc4>
    4e00:	07 c1       	rjmp	.+526    	; 0x5010 <ks0108WriteData+0x2d2>
    4e02:	8b b3       	in	r24, 0x1b	; 27
    4e04:	80 76       	andi	r24, 0x60	; 96
    4e06:	8e 83       	std	Y+6, r24	; 0x06
    4e08:	82 b3       	in	r24, 0x12	; 18
    4e0a:	8d 83       	std	Y+5, r24	; 0x05
    4e0c:	80 91 65 00 	lds	r24, 0x0065	; 0x800065 <__TEXT_REGION_LENGTH__+0x7e0065>
    4e10:	87 70       	andi	r24, 0x07	; 7
    4e12:	8c 83       	std	Y+4, r24	; 0x04
    4e14:	81 e0       	ldi	r24, 0x01	; 1
    4e16:	0e 94 1b 26 	call	0x4c36	; 0x4c36 <ks0108DoReadData>
    4e1a:	80 e0       	ldi	r24, 0x00	; 0
    4e1c:	0e 94 1b 26 	call	0x4c36	; 0x4c36 <ks0108DoReadData>
    4e20:	88 87       	std	Y+8, r24	; 0x08
    4e22:	8d 81       	ldd	r24, Y+5	; 0x05
    4e24:	82 bb       	out	0x12, r24	; 18
    4e26:	8f b7       	in	r24, 0x3f	; 63
    4e28:	80 93 d4 09 	sts	0x09D4, r24	; 0x8009d4 <_sreg_temp_main_>
    4e2c:	f8 94       	cli
    4e2e:	80 91 65 00 	lds	r24, 0x0065	; 0x800065 <__TEXT_REGION_LENGTH__+0x7e0065>
    4e32:	9c 81       	ldd	r25, Y+4	; 0x04
    4e34:	88 7f       	andi	r24, 0xF8	; 248
    4e36:	89 2b       	or	r24, r25
    4e38:	80 93 65 00 	sts	0x0065, r24	; 0x800065 <__TEXT_REGION_LENGTH__+0x7e0065>
    4e3c:	8b b3       	in	r24, 0x1b	; 27
    4e3e:	9e 81       	ldd	r25, Y+6	; 0x06
    4e40:	8f 79       	andi	r24, 0x9F	; 159
    4e42:	89 2b       	or	r24, r25
    4e44:	8b bb       	out	0x1b, r24	; 27
    4e46:	80 91 d4 09 	lds	r24, 0x09D4	; 0x8009d4 <_sreg_temp_main_>
    4e4a:	8f bf       	out	0x3f, r24	; 63
    4e4c:	14 bb       	out	0x14, r17	; 20
    4e4e:	10 e0       	ldi	r17, 0x00	; 0
    4e50:	8f 81       	ldd	r24, Y+7	; 0x07
    4e52:	28 85       	ldd	r18, Y+8	; 0x08
    4e54:	a8 01       	movw	r20, r16
    4e56:	02 c0       	rjmp	.+4      	; 0x4e5c <ks0108WriteData+0x11e>
    4e58:	44 0f       	add	r20, r20
    4e5a:	55 1f       	adc	r21, r21
    4e5c:	8a 95       	dec	r24
    4e5e:	e2 f7       	brpl	.-8      	; 0x4e58 <ks0108WriteData+0x11a>
    4e60:	ca 01       	movw	r24, r20
    4e62:	82 2b       	or	r24, r18
    4e64:	88 87       	std	Y+8, r24	; 0x08
    4e66:	80 91 e9 07 	lds	r24, 0x07E9	; 0x8007e9 <ks0108Inverted>
    4e6a:	88 23       	and	r24, r24
    4e6c:	19 f0       	breq	.+6      	; 0x4e74 <ks0108WriteData+0x136>
    4e6e:	88 85       	ldd	r24, Y+8	; 0x08
    4e70:	80 95       	com	r24
    4e72:	88 87       	std	Y+8, r24	; 0x08
    4e74:	88 85       	ldd	r24, Y+8	; 0x08
    4e76:	85 bb       	out	0x15, r24	; 21
	...
    4e90:	8f b7       	in	r24, 0x3f	; 63
    4e92:	80 93 d4 09 	sts	0x09D4, r24	; 0x8009d4 <_sreg_temp_main_>
    4e96:	f8 94       	cli
    4e98:	80 91 65 00 	lds	r24, 0x0065	; 0x800065 <__TEXT_REGION_LENGTH__+0x7e0065>
    4e9c:	82 60       	ori	r24, 0x02	; 2
    4e9e:	80 93 65 00 	sts	0x0065, r24	; 0x800065 <__TEXT_REGION_LENGTH__+0x7e0065>
    4ea2:	80 91 d4 09 	lds	r24, 0x09D4	; 0x8009d4 <_sreg_temp_main_>
    4ea6:	8f bf       	out	0x3f, r24	; 63
	...
    4ec0:	00 00       	nop
    4ec2:	8f b7       	in	r24, 0x3f	; 63
    4ec4:	80 93 d4 09 	sts	0x09D4, r24	; 0x8009d4 <_sreg_temp_main_>
    4ec8:	f8 94       	cli
    4eca:	80 91 65 00 	lds	r24, 0x0065	; 0x800065 <__TEXT_REGION_LENGTH__+0x7e0065>
    4ece:	8d 7f       	andi	r24, 0xFD	; 253
    4ed0:	80 93 65 00 	sts	0x0065, r24	; 0x800065 <__TEXT_REGION_LENGTH__+0x7e0065>
    4ed4:	80 91 d4 09 	lds	r24, 0x09D4	; 0x8009d4 <_sreg_temp_main_>
    4ed8:	8f bf       	out	0x3f, r24	; 63
    4eda:	1b 82       	std	Y+3, r1	; 0x03
    4edc:	8b 81       	ldd	r24, Y+3	; 0x03
    4ede:	88 30       	cpi	r24, 0x08	; 8
    4ee0:	20 f4       	brcc	.+8      	; 0x4eea <ks0108WriteData+0x1ac>
    4ee2:	8b 81       	ldd	r24, Y+3	; 0x03
    4ee4:	8f 5f       	subi	r24, 0xFF	; 255
    4ee6:	8b 83       	std	Y+3, r24	; 0x03
    4ee8:	f9 cf       	rjmp	.-14     	; 0x4edc <ks0108WriteData+0x19e>
	...
    4efe:	60 91 ce 09 	lds	r22, 0x09CE	; 0x8009ce <ks0108Coord+0x1>
    4f02:	68 5f       	subi	r22, 0xF8	; 248
    4f04:	80 91 cd 09 	lds	r24, 0x09CD	; 0x8009cd <ks0108Coord>
    4f08:	0e 94 da 25 	call	0x4bb4	; 0x4bb4 <ks0108GotoXY>
    4f0c:	81 e0       	ldi	r24, 0x01	; 1
    4f0e:	0e 94 1b 26 	call	0x4c36	; 0x4c36 <ks0108DoReadData>
    4f12:	80 e0       	ldi	r24, 0x00	; 0
    4f14:	0e 94 1b 26 	call	0x4c36	; 0x4c36 <ks0108DoReadData>
    4f18:	88 87       	std	Y+8, r24	; 0x08
    4f1a:	8d 81       	ldd	r24, Y+5	; 0x05
    4f1c:	82 bb       	out	0x12, r24	; 18
    4f1e:	8f b7       	in	r24, 0x3f	; 63
    4f20:	80 93 d4 09 	sts	0x09D4, r24	; 0x8009d4 <_sreg_temp_main_>
    4f24:	f8 94       	cli
    4f26:	90 91 65 00 	lds	r25, 0x0065	; 0x800065 <__TEXT_REGION_LENGTH__+0x7e0065>
    4f2a:	8c 81       	ldd	r24, Y+4	; 0x04
    4f2c:	98 7f       	andi	r25, 0xF8	; 248
    4f2e:	87 70       	andi	r24, 0x07	; 7
    4f30:	89 2b       	or	r24, r25
    4f32:	80 93 65 00 	sts	0x0065, r24	; 0x800065 <__TEXT_REGION_LENGTH__+0x7e0065>
    4f36:	9b b3       	in	r25, 0x1b	; 27
    4f38:	8e 81       	ldd	r24, Y+6	; 0x06
    4f3a:	9f 79       	andi	r25, 0x9F	; 159
    4f3c:	80 76       	andi	r24, 0x60	; 96
    4f3e:	89 2b       	or	r24, r25
    4f40:	8b bb       	out	0x1b, r24	; 27
    4f42:	80 91 d4 09 	lds	r24, 0x09D4	; 0x8009d4 <_sreg_temp_main_>
    4f46:	8f bf       	out	0x3f, r24	; 63
    4f48:	8f ef       	ldi	r24, 0xFF	; 255
    4f4a:	84 bb       	out	0x14, r24	; 20
    4f4c:	3f 81       	ldd	r19, Y+7	; 0x07
    4f4e:	28 85       	ldd	r18, Y+8	; 0x08
    4f50:	88 e0       	ldi	r24, 0x08	; 8
    4f52:	90 e0       	ldi	r25, 0x00	; 0
    4f54:	83 1b       	sub	r24, r19
    4f56:	91 09       	sbc	r25, r1
    4f58:	02 c0       	rjmp	.+4      	; 0x4f5e <ks0108WriteData+0x220>
    4f5a:	15 95       	asr	r17
    4f5c:	07 95       	ror	r16
    4f5e:	8a 95       	dec	r24
    4f60:	e2 f7       	brpl	.-8      	; 0x4f5a <ks0108WriteData+0x21c>
    4f62:	02 2b       	or	r16, r18
    4f64:	08 87       	std	Y+8, r16	; 0x08
    4f66:	80 91 e9 07 	lds	r24, 0x07E9	; 0x8007e9 <ks0108Inverted>
    4f6a:	88 23       	and	r24, r24
    4f6c:	19 f0       	breq	.+6      	; 0x4f74 <ks0108WriteData+0x236>
    4f6e:	88 85       	ldd	r24, Y+8	; 0x08
    4f70:	80 95       	com	r24
    4f72:	88 87       	std	Y+8, r24	; 0x08
    4f74:	88 85       	ldd	r24, Y+8	; 0x08
    4f76:	85 bb       	out	0x15, r24	; 21
	...
    4f90:	8f b7       	in	r24, 0x3f	; 63
    4f92:	80 93 d4 09 	sts	0x09D4, r24	; 0x8009d4 <_sreg_temp_main_>
    4f96:	f8 94       	cli
    4f98:	80 91 65 00 	lds	r24, 0x0065	; 0x800065 <__TEXT_REGION_LENGTH__+0x7e0065>
    4f9c:	82 60       	ori	r24, 0x02	; 2
    4f9e:	80 93 65 00 	sts	0x0065, r24	; 0x800065 <__TEXT_REGION_LENGTH__+0x7e0065>
    4fa2:	80 91 d4 09 	lds	r24, 0x09D4	; 0x8009d4 <_sreg_temp_main_>
    4fa6:	8f bf       	out	0x3f, r24	; 63
	...
    4fc0:	00 00       	nop
    4fc2:	8f b7       	in	r24, 0x3f	; 63
    4fc4:	80 93 d4 09 	sts	0x09D4, r24	; 0x8009d4 <_sreg_temp_main_>
    4fc8:	f8 94       	cli
    4fca:	80 91 65 00 	lds	r24, 0x0065	; 0x800065 <__TEXT_REGION_LENGTH__+0x7e0065>
    4fce:	8d 7f       	andi	r24, 0xFD	; 253
    4fd0:	80 93 65 00 	sts	0x0065, r24	; 0x800065 <__TEXT_REGION_LENGTH__+0x7e0065>
    4fd4:	80 91 d4 09 	lds	r24, 0x09D4	; 0x8009d4 <_sreg_temp_main_>
    4fd8:	8f bf       	out	0x3f, r24	; 63
    4fda:	1a 82       	std	Y+2, r1	; 0x02
    4fdc:	8a 81       	ldd	r24, Y+2	; 0x02
    4fde:	88 30       	cpi	r24, 0x08	; 8
    4fe0:	20 f4       	brcc	.+8      	; 0x4fea <ks0108WriteData+0x2ac>
    4fe2:	8a 81       	ldd	r24, Y+2	; 0x02
    4fe4:	8f 5f       	subi	r24, 0xFF	; 255
    4fe6:	8a 83       	std	Y+2, r24	; 0x02
    4fe8:	f9 cf       	rjmp	.-14     	; 0x4fdc <ks0108WriteData+0x29e>
	...
    4ffe:	60 91 ce 09 	lds	r22, 0x09CE	; 0x8009ce <ks0108Coord+0x1>
    5002:	68 50       	subi	r22, 0x08	; 8
    5004:	80 91 cd 09 	lds	r24, 0x09CD	; 0x8009cd <ks0108Coord>
    5008:	8f 5f       	subi	r24, 0xFF	; 255
    500a:	0e 94 da 25 	call	0x4bb4	; 0x4bb4 <ks0108GotoXY>
    500e:	4d c0       	rjmp	.+154    	; 0x50aa <ks0108WriteData+0x36c>
    5010:	80 91 e9 07 	lds	r24, 0x07E9	; 0x8007e9 <ks0108Inverted>
    5014:	81 11       	cpse	r24, r1
    5016:	00 95       	com	r16
    5018:	05 bb       	out	0x15, r16	; 21
	...
    5032:	8f b7       	in	r24, 0x3f	; 63
    5034:	80 93 d4 09 	sts	0x09D4, r24	; 0x8009d4 <_sreg_temp_main_>
    5038:	f8 94       	cli
    503a:	80 91 65 00 	lds	r24, 0x0065	; 0x800065 <__TEXT_REGION_LENGTH__+0x7e0065>
    503e:	82 60       	ori	r24, 0x02	; 2
    5040:	80 93 65 00 	sts	0x0065, r24	; 0x800065 <__TEXT_REGION_LENGTH__+0x7e0065>
    5044:	80 91 d4 09 	lds	r24, 0x09D4	; 0x8009d4 <_sreg_temp_main_>
    5048:	8f bf       	out	0x3f, r24	; 63
	...
    5062:	00 00       	nop
    5064:	8f b7       	in	r24, 0x3f	; 63
    5066:	80 93 d4 09 	sts	0x09D4, r24	; 0x8009d4 <_sreg_temp_main_>
    506a:	f8 94       	cli
    506c:	80 91 65 00 	lds	r24, 0x0065	; 0x800065 <__TEXT_REGION_LENGTH__+0x7e0065>
    5070:	8d 7f       	andi	r24, 0xFD	; 253
    5072:	80 93 65 00 	sts	0x0065, r24	; 0x800065 <__TEXT_REGION_LENGTH__+0x7e0065>
    5076:	80 91 d4 09 	lds	r24, 0x09D4	; 0x8009d4 <_sreg_temp_main_>
    507a:	8f bf       	out	0x3f, r24	; 63
    507c:	19 82       	std	Y+1, r1	; 0x01
    507e:	89 81       	ldd	r24, Y+1	; 0x01
    5080:	88 30       	cpi	r24, 0x08	; 8
    5082:	20 f4       	brcc	.+8      	; 0x508c <ks0108WriteData+0x34e>
    5084:	89 81       	ldd	r24, Y+1	; 0x01
    5086:	8f 5f       	subi	r24, 0xFF	; 255
    5088:	89 83       	std	Y+1, r24	; 0x01
    508a:	f9 cf       	rjmp	.-14     	; 0x507e <ks0108WriteData+0x340>
	...
    50a0:	80 91 cd 09 	lds	r24, 0x09CD	; 0x8009cd <ks0108Coord>
    50a4:	8f 5f       	subi	r24, 0xFF	; 255
    50a6:	80 93 cd 09 	sts	0x09CD, r24	; 0x8009cd <ks0108Coord>
    50aa:	15 ba       	out	0x15, r1	; 21
    50ac:	28 96       	adiw	r28, 0x08	; 8
    50ae:	0f b6       	in	r0, 0x3f	; 63
    50b0:	f8 94       	cli
    50b2:	de bf       	out	0x3e, r29	; 62
    50b4:	0f be       	out	0x3f, r0	; 63
    50b6:	cd bf       	out	0x3d, r28	; 61
    50b8:	df 91       	pop	r29
    50ba:	cf 91       	pop	r28
    50bc:	1f 91       	pop	r17
    50be:	0f 91       	pop	r16
    50c0:	08 95       	ret

000050c2 <ks0108FillRect>:
    50c2:	9f 92       	push	r9
    50c4:	af 92       	push	r10
    50c6:	bf 92       	push	r11
    50c8:	cf 92       	push	r12
    50ca:	df 92       	push	r13
    50cc:	ef 92       	push	r14
    50ce:	ff 92       	push	r15
    50d0:	0f 93       	push	r16
    50d2:	1f 93       	push	r17
    50d4:	cf 93       	push	r28
    50d6:	df 93       	push	r29
    50d8:	18 2f       	mov	r17, r24
    50da:	d4 2f       	mov	r29, r20
    50dc:	aa 24       	eor	r10, r10
    50de:	a3 94       	inc	r10
    50e0:	a2 0e       	add	r10, r18
    50e2:	86 2f       	mov	r24, r22
    50e4:	87 70       	andi	r24, 0x07	; 7
    50e6:	c6 2f       	mov	r28, r22
    50e8:	c8 1b       	sub	r28, r24
    50ea:	ca 2c       	mov	r12, r10
    50ec:	d1 2c       	mov	r13, r1
    50ee:	28 e0       	ldi	r18, 0x08	; 8
    50f0:	30 e0       	ldi	r19, 0x00	; 0
    50f2:	a9 01       	movw	r20, r18
    50f4:	48 1b       	sub	r20, r24
    50f6:	51 09       	sbc	r21, r1
    50f8:	c4 16       	cp	r12, r20
    50fa:	d5 06       	cpc	r13, r21
    50fc:	6c f4       	brge	.+26     	; 0x5118 <ks0108FillRect+0x56>
    50fe:	2c 19       	sub	r18, r12
    5100:	3d 09       	sbc	r19, r13
    5102:	4f ef       	ldi	r20, 0xFF	; 255
    5104:	50 e0       	ldi	r21, 0x00	; 0
    5106:	7a 01       	movw	r14, r20
    5108:	02 c0       	rjmp	.+4      	; 0x510e <ks0108FillRect+0x4c>
    510a:	f5 94       	asr	r15
    510c:	e7 94       	ror	r14
    510e:	2a 95       	dec	r18
    5110:	e2 f7       	brpl	.-8      	; 0x510a <ks0108FillRect+0x48>
    5112:	9e 2d       	mov	r25, r14
    5114:	ba 2c       	mov	r11, r10
    5116:	04 c0       	rjmp	.+8      	; 0x5120 <ks0108FillRect+0x5e>
    5118:	98 e0       	ldi	r25, 0x08	; 8
    511a:	b9 2e       	mov	r11, r25
    511c:	b8 1a       	sub	r11, r24
    511e:	9f ef       	ldi	r25, 0xFF	; 255
    5120:	e9 2e       	mov	r14, r25
    5122:	01 c0       	rjmp	.+2      	; 0x5126 <ks0108FillRect+0x64>
    5124:	ee 0c       	add	r14, r14
    5126:	8a 95       	dec	r24
    5128:	ea f7       	brpl	.-6      	; 0x5124 <ks0108FillRect+0x62>
    512a:	9e 2c       	mov	r9, r14
    512c:	6c 2f       	mov	r22, r28
    512e:	81 2f       	mov	r24, r17
    5130:	0e 94 da 25 	call	0x4bb4	; 0x4bb4 <ks0108GotoXY>
    5134:	f1 2c       	mov	r15, r1
    5136:	e0 94       	com	r14
    5138:	81 e0       	ldi	r24, 0x01	; 1
    513a:	0e 94 1b 26 	call	0x4c36	; 0x4c36 <ks0108DoReadData>
    513e:	80 e0       	ldi	r24, 0x00	; 0
    5140:	0e 94 1b 26 	call	0x4c36	; 0x4c36 <ks0108DoReadData>
    5144:	0f 3f       	cpi	r16, 0xFF	; 255
    5146:	11 f4       	brne	.+4      	; 0x514c <ks0108FillRect+0x8a>
    5148:	89 29       	or	r24, r9
    514a:	01 c0       	rjmp	.+2      	; 0x514e <ks0108FillRect+0x8c>
    514c:	8e 21       	and	r24, r14
    514e:	0e 94 9f 26 	call	0x4d3e	; 0x4d3e <ks0108WriteData>
    5152:	f3 94       	inc	r15
    5154:	df 15       	cp	r29, r15
    5156:	80 f7       	brcc	.-32     	; 0x5138 <ks0108FillRect+0x76>
    5158:	bc 1a       	sub	r11, r28
    515a:	2b 2d       	mov	r18, r11
    515c:	2c 0f       	add	r18, r28
    515e:	82 2f       	mov	r24, r18
    5160:	90 e0       	ldi	r25, 0x00	; 0
    5162:	ac 01       	movw	r20, r24
    5164:	49 5f       	subi	r20, 0xF9	; 249
    5166:	5f 4f       	sbci	r21, 0xFF	; 255
    5168:	4c 15       	cp	r20, r12
    516a:	5d 05       	cpc	r21, r13
    516c:	6c f4       	brge	.+26     	; 0x5188 <ks0108FillRect+0xc6>
    516e:	c8 5f       	subi	r28, 0xF8	; 248
    5170:	6c 2f       	mov	r22, r28
    5172:	81 2f       	mov	r24, r17
    5174:	0e 94 da 25 	call	0x4bb4	; 0x4bb4 <ks0108GotoXY>
    5178:	f1 2c       	mov	r15, r1
    517a:	80 2f       	mov	r24, r16
    517c:	0e 94 9f 26 	call	0x4d3e	; 0x4d3e <ks0108WriteData>
    5180:	f3 94       	inc	r15
    5182:	df 15       	cp	r29, r15
    5184:	d0 f7       	brcc	.-12     	; 0x517a <ks0108FillRect+0xb8>
    5186:	e9 cf       	rjmp	.-46     	; 0x515a <ks0108FillRect+0x98>
    5188:	2a 15       	cp	r18, r10
    518a:	10 f5       	brcc	.+68     	; 0x51d0 <ks0108FillRect+0x10e>
    518c:	c8 1a       	sub	r12, r24
    518e:	d9 0a       	sbc	r13, r25
    5190:	8f ef       	ldi	r24, 0xFF	; 255
    5192:	90 e0       	ldi	r25, 0x00	; 0
    5194:	01 c0       	rjmp	.+2      	; 0x5198 <ks0108FillRect+0xd6>
    5196:	88 0f       	add	r24, r24
    5198:	ca 94       	dec	r12
    519a:	ea f7       	brpl	.-6      	; 0x5196 <ks0108FillRect+0xd4>
    519c:	f8 2e       	mov	r15, r24
    519e:	f0 94       	com	r15
    51a0:	68 e0       	ldi	r22, 0x08	; 8
    51a2:	6c 0f       	add	r22, r28
    51a4:	81 2f       	mov	r24, r17
    51a6:	0e 94 da 25 	call	0x4bb4	; 0x4bb4 <ks0108GotoXY>
    51aa:	c0 e0       	ldi	r28, 0x00	; 0
    51ac:	1f 2d       	mov	r17, r15
    51ae:	10 95       	com	r17
    51b0:	81 e0       	ldi	r24, 0x01	; 1
    51b2:	0e 94 1b 26 	call	0x4c36	; 0x4c36 <ks0108DoReadData>
    51b6:	80 e0       	ldi	r24, 0x00	; 0
    51b8:	0e 94 1b 26 	call	0x4c36	; 0x4c36 <ks0108DoReadData>
    51bc:	0f 3f       	cpi	r16, 0xFF	; 255
    51be:	11 f4       	brne	.+4      	; 0x51c4 <ks0108FillRect+0x102>
    51c0:	8f 29       	or	r24, r15
    51c2:	01 c0       	rjmp	.+2      	; 0x51c6 <ks0108FillRect+0x104>
    51c4:	81 23       	and	r24, r17
    51c6:	0e 94 9f 26 	call	0x4d3e	; 0x4d3e <ks0108WriteData>
    51ca:	cf 5f       	subi	r28, 0xFF	; 255
    51cc:	dc 17       	cp	r29, r28
    51ce:	80 f7       	brcc	.-32     	; 0x51b0 <ks0108FillRect+0xee>
    51d0:	df 91       	pop	r29
    51d2:	cf 91       	pop	r28
    51d4:	1f 91       	pop	r17
    51d6:	0f 91       	pop	r16
    51d8:	ff 90       	pop	r15
    51da:	ef 90       	pop	r14
    51dc:	df 90       	pop	r13
    51de:	cf 90       	pop	r12
    51e0:	bf 90       	pop	r11
    51e2:	af 90       	pop	r10
    51e4:	9f 90       	pop	r9
    51e6:	08 95       	ret

000051e8 <ks0108DrawRect>:
    51e8:	ef 92       	push	r14
    51ea:	ff 92       	push	r15
    51ec:	0f 93       	push	r16
    51ee:	1f 93       	push	r17
    51f0:	cf 93       	push	r28
    51f2:	df 93       	push	r29
    51f4:	c8 2f       	mov	r28, r24
    51f6:	d6 2f       	mov	r29, r22
    51f8:	f4 2e       	mov	r15, r20
    51fa:	e2 2e       	mov	r14, r18
    51fc:	20 e0       	ldi	r18, 0x00	; 0
    51fe:	0e 94 61 28 	call	0x50c2	; 0x50c2 <ks0108FillRect>
    5202:	6d 2f       	mov	r22, r29
    5204:	6e 0d       	add	r22, r14
    5206:	20 e0       	ldi	r18, 0x00	; 0
    5208:	4f 2d       	mov	r20, r15
    520a:	8c 2f       	mov	r24, r28
    520c:	0e 94 61 28 	call	0x50c2	; 0x50c2 <ks0108FillRect>
    5210:	2e 2d       	mov	r18, r14
    5212:	40 e0       	ldi	r20, 0x00	; 0
    5214:	6d 2f       	mov	r22, r29
    5216:	8c 2f       	mov	r24, r28
    5218:	0e 94 61 28 	call	0x50c2	; 0x50c2 <ks0108FillRect>
    521c:	2e 2d       	mov	r18, r14
    521e:	40 e0       	ldi	r20, 0x00	; 0
    5220:	6d 2f       	mov	r22, r29
    5222:	8c 2f       	mov	r24, r28
    5224:	8f 0d       	add	r24, r15
    5226:	0e 94 61 28 	call	0x50c2	; 0x50c2 <ks0108FillRect>
    522a:	df 91       	pop	r29
    522c:	cf 91       	pop	r28
    522e:	1f 91       	pop	r17
    5230:	0f 91       	pop	r16
    5232:	ff 90       	pop	r15
    5234:	ef 90       	pop	r14
    5236:	08 95       	ret

00005238 <ks0108Init>:
    5238:	0f 93       	push	r16
    523a:	ed ec       	ldi	r30, 0xCD	; 205
    523c:	f9 e0       	ldi	r31, 0x09	; 9
    523e:	10 82       	st	Z, r1
    5240:	11 82       	std	Z+1, r1	; 0x01
    5242:	12 82       	std	Z+2, r1	; 0x02
    5244:	80 93 e9 07 	sts	0x07E9, r24	; 0x8007e9 <ks0108Inverted>
    5248:	e4 e6       	ldi	r30, 0x64	; 100
    524a:	f0 e0       	ldi	r31, 0x00	; 0
    524c:	80 81       	ld	r24, Z
    524e:	81 60       	ori	r24, 0x01	; 1
    5250:	80 83       	st	Z, r24
    5252:	80 81       	ld	r24, Z
    5254:	82 60       	ori	r24, 0x02	; 2
    5256:	80 83       	st	Z, r24
    5258:	80 81       	ld	r24, Z
    525a:	84 60       	ori	r24, 0x04	; 4
    525c:	80 83       	st	Z, r24
    525e:	8f 9a       	sbi	0x11, 7	; 17
    5260:	d4 9a       	sbi	0x1a, 4	; 26
    5262:	d6 9a       	sbi	0x1a, 6	; 26
    5264:	d5 9a       	sbi	0x1a, 5	; 26
    5266:	60 e0       	ldi	r22, 0x00	; 0
    5268:	8f e3       	ldi	r24, 0x3F	; 63
    526a:	0e 94 52 25 	call	0x4aa4	; 0x4aa4 <ks0108WriteCommand>
    526e:	61 e0       	ldi	r22, 0x01	; 1
    5270:	8f e3       	ldi	r24, 0x3F	; 63
    5272:	0e 94 52 25 	call	0x4aa4	; 0x4aa4 <ks0108WriteCommand>
    5276:	62 e0       	ldi	r22, 0x02	; 2
    5278:	8f e3       	ldi	r24, 0x3F	; 63
    527a:	0e 94 52 25 	call	0x4aa4	; 0x4aa4 <ks0108WriteCommand>
    527e:	60 e0       	ldi	r22, 0x00	; 0
    5280:	80 ec       	ldi	r24, 0xC0	; 192
    5282:	0e 94 52 25 	call	0x4aa4	; 0x4aa4 <ks0108WriteCommand>
    5286:	61 e0       	ldi	r22, 0x01	; 1
    5288:	80 ec       	ldi	r24, 0xC0	; 192
    528a:	0e 94 52 25 	call	0x4aa4	; 0x4aa4 <ks0108WriteCommand>
    528e:	62 e0       	ldi	r22, 0x02	; 2
    5290:	80 ec       	ldi	r24, 0xC0	; 192
    5292:	0e 94 52 25 	call	0x4aa4	; 0x4aa4 <ks0108WriteCommand>
    5296:	00 e0       	ldi	r16, 0x00	; 0
    5298:	2f e3       	ldi	r18, 0x3F	; 63
    529a:	4f eb       	ldi	r20, 0xBF	; 191
    529c:	60 e0       	ldi	r22, 0x00	; 0
    529e:	80 e0       	ldi	r24, 0x00	; 0
    52a0:	0e 94 61 28 	call	0x50c2	; 0x50c2 <ks0108FillRect>
    52a4:	60 e0       	ldi	r22, 0x00	; 0
    52a6:	80 e0       	ldi	r24, 0x00	; 0
    52a8:	0f 91       	pop	r16
    52aa:	0c 94 da 25 	jmp	0x4bb4	; 0x4bb4 <ks0108GotoXY>

000052ae <ks0108InvertRect>:
    52ae:	9f 92       	push	r9
    52b0:	af 92       	push	r10
    52b2:	bf 92       	push	r11
    52b4:	cf 92       	push	r12
    52b6:	df 92       	push	r13
    52b8:	ef 92       	push	r14
    52ba:	ff 92       	push	r15
    52bc:	0f 93       	push	r16
    52be:	1f 93       	push	r17
    52c0:	cf 93       	push	r28
    52c2:	df 93       	push	r29
    52c4:	e8 2e       	mov	r14, r24
    52c6:	f4 2e       	mov	r15, r20
    52c8:	dd 24       	eor	r13, r13
    52ca:	d3 94       	inc	r13
    52cc:	d2 0e       	add	r13, r18
    52ce:	86 2f       	mov	r24, r22
    52d0:	87 70       	andi	r24, 0x07	; 7
    52d2:	c6 2e       	mov	r12, r22
    52d4:	c8 1a       	sub	r12, r24
    52d6:	0d 2d       	mov	r16, r13
    52d8:	10 e0       	ldi	r17, 0x00	; 0
    52da:	28 e0       	ldi	r18, 0x08	; 8
    52dc:	30 e0       	ldi	r19, 0x00	; 0
    52de:	a9 01       	movw	r20, r18
    52e0:	48 1b       	sub	r20, r24
    52e2:	51 09       	sbc	r21, r1
    52e4:	04 17       	cp	r16, r20
    52e6:	15 07       	cpc	r17, r21
    52e8:	5c f4       	brge	.+22     	; 0x5300 <ks0108InvertRect+0x52>
    52ea:	20 1b       	sub	r18, r16
    52ec:	31 0b       	sbc	r19, r17
    52ee:	cf ef       	ldi	r28, 0xFF	; 255
    52f0:	d0 e0       	ldi	r29, 0x00	; 0
    52f2:	02 c0       	rjmp	.+4      	; 0x52f8 <ks0108InvertRect+0x4a>
    52f4:	d5 95       	asr	r29
    52f6:	c7 95       	ror	r28
    52f8:	2a 95       	dec	r18
    52fa:	e2 f7       	brpl	.-8      	; 0x52f4 <ks0108InvertRect+0x46>
    52fc:	bd 2c       	mov	r11, r13
    52fe:	04 c0       	rjmp	.+8      	; 0x5308 <ks0108InvertRect+0x5a>
    5300:	c8 e0       	ldi	r28, 0x08	; 8
    5302:	bc 2e       	mov	r11, r28
    5304:	b8 1a       	sub	r11, r24
    5306:	cf ef       	ldi	r28, 0xFF	; 255
    5308:	01 c0       	rjmp	.+2      	; 0x530c <ks0108InvertRect+0x5e>
    530a:	cc 0f       	add	r28, r28
    530c:	8a 95       	dec	r24
    530e:	ea f7       	brpl	.-6      	; 0x530a <ks0108InvertRect+0x5c>
    5310:	9c 2e       	mov	r9, r28
    5312:	6c 2d       	mov	r22, r12
    5314:	8e 2d       	mov	r24, r14
    5316:	0e 94 da 25 	call	0x4bb4	; 0x4bb4 <ks0108GotoXY>
    531a:	a1 2c       	mov	r10, r1
    531c:	dc 2f       	mov	r29, r28
    531e:	d0 95       	com	r29
    5320:	81 e0       	ldi	r24, 0x01	; 1
    5322:	0e 94 1b 26 	call	0x4c36	; 0x4c36 <ks0108DoReadData>
    5326:	80 e0       	ldi	r24, 0x00	; 0
    5328:	0e 94 1b 26 	call	0x4c36	; 0x4c36 <ks0108DoReadData>
    532c:	98 2f       	mov	r25, r24
    532e:	90 95       	com	r25
    5330:	99 21       	and	r25, r9
    5332:	8d 23       	and	r24, r29
    5334:	89 2b       	or	r24, r25
    5336:	0e 94 9f 26 	call	0x4d3e	; 0x4d3e <ks0108WriteData>
    533a:	a3 94       	inc	r10
    533c:	fa 14       	cp	r15, r10
    533e:	80 f7       	brcc	.-32     	; 0x5320 <ks0108InvertRect+0x72>
    5340:	dc 2d       	mov	r29, r12
    5342:	cb 2d       	mov	r28, r11
    5344:	cc 19       	sub	r28, r12
    5346:	2c 2f       	mov	r18, r28
    5348:	2d 0f       	add	r18, r29
    534a:	82 2f       	mov	r24, r18
    534c:	90 e0       	ldi	r25, 0x00	; 0
    534e:	ac 01       	movw	r20, r24
    5350:	49 5f       	subi	r20, 0xF9	; 249
    5352:	5f 4f       	sbci	r21, 0xFF	; 255
    5354:	40 17       	cp	r20, r16
    5356:	51 07       	cpc	r21, r17
    5358:	9c f4       	brge	.+38     	; 0x5380 <ks0108InvertRect+0xd2>
    535a:	d8 5f       	subi	r29, 0xF8	; 248
    535c:	6d 2f       	mov	r22, r29
    535e:	8e 2d       	mov	r24, r14
    5360:	0e 94 da 25 	call	0x4bb4	; 0x4bb4 <ks0108GotoXY>
    5364:	c1 2c       	mov	r12, r1
    5366:	81 e0       	ldi	r24, 0x01	; 1
    5368:	0e 94 1b 26 	call	0x4c36	; 0x4c36 <ks0108DoReadData>
    536c:	80 e0       	ldi	r24, 0x00	; 0
    536e:	0e 94 1b 26 	call	0x4c36	; 0x4c36 <ks0108DoReadData>
    5372:	80 95       	com	r24
    5374:	0e 94 9f 26 	call	0x4d3e	; 0x4d3e <ks0108WriteData>
    5378:	c3 94       	inc	r12
    537a:	fc 14       	cp	r15, r12
    537c:	a0 f7       	brcc	.-24     	; 0x5366 <ks0108InvertRect+0xb8>
    537e:	e3 cf       	rjmp	.-58     	; 0x5346 <ks0108InvertRect+0x98>
    5380:	2d 15       	cp	r18, r13
    5382:	10 f5       	brcc	.+68     	; 0x53c8 <ks0108InvertRect+0x11a>
    5384:	08 1b       	sub	r16, r24
    5386:	19 0b       	sbc	r17, r25
    5388:	8f ef       	ldi	r24, 0xFF	; 255
    538a:	90 e0       	ldi	r25, 0x00	; 0
    538c:	01 c0       	rjmp	.+2      	; 0x5390 <ks0108InvertRect+0xe2>
    538e:	88 0f       	add	r24, r24
    5390:	0a 95       	dec	r16
    5392:	ea f7       	brpl	.-6      	; 0x538e <ks0108InvertRect+0xe0>
    5394:	c8 2f       	mov	r28, r24
    5396:	c0 95       	com	r28
    5398:	68 e0       	ldi	r22, 0x08	; 8
    539a:	6d 0f       	add	r22, r29
    539c:	8e 2d       	mov	r24, r14
    539e:	0e 94 da 25 	call	0x4bb4	; 0x4bb4 <ks0108GotoXY>
    53a2:	d0 e0       	ldi	r29, 0x00	; 0
    53a4:	1c 2f       	mov	r17, r28
    53a6:	10 95       	com	r17
    53a8:	81 e0       	ldi	r24, 0x01	; 1
    53aa:	0e 94 1b 26 	call	0x4c36	; 0x4c36 <ks0108DoReadData>
    53ae:	80 e0       	ldi	r24, 0x00	; 0
    53b0:	0e 94 1b 26 	call	0x4c36	; 0x4c36 <ks0108DoReadData>
    53b4:	98 2f       	mov	r25, r24
    53b6:	90 95       	com	r25
    53b8:	9c 23       	and	r25, r28
    53ba:	81 23       	and	r24, r17
    53bc:	89 2b       	or	r24, r25
    53be:	0e 94 9f 26 	call	0x4d3e	; 0x4d3e <ks0108WriteData>
    53c2:	df 5f       	subi	r29, 0xFF	; 255
    53c4:	fd 16       	cp	r15, r29
    53c6:	80 f7       	brcc	.-32     	; 0x53a8 <ks0108InvertRect+0xfa>
    53c8:	df 91       	pop	r29
    53ca:	cf 91       	pop	r28
    53cc:	1f 91       	pop	r17
    53ce:	0f 91       	pop	r16
    53d0:	ff 90       	pop	r15
    53d2:	ef 90       	pop	r14
    53d4:	df 90       	pop	r13
    53d6:	cf 90       	pop	r12
    53d8:	bf 90       	pop	r11
    53da:	af 90       	pop	r10
    53dc:	9f 90       	pop	r9
    53de:	08 95       	ret

000053e0 <ks0108SetDot>:
    53e0:	cf 93       	push	r28
    53e2:	df 93       	push	r29
    53e4:	c6 2f       	mov	r28, r22
    53e6:	d4 2f       	mov	r29, r20
    53e8:	68 7f       	andi	r22, 0xF8	; 248
    53ea:	0e 94 da 25 	call	0x4bb4	; 0x4bb4 <ks0108GotoXY>
    53ee:	81 e0       	ldi	r24, 0x01	; 1
    53f0:	0e 94 1b 26 	call	0x4c36	; 0x4c36 <ks0108DoReadData>
    53f4:	80 e0       	ldi	r24, 0x00	; 0
    53f6:	0e 94 1b 26 	call	0x4c36	; 0x4c36 <ks0108DoReadData>
    53fa:	c7 70       	andi	r28, 0x07	; 7
    53fc:	21 e0       	ldi	r18, 0x01	; 1
    53fe:	30 e0       	ldi	r19, 0x00	; 0
    5400:	01 c0       	rjmp	.+2      	; 0x5404 <ks0108SetDot+0x24>
    5402:	22 0f       	add	r18, r18
    5404:	ca 95       	dec	r28
    5406:	ea f7       	brpl	.-6      	; 0x5402 <ks0108SetDot+0x22>
    5408:	df 3f       	cpi	r29, 0xFF	; 255
    540a:	11 f4       	brne	.+4      	; 0x5410 <ks0108SetDot+0x30>
    540c:	82 2b       	or	r24, r18
    540e:	02 c0       	rjmp	.+4      	; 0x5414 <ks0108SetDot+0x34>
    5410:	20 95       	com	r18
    5412:	82 23       	and	r24, r18
    5414:	df 91       	pop	r29
    5416:	cf 91       	pop	r28
    5418:	0c 94 9f 26 	jmp	0x4d3e	; 0x4d3e <ks0108WriteData>

0000541c <ks0108DrawRoundRect>:
    541c:	2f 92       	push	r2
    541e:	3f 92       	push	r3
    5420:	4f 92       	push	r4
    5422:	5f 92       	push	r5
    5424:	6f 92       	push	r6
    5426:	7f 92       	push	r7
    5428:	8f 92       	push	r8
    542a:	9f 92       	push	r9
    542c:	af 92       	push	r10
    542e:	bf 92       	push	r11
    5430:	cf 92       	push	r12
    5432:	df 92       	push	r13
    5434:	ef 92       	push	r14
    5436:	ff 92       	push	r15
    5438:	0f 93       	push	r16
    543a:	1f 93       	push	r17
    543c:	cf 93       	push	r28
    543e:	df 93       	push	r29
    5440:	cd b7       	in	r28, 0x3d	; 61
    5442:	de b7       	in	r29, 0x3e	; 62
    5444:	2a 97       	sbiw	r28, 0x0a	; 10
    5446:	0f b6       	in	r0, 0x3f	; 63
    5448:	f8 94       	cli
    544a:	de bf       	out	0x3e, r29	; 62
    544c:	0f be       	out	0x3f, r0	; 63
    544e:	cd bf       	out	0x3d, r28	; 61
    5450:	18 2f       	mov	r17, r24
    5452:	f6 2e       	mov	r15, r22
    5454:	24 2e       	mov	r2, r20
    5456:	62 2e       	mov	r6, r18
    5458:	20 2f       	mov	r18, r16
    545a:	30 e0       	ldi	r19, 0x00	; 0
    545c:	3a 87       	std	Y+10, r19	; 0x0a
    545e:	29 87       	std	Y+9, r18	; 0x09
    5460:	c9 01       	movw	r24, r18
    5462:	88 0f       	add	r24, r24
    5464:	99 1f       	adc	r25, r25
    5466:	23 e0       	ldi	r18, 0x03	; 3
    5468:	30 e0       	ldi	r19, 0x00	; 0
    546a:	69 01       	movw	r12, r18
    546c:	c8 1a       	sub	r12, r24
    546e:	d9 0a       	sbc	r13, r25
    5470:	70 2e       	mov	r7, r16
    5472:	71 0e       	add	r7, r17
    5474:	31 2f       	mov	r19, r17
    5476:	34 0f       	add	r19, r20
    5478:	3c 83       	std	Y+4, r19	; 0x04
    547a:	30 1b       	sub	r19, r16
    547c:	3b 83       	std	Y+3, r19	; 0x03
    547e:	93 2e       	mov	r9, r19
    5480:	87 2c       	mov	r8, r7
    5482:	a1 2c       	mov	r10, r1
    5484:	b1 2c       	mov	r11, r1
    5486:	30 2e       	mov	r3, r16
    5488:	3f 0c       	add	r3, r15
    548a:	8f 2d       	mov	r24, r15
    548c:	81 1b       	sub	r24, r17
    548e:	8e 83       	std	Y+6, r24	; 0x06
    5490:	9f 2d       	mov	r25, r15
    5492:	96 0d       	add	r25, r6
    5494:	9d 83       	std	Y+5, r25	; 0x05
    5496:	90 1b       	sub	r25, r16
    5498:	9f 83       	std	Y+7, r25	; 0x07
    549a:	86 2d       	mov	r24, r6
    549c:	84 1b       	sub	r24, r20
    549e:	8f 0d       	add	r24, r15
    54a0:	81 1b       	sub	r24, r17
    54a2:	88 87       	std	Y+8, r24	; 0x08
    54a4:	4e 2d       	mov	r20, r14
    54a6:	43 2c       	mov	r4, r3
    54a8:	29 85       	ldd	r18, Y+9	; 0x09
    54aa:	42 1a       	sub	r4, r18
    54ac:	64 2d       	mov	r22, r4
    54ae:	88 2d       	mov	r24, r8
    54b0:	0e 94 f0 29 	call	0x53e0	; 0x53e0 <ks0108SetDot>
    54b4:	4e 2d       	mov	r20, r14
    54b6:	5e 80       	ldd	r5, Y+6	; 0x06
    54b8:	58 0c       	add	r5, r8
    54ba:	65 2d       	mov	r22, r5
    54bc:	37 2d       	mov	r19, r7
    54be:	89 85       	ldd	r24, Y+9	; 0x09
    54c0:	38 1b       	sub	r19, r24
    54c2:	39 83       	std	Y+1, r19	; 0x01
    54c4:	83 2f       	mov	r24, r19
    54c6:	0e 94 f0 29 	call	0x53e0	; 0x53e0 <ks0108SetDot>
    54ca:	4e 2d       	mov	r20, r14
    54cc:	64 2d       	mov	r22, r4
    54ce:	89 2d       	mov	r24, r9
    54d0:	0e 94 f0 29 	call	0x53e0	; 0x53e0 <ks0108SetDot>
    54d4:	4e 2d       	mov	r20, r14
    54d6:	65 2d       	mov	r22, r5
    54d8:	9b 81       	ldd	r25, Y+3	; 0x03
    54da:	29 85       	ldd	r18, Y+9	; 0x09
    54dc:	92 0f       	add	r25, r18
    54de:	9a 83       	std	Y+2, r25	; 0x02
    54e0:	89 2f       	mov	r24, r25
    54e2:	0e 94 f0 29 	call	0x53e0	; 0x53e0 <ks0108SetDot>
    54e6:	4e 2d       	mov	r20, r14
    54e8:	4f 80       	ldd	r4, Y+7	; 0x07
    54ea:	39 85       	ldd	r19, Y+9	; 0x09
    54ec:	43 0e       	add	r4, r19
    54ee:	64 2d       	mov	r22, r4
    54f0:	89 2d       	mov	r24, r9
    54f2:	0e 94 f0 29 	call	0x53e0	; 0x53e0 <ks0108SetDot>
    54f6:	4e 2d       	mov	r20, r14
    54f8:	58 84       	ldd	r5, Y+8	; 0x08
    54fa:	59 0c       	add	r5, r9
    54fc:	65 2d       	mov	r22, r5
    54fe:	8a 81       	ldd	r24, Y+2	; 0x02
    5500:	0e 94 f0 29 	call	0x53e0	; 0x53e0 <ks0108SetDot>
    5504:	4e 2d       	mov	r20, r14
    5506:	64 2d       	mov	r22, r4
    5508:	88 2d       	mov	r24, r8
    550a:	0e 94 f0 29 	call	0x53e0	; 0x53e0 <ks0108SetDot>
    550e:	4e 2d       	mov	r20, r14
    5510:	65 2d       	mov	r22, r5
    5512:	89 81       	ldd	r24, Y+1	; 0x01
    5514:	0e 94 f0 29 	call	0x53e0	; 0x53e0 <ks0108SetDot>
    5518:	c5 01       	movw	r24, r10
    551a:	d7 fe       	sbrs	r13, 7
    551c:	08 c0       	rjmp	.+16     	; 0x552e <ks0108DrawRoundRect+0x112>
    551e:	88 0f       	add	r24, r24
    5520:	99 1f       	adc	r25, r25
    5522:	88 0f       	add	r24, r24
    5524:	99 1f       	adc	r25, r25
    5526:	06 96       	adiw	r24, 0x06	; 6
    5528:	c8 0e       	add	r12, r24
    552a:	d9 1e       	adc	r13, r25
    552c:	0f c0       	rjmp	.+30     	; 0x554c <ks0108DrawRoundRect+0x130>
    552e:	29 85       	ldd	r18, Y+9	; 0x09
    5530:	3a 85       	ldd	r19, Y+10	; 0x0a
    5532:	82 1b       	sub	r24, r18
    5534:	93 0b       	sbc	r25, r19
    5536:	88 0f       	add	r24, r24
    5538:	99 1f       	adc	r25, r25
    553a:	88 0f       	add	r24, r24
    553c:	99 1f       	adc	r25, r25
    553e:	0a 96       	adiw	r24, 0x0a	; 10
    5540:	c8 0e       	add	r12, r24
    5542:	d9 1e       	adc	r13, r25
    5544:	21 50       	subi	r18, 0x01	; 1
    5546:	31 09       	sbc	r19, r1
    5548:	3a 87       	std	Y+10, r19	; 0x0a
    554a:	29 87       	std	Y+9, r18	; 0x09
    554c:	3f ef       	ldi	r19, 0xFF	; 255
    554e:	a3 1a       	sub	r10, r19
    5550:	b3 0a       	sbc	r11, r19
    5552:	8a 94       	dec	r8
    5554:	93 94       	inc	r9
    5556:	89 85       	ldd	r24, Y+9	; 0x09
    5558:	9a 85       	ldd	r25, Y+10	; 0x0a
    555a:	8a 15       	cp	r24, r10
    555c:	9b 05       	cpc	r25, r11
    555e:	0c f0       	brlt	.+2      	; 0x5562 <ks0108DrawRoundRect+0x146>
    5560:	a1 cf       	rjmp	.-190    	; 0x54a4 <ks0108DrawRoundRect+0x88>
    5562:	00 0f       	add	r16, r16
    5564:	09 83       	std	Y+1, r16	; 0x01
    5566:	20 1a       	sub	r2, r16
    5568:	2a 82       	std	Y+2, r2	; 0x02
    556a:	0e 2d       	mov	r16, r14
    556c:	20 e0       	ldi	r18, 0x00	; 0
    556e:	42 2d       	mov	r20, r2
    5570:	6f 2d       	mov	r22, r15
    5572:	87 2d       	mov	r24, r7
    5574:	0e 94 61 28 	call	0x50c2	; 0x50c2 <ks0108FillRect>
    5578:	20 e0       	ldi	r18, 0x00	; 0
    557a:	4a 81       	ldd	r20, Y+2	; 0x02
    557c:	6d 81       	ldd	r22, Y+5	; 0x05
    557e:	87 2d       	mov	r24, r7
    5580:	0e 94 61 28 	call	0x50c2	; 0x50c2 <ks0108FillRect>
    5584:	99 81       	ldd	r25, Y+1	; 0x01
    5586:	69 1a       	sub	r6, r25
    5588:	69 82       	std	Y+1, r6	; 0x01
    558a:	26 2d       	mov	r18, r6
    558c:	40 e0       	ldi	r20, 0x00	; 0
    558e:	63 2d       	mov	r22, r3
    5590:	81 2f       	mov	r24, r17
    5592:	0e 94 61 28 	call	0x50c2	; 0x50c2 <ks0108FillRect>
    5596:	29 81       	ldd	r18, Y+1	; 0x01
    5598:	40 e0       	ldi	r20, 0x00	; 0
    559a:	63 2d       	mov	r22, r3
    559c:	8c 81       	ldd	r24, Y+4	; 0x04
    559e:	0e 94 61 28 	call	0x50c2	; 0x50c2 <ks0108FillRect>
    55a2:	2a 96       	adiw	r28, 0x0a	; 10
    55a4:	0f b6       	in	r0, 0x3f	; 63
    55a6:	f8 94       	cli
    55a8:	de bf       	out	0x3e, r29	; 62
    55aa:	0f be       	out	0x3f, r0	; 63
    55ac:	cd bf       	out	0x3d, r28	; 61
    55ae:	df 91       	pop	r29
    55b0:	cf 91       	pop	r28
    55b2:	1f 91       	pop	r17
    55b4:	0f 91       	pop	r16
    55b6:	ff 90       	pop	r15
    55b8:	ef 90       	pop	r14
    55ba:	df 90       	pop	r13
    55bc:	cf 90       	pop	r12
    55be:	bf 90       	pop	r11
    55c0:	af 90       	pop	r10
    55c2:	9f 90       	pop	r9
    55c4:	8f 90       	pop	r8
    55c6:	7f 90       	pop	r7
    55c8:	6f 90       	pop	r6
    55ca:	5f 90       	pop	r5
    55cc:	4f 90       	pop	r4
    55ce:	3f 90       	pop	r3
    55d0:	2f 90       	pop	r2
    55d2:	08 95       	ret

000055d4 <ks0108PutChar>:
    55d4:	2f 92       	push	r2
    55d6:	3f 92       	push	r3
    55d8:	4f 92       	push	r4
    55da:	5f 92       	push	r5
    55dc:	6f 92       	push	r6
    55de:	7f 92       	push	r7
    55e0:	8f 92       	push	r8
    55e2:	9f 92       	push	r9
    55e4:	af 92       	push	r10
    55e6:	bf 92       	push	r11
    55e8:	cf 92       	push	r12
    55ea:	df 92       	push	r13
    55ec:	ef 92       	push	r14
    55ee:	ff 92       	push	r15
    55f0:	0f 93       	push	r16
    55f2:	1f 93       	push	r17
    55f4:	cf 93       	push	r28
    55f6:	df 93       	push	r29
    55f8:	00 d0       	rcall	.+0      	; 0x55fa <ks0108PutChar+0x26>
    55fa:	00 d0       	rcall	.+0      	; 0x55fc <ks0108PutChar+0x28>
    55fc:	cd b7       	in	r28, 0x3d	; 61
    55fe:	de b7       	in	r29, 0x3e	; 62
    5600:	e8 2e       	mov	r14, r24
    5602:	80 91 d2 09 	lds	r24, 0x09D2	; 0x8009d2 <ks0108Font>
    5606:	90 91 d3 09 	lds	r25, 0x09D3	; 0x8009d3 <ks0108Font+0x1>
    560a:	e0 91 d0 09 	lds	r30, 0x09D0	; 0x8009d0 <ks0108FontRead>
    560e:	f0 91 d1 09 	lds	r31, 0x09D1	; 0x8009d1 <ks0108FontRead+0x1>
    5612:	03 96       	adiw	r24, 0x03	; 3
    5614:	09 95       	icall
    5616:	8a 83       	std	Y+2, r24	; 0x02
    5618:	80 91 d2 09 	lds	r24, 0x09D2	; 0x8009d2 <ks0108Font>
    561c:	90 91 d3 09 	lds	r25, 0x09D3	; 0x8009d3 <ks0108Font+0x1>
    5620:	e0 91 d0 09 	lds	r30, 0x09D0	; 0x8009d0 <ks0108FontRead>
    5624:	f0 91 d1 09 	lds	r31, 0x09D1	; 0x8009d1 <ks0108FontRead+0x1>
    5628:	04 96       	adiw	r24, 0x04	; 4
    562a:	09 95       	icall
    562c:	8b 83       	std	Y+3, r24	; 0x03
    562e:	80 91 d2 09 	lds	r24, 0x09D2	; 0x8009d2 <ks0108Font>
    5632:	90 91 d3 09 	lds	r25, 0x09D3	; 0x8009d3 <ks0108Font+0x1>
    5636:	e0 91 d0 09 	lds	r30, 0x09D0	; 0x8009d0 <ks0108FontRead>
    563a:	f0 91 d1 09 	lds	r31, 0x09D1	; 0x8009d1 <ks0108FontRead+0x1>
    563e:	05 96       	adiw	r24, 0x05	; 5
    5640:	09 95       	icall
    5642:	4e 2d       	mov	r20, r14
    5644:	0e 2c       	mov	r0, r14
    5646:	00 0c       	add	r0, r0
    5648:	55 0b       	sbc	r21, r21
    564a:	9b 81       	ldd	r25, Y+3	; 0x03
    564c:	29 2f       	mov	r18, r25
    564e:	30 e0       	ldi	r19, 0x00	; 0
    5650:	42 17       	cp	r20, r18
    5652:	53 07       	cpc	r21, r19
    5654:	0c f4       	brge	.+2      	; 0x5658 <ks0108PutChar+0x84>
    5656:	a4 c0       	rjmp	.+328    	; 0x57a0 <ks0108PutChar+0x1cc>
    5658:	c8 2e       	mov	r12, r24
    565a:	d1 2c       	mov	r13, r1
    565c:	2c 0d       	add	r18, r12
    565e:	3d 1d       	adc	r19, r13
    5660:	42 17       	cp	r20, r18
    5662:	53 07       	cpc	r21, r19
    5664:	0c f0       	brlt	.+2      	; 0x5668 <ks0108PutChar+0x94>
    5666:	9c c0       	rjmp	.+312    	; 0x57a0 <ks0108PutChar+0x1cc>
    5668:	20 90 cd 09 	lds	r2, 0x09CD	; 0x8009cd <ks0108Coord>
    566c:	20 91 ce 09 	lds	r18, 0x09CE	; 0x8009ce <ks0108Coord+0x1>
    5670:	29 83       	std	Y+1, r18	; 0x01
    5672:	e9 1a       	sub	r14, r25
    5674:	1b 82       	std	Y+3, r1	; 0x03
    5676:	81 2c       	mov	r8, r1
    5678:	91 2c       	mov	r9, r1
    567a:	0e 2c       	mov	r0, r14
    567c:	00 0c       	add	r0, r0
    567e:	ff 08       	sbc	r15, r15
    5680:	8b 81       	ldd	r24, Y+3	; 0x03
    5682:	28 2f       	mov	r18, r24
    5684:	30 e0       	ldi	r19, 0x00	; 0
    5686:	80 91 d2 09 	lds	r24, 0x09D2	; 0x8009d2 <ks0108Font>
    568a:	90 91 d3 09 	lds	r25, 0x09D3	; 0x8009d3 <ks0108Font+0x1>
    568e:	e0 91 d0 09 	lds	r30, 0x09D0	; 0x8009d0 <ks0108FontRead>
    5692:	f0 91 d1 09 	lds	r31, 0x09D1	; 0x8009d1 <ks0108FontRead+0x1>
    5696:	2e 15       	cp	r18, r14
    5698:	3f 05       	cpc	r19, r15
    569a:	5c f4       	brge	.+22     	; 0x56b2 <ks0108PutChar+0xde>
    569c:	2a 5f       	subi	r18, 0xFA	; 250
    569e:	3f 4f       	sbci	r19, 0xFF	; 255
    56a0:	82 0f       	add	r24, r18
    56a2:	93 1f       	adc	r25, r19
    56a4:	09 95       	icall
    56a6:	88 0e       	add	r8, r24
    56a8:	91 1c       	adc	r9, r1
    56aa:	3b 81       	ldd	r19, Y+3	; 0x03
    56ac:	3f 5f       	subi	r19, 0xFF	; 255
    56ae:	3b 83       	std	Y+3, r19	; 0x03
    56b0:	e7 cf       	rjmp	.-50     	; 0x5680 <ks0108PutChar+0xac>
    56b2:	3a 81       	ldd	r19, Y+2	; 0x02
    56b4:	23 2f       	mov	r18, r19
    56b6:	30 e0       	ldi	r19, 0x00	; 0
    56b8:	3c 83       	std	Y+4, r19	; 0x04
    56ba:	2b 83       	std	Y+3, r18	; 0x03
    56bc:	89 01       	movw	r16, r18
    56be:	09 5f       	subi	r16, 0xF9	; 249
    56c0:	1f 4f       	sbci	r17, 0xFF	; 255
    56c2:	23 e0       	ldi	r18, 0x03	; 3
    56c4:	15 95       	asr	r17
    56c6:	07 95       	ror	r16
    56c8:	2a 95       	dec	r18
    56ca:	e1 f7       	brne	.-8      	; 0x56c4 <ks0108PutChar+0xf0>
    56cc:	08 9d       	mul	r16, r8
    56ce:	50 01       	movw	r10, r0
    56d0:	09 9d       	mul	r16, r9
    56d2:	b0 0c       	add	r11, r0
    56d4:	18 9d       	mul	r17, r8
    56d6:	b0 0c       	add	r11, r0
    56d8:	11 24       	eor	r1, r1
    56da:	26 e0       	ldi	r18, 0x06	; 6
    56dc:	c2 0e       	add	r12, r18
    56de:	d1 1c       	adc	r13, r1
    56e0:	ac 0c       	add	r10, r12
    56e2:	bd 1c       	adc	r11, r13
    56e4:	36 e0       	ldi	r19, 0x06	; 6
    56e6:	e3 0e       	add	r14, r19
    56e8:	f1 1c       	adc	r15, r1
    56ea:	8e 0d       	add	r24, r14
    56ec:	9f 1d       	adc	r25, r15
    56ee:	09 95       	icall
    56f0:	58 2e       	mov	r5, r24
    56f2:	38 e0       	ldi	r19, 0x08	; 8
    56f4:	e3 2e       	mov	r14, r19
    56f6:	f1 2c       	mov	r15, r1
    56f8:	31 2c       	mov	r3, r1
    56fa:	41 2c       	mov	r4, r1
    56fc:	40 16       	cp	r4, r16
    56fe:	08 f0       	brcs	.+2      	; 0x5702 <ks0108PutChar+0x12e>
    5700:	46 c0       	rjmp	.+140    	; 0x578e <ks0108PutChar+0x1ba>
    5702:	37 01       	movw	r6, r14
    5704:	8b 81       	ldd	r24, Y+3	; 0x03
    5706:	9c 81       	ldd	r25, Y+4	; 0x04
    5708:	68 1a       	sub	r6, r24
    570a:	79 0a       	sbc	r7, r25
    570c:	c1 2c       	mov	r12, r1
    570e:	d1 2c       	mov	r13, r1
    5710:	45 01       	movw	r8, r10
    5712:	83 0c       	add	r8, r3
    5714:	91 1c       	adc	r9, r1
    5716:	c5 14       	cp	r12, r5
    5718:	28 f5       	brcc	.+74     	; 0x5764 <ks0108PutChar+0x190>
    571a:	20 91 d2 09 	lds	r18, 0x09D2	; 0x8009d2 <ks0108Font>
    571e:	30 91 d3 09 	lds	r19, 0x09D3	; 0x8009d3 <ks0108Font+0x1>
    5722:	e0 91 d0 09 	lds	r30, 0x09D0	; 0x8009d0 <ks0108FontRead>
    5726:	f0 91 d1 09 	lds	r31, 0x09D1	; 0x8009d1 <ks0108FontRead+0x1>
    572a:	c4 01       	movw	r24, r8
    572c:	8c 0d       	add	r24, r12
    572e:	9d 1d       	adc	r25, r13
    5730:	82 0f       	add	r24, r18
    5732:	93 1f       	adc	r25, r19
    5734:	09 95       	icall
    5736:	2b 81       	ldd	r18, Y+3	; 0x03
    5738:	3c 81       	ldd	r19, Y+4	; 0x04
    573a:	2e 15       	cp	r18, r14
    573c:	3f 05       	cpc	r19, r15
    573e:	3c f4       	brge	.+14     	; 0x574e <ks0108PutChar+0x17a>
    5740:	90 e0       	ldi	r25, 0x00	; 0
    5742:	06 2c       	mov	r0, r6
    5744:	02 c0       	rjmp	.+4      	; 0x574a <ks0108PutChar+0x176>
    5746:	95 95       	asr	r25
    5748:	87 95       	ror	r24
    574a:	0a 94       	dec	r0
    574c:	e2 f7       	brpl	.-8      	; 0x5746 <ks0108PutChar+0x172>
    574e:	90 91 cc 09 	lds	r25, 0x09CC	; 0x8009cc <ks0108FontColor>
    5752:	9f 3f       	cpi	r25, 0xFF	; 255
    5754:	09 f0       	breq	.+2      	; 0x5758 <ks0108PutChar+0x184>
    5756:	80 95       	com	r24
    5758:	0e 94 9f 26 	call	0x4d3e	; 0x4d3e <ks0108WriteData>
    575c:	3f ef       	ldi	r19, 0xFF	; 255
    575e:	c3 1a       	sub	r12, r19
    5760:	d3 0a       	sbc	r13, r19
    5762:	d9 cf       	rjmp	.-78     	; 0x5716 <ks0108PutChar+0x142>
    5764:	80 91 cc 09 	lds	r24, 0x09CC	; 0x8009cc <ks0108FontColor>
    5768:	8f 3f       	cpi	r24, 0xFF	; 255
    576a:	11 f4       	brne	.+4      	; 0x5770 <ks0108PutChar+0x19c>
    576c:	80 e0       	ldi	r24, 0x00	; 0
    576e:	01 c0       	rjmp	.+2      	; 0x5772 <ks0108PutChar+0x19e>
    5770:	8f ef       	ldi	r24, 0xFF	; 255
    5772:	0e 94 9f 26 	call	0x4d3e	; 0x4d3e <ks0108WriteData>
    5776:	60 91 ce 09 	lds	r22, 0x09CE	; 0x8009ce <ks0108Coord+0x1>
    577a:	68 5f       	subi	r22, 0xF8	; 248
    577c:	82 2d       	mov	r24, r2
    577e:	0e 94 da 25 	call	0x4bb4	; 0x4bb4 <ks0108GotoXY>
    5782:	43 94       	inc	r4
    5784:	35 0c       	add	r3, r5
    5786:	88 e0       	ldi	r24, 0x08	; 8
    5788:	e8 0e       	add	r14, r24
    578a:	f1 1c       	adc	r15, r1
    578c:	b7 cf       	rjmp	.-146    	; 0x56fc <ks0108PutChar+0x128>
    578e:	81 e0       	ldi	r24, 0x01	; 1
    5790:	82 0d       	add	r24, r2
    5792:	69 81       	ldd	r22, Y+1	; 0x01
    5794:	85 0d       	add	r24, r5
    5796:	0e 94 da 25 	call	0x4bb4	; 0x4bb4 <ks0108GotoXY>
    579a:	80 e0       	ldi	r24, 0x00	; 0
    579c:	90 e0       	ldi	r25, 0x00	; 0
    579e:	02 c0       	rjmp	.+4      	; 0x57a4 <ks0108PutChar+0x1d0>
    57a0:	81 e0       	ldi	r24, 0x01	; 1
    57a2:	90 e0       	ldi	r25, 0x00	; 0
    57a4:	0f 90       	pop	r0
    57a6:	0f 90       	pop	r0
    57a8:	0f 90       	pop	r0
    57aa:	0f 90       	pop	r0
    57ac:	df 91       	pop	r29
    57ae:	cf 91       	pop	r28
    57b0:	1f 91       	pop	r17
    57b2:	0f 91       	pop	r16
    57b4:	ff 90       	pop	r15
    57b6:	ef 90       	pop	r14
    57b8:	df 90       	pop	r13
    57ba:	cf 90       	pop	r12
    57bc:	bf 90       	pop	r11
    57be:	af 90       	pop	r10
    57c0:	9f 90       	pop	r9
    57c2:	8f 90       	pop	r8
    57c4:	7f 90       	pop	r7
    57c6:	6f 90       	pop	r6
    57c8:	5f 90       	pop	r5
    57ca:	4f 90       	pop	r4
    57cc:	3f 90       	pop	r3
    57ce:	2f 90       	pop	r2
    57d0:	08 95       	ret

000057d2 <ks0108Puts>:
    57d2:	0f 93       	push	r16
    57d4:	1f 93       	push	r17
    57d6:	cf 93       	push	r28
    57d8:	df 93       	push	r29
    57da:	d0 91 cd 09 	lds	r29, 0x09CD	; 0x8009cd <ks0108Coord>
    57de:	8c 01       	movw	r16, r24
    57e0:	f8 01       	movw	r30, r16
    57e2:	81 91       	ld	r24, Z+
    57e4:	8f 01       	movw	r16, r30
    57e6:	88 23       	and	r24, r24
    57e8:	b9 f0       	breq	.+46     	; 0x5818 <ks0108Puts+0x46>
    57ea:	8a 30       	cpi	r24, 0x0A	; 10
    57ec:	91 f4       	brne	.+36     	; 0x5812 <ks0108Puts+0x40>
    57ee:	c0 91 ce 09 	lds	r28, 0x09CE	; 0x8009ce <ks0108Coord+0x1>
    57f2:	80 91 d2 09 	lds	r24, 0x09D2	; 0x8009d2 <ks0108Font>
    57f6:	90 91 d3 09 	lds	r25, 0x09D3	; 0x8009d3 <ks0108Font+0x1>
    57fa:	e0 91 d0 09 	lds	r30, 0x09D0	; 0x8009d0 <ks0108FontRead>
    57fe:	f0 91 d1 09 	lds	r31, 0x09D1	; 0x8009d1 <ks0108FontRead+0x1>
    5802:	03 96       	adiw	r24, 0x03	; 3
    5804:	09 95       	icall
    5806:	6c 2f       	mov	r22, r28
    5808:	68 0f       	add	r22, r24
    580a:	8d 2f       	mov	r24, r29
    580c:	0e 94 da 25 	call	0x4bb4	; 0x4bb4 <ks0108GotoXY>
    5810:	e7 cf       	rjmp	.-50     	; 0x57e0 <ks0108Puts+0xe>
    5812:	0e 94 ea 2a 	call	0x55d4	; 0x55d4 <ks0108PutChar>
    5816:	e4 cf       	rjmp	.-56     	; 0x57e0 <ks0108Puts+0xe>
    5818:	df 91       	pop	r29
    581a:	cf 91       	pop	r28
    581c:	1f 91       	pop	r17
    581e:	0f 91       	pop	r16
    5820:	08 95       	ret

00005822 <ks0108Puts_P>:
    5822:	0f 93       	push	r16
    5824:	1f 93       	push	r17
    5826:	cf 93       	push	r28
    5828:	df 93       	push	r29
    582a:	ec 01       	movw	r28, r24
    582c:	00 91 cd 09 	lds	r16, 0x09CD	; 0x8009cd <ks0108Coord>
    5830:	fe 01       	movw	r30, r28
    5832:	84 91       	lpm	r24, Z
    5834:	88 23       	and	r24, r24
    5836:	e1 f0       	breq	.+56     	; 0x5870 <ks0108Puts_P+0x4e>
    5838:	fe 01       	movw	r30, r28
    583a:	84 91       	lpm	r24, Z
    583c:	8a 30       	cpi	r24, 0x0A	; 10
    583e:	91 f4       	brne	.+36     	; 0x5864 <ks0108Puts_P+0x42>
    5840:	10 91 ce 09 	lds	r17, 0x09CE	; 0x8009ce <ks0108Coord+0x1>
    5844:	80 91 d2 09 	lds	r24, 0x09D2	; 0x8009d2 <ks0108Font>
    5848:	90 91 d3 09 	lds	r25, 0x09D3	; 0x8009d3 <ks0108Font+0x1>
    584c:	e0 91 d0 09 	lds	r30, 0x09D0	; 0x8009d0 <ks0108FontRead>
    5850:	f0 91 d1 09 	lds	r31, 0x09D1	; 0x8009d1 <ks0108FontRead+0x1>
    5854:	03 96       	adiw	r24, 0x03	; 3
    5856:	09 95       	icall
    5858:	61 2f       	mov	r22, r17
    585a:	68 0f       	add	r22, r24
    585c:	80 2f       	mov	r24, r16
    585e:	0e 94 da 25 	call	0x4bb4	; 0x4bb4 <ks0108GotoXY>
    5862:	04 c0       	rjmp	.+8      	; 0x586c <ks0108Puts_P+0x4a>
    5864:	fe 01       	movw	r30, r28
    5866:	84 91       	lpm	r24, Z
    5868:	0e 94 ea 2a 	call	0x55d4	; 0x55d4 <ks0108PutChar>
    586c:	21 96       	adiw	r28, 0x01	; 1
    586e:	e0 cf       	rjmp	.-64     	; 0x5830 <ks0108Puts_P+0xe>
    5870:	df 91       	pop	r29
    5872:	cf 91       	pop	r28
    5874:	1f 91       	pop	r17
    5876:	0f 91       	pop	r16
    5878:	08 95       	ret

0000587a <main>:
    587a:	0f 93       	push	r16
    587c:	cf 93       	push	r28
    587e:	df 93       	push	r29
    5880:	00 d0       	rcall	.+0      	; 0x5882 <main+0x8>
    5882:	cd b7       	in	r28, 0x3d	; 61
    5884:	de b7       	in	r29, 0x3e	; 62
    5886:	0e 94 b7 3f 	call	0x7f6e	; 0x7f6e <InitPWM>
    588a:	0e 94 f7 1f 	call	0x3fee	; 0x3fee <Init_I2C_unimaster>
    588e:	0e 94 02 11 	call	0x2204	; 0x2204 <InitDS3231>
    5892:	0e 94 53 0b 	call	0x16a6	; 0x16a6 <InitBuzzer>
    5896:	0e 94 84 46 	call	0x8d08	; 0x8d08 <Init_USART0>
    589a:	0e 94 e7 3f 	call	0x7fce	; 0x7fce <InitRS845_0>
    589e:	0e 94 ca 1b 	call	0x3794	; 0x3794 <InitGLCD192x64>
    58a2:	0e 94 e1 20 	call	0x41c2	; 0x41c2 <InitKeyboard>
    58a6:	0e 94 fc 40 	call	0x81f8	; 0x81f8 <InitTCNT0>
    58aa:	82 e0       	ldi	r24, 0x02	; 2
    58ac:	87 bf       	out	0x37, r24	; 55
    58ae:	1a 82       	std	Y+2, r1	; 0x02
    58b0:	19 82       	std	Y+1, r1	; 0x01
    58b2:	89 81       	ldd	r24, Y+1	; 0x01
    58b4:	9a 81       	ldd	r25, Y+2	; 0x02
    58b6:	88 39       	cpi	r24, 0x98	; 152
    58b8:	9a 43       	sbci	r25, 0x3A	; 58
    58ba:	30 f4       	brcc	.+12     	; 0x58c8 <main+0x4e>
    58bc:	89 81       	ldd	r24, Y+1	; 0x01
    58be:	9a 81       	ldd	r25, Y+2	; 0x02
    58c0:	01 96       	adiw	r24, 0x01	; 1
    58c2:	9a 83       	std	Y+2, r25	; 0x02
    58c4:	89 83       	std	Y+1, r24	; 0x01
    58c6:	f5 cf       	rjmp	.-22     	; 0x58b2 <main+0x38>
    58c8:	df 9a       	sbi	0x1b, 7	; 27
    58ca:	80 e0       	ldi	r24, 0x00	; 0
    58cc:	0e 94 1c 29 	call	0x5238	; 0x5238 <ks0108Init>
    58d0:	00 e0       	ldi	r16, 0x00	; 0
    58d2:	2f e3       	ldi	r18, 0x3F	; 63
    58d4:	4f eb       	ldi	r20, 0xBF	; 191
    58d6:	60 e0       	ldi	r22, 0x00	; 0
    58d8:	80 e0       	ldi	r24, 0x00	; 0
    58da:	0e 94 61 28 	call	0x50c2	; 0x50c2 <ks0108FillRect>
    58de:	4f ef       	ldi	r20, 0xFF	; 255
    58e0:	64 e4       	ldi	r22, 0x44	; 68
    58e2:	75 e2       	ldi	r23, 0x25	; 37
    58e4:	86 e0       	ldi	r24, 0x06	; 6
    58e6:	90 e1       	ldi	r25, 0x10	; 16
    58e8:	0e 94 47 25 	call	0x4a8e	; 0x4a8e <ks0108SelectFont>
    58ec:	0e 94 5e 4b 	call	0x96bc	; 0x96bc <InitZones>
    58f0:	0e 94 5d 15 	call	0x2aba	; 0x2aba <init_scene>
    58f4:	0e 94 c6 11 	call	0x238c	; 0x238c <ObjBlink_CaptionOfBarZone_InitAllCounterTimer>
    58f8:	0e 94 e8 3a 	call	0x75d0	; 0x75d0 <RG_SDNDL_Init_AllRadios>
    58fc:	1a 82       	std	Y+2, r1	; 0x02
    58fe:	19 82       	std	Y+1, r1	; 0x01
    5900:	89 81       	ldd	r24, Y+1	; 0x01
    5902:	9a 81       	ldd	r25, Y+2	; 0x02
    5904:	04 97       	sbiw	r24, 0x04	; 4
    5906:	48 f5       	brcc	.+82     	; 0x595a <main+0xe0>
    5908:	e9 81       	ldd	r30, Y+1	; 0x01
    590a:	fa 81       	ldd	r31, Y+2	; 0x02
    590c:	a9 81       	ldd	r26, Y+1	; 0x01
    590e:	ba 81       	ldd	r27, Y+2	; 0x02
    5910:	aa 0f       	add	r26, r26
    5912:	bb 1f       	adc	r27, r27
    5914:	ae 5a       	subi	r26, 0xAE	; 174
    5916:	bd 4f       	sbci	r27, 0xFD	; 253
    5918:	8c 91       	ld	r24, X
    591a:	93 e0       	ldi	r25, 0x03	; 3
    591c:	ee 0f       	add	r30, r30
    591e:	ff 1f       	adc	r31, r31
    5920:	9a 95       	dec	r25
    5922:	e1 f7       	brne	.-8      	; 0x591c <main+0xa2>
    5924:	ee 5b       	subi	r30, 0xBE	; 190
    5926:	f7 4f       	sbci	r31, 0xF7	; 247
    5928:	86 83       	std	Z+6, r24	; 0x06
    592a:	e9 81       	ldd	r30, Y+1	; 0x01
    592c:	fa 81       	ldd	r31, Y+2	; 0x02
    592e:	a9 81       	ldd	r26, Y+1	; 0x01
    5930:	ba 81       	ldd	r27, Y+2	; 0x02
    5932:	aa 0f       	add	r26, r26
    5934:	bb 1f       	adc	r27, r27
    5936:	ae 5a       	subi	r26, 0xAE	; 174
    5938:	bd 4f       	sbci	r27, 0xFD	; 253
    593a:	11 96       	adiw	r26, 0x01	; 1
    593c:	8c 91       	ld	r24, X
    593e:	33 e0       	ldi	r19, 0x03	; 3
    5940:	ee 0f       	add	r30, r30
    5942:	ff 1f       	adc	r31, r31
    5944:	3a 95       	dec	r19
    5946:	e1 f7       	brne	.-8      	; 0x5940 <main+0xc6>
    5948:	ee 5b       	subi	r30, 0xBE	; 190
    594a:	f7 4f       	sbci	r31, 0xF7	; 247
    594c:	87 83       	std	Z+7, r24	; 0x07
    594e:	89 81       	ldd	r24, Y+1	; 0x01
    5950:	9a 81       	ldd	r25, Y+2	; 0x02
    5952:	01 96       	adiw	r24, 0x01	; 1
    5954:	9a 83       	std	Y+2, r25	; 0x02
    5956:	89 83       	std	Y+1, r24	; 0x01
    5958:	d3 cf       	rjmp	.-90     	; 0x5900 <main+0x86>
    595a:	62 e5       	ldi	r22, 0x52	; 82
    595c:	72 e0       	ldi	r23, 0x02	; 2
    595e:	81 e0       	ldi	r24, 0x01	; 1
    5960:	0e 94 9f 23 	call	0x473e	; 0x473e <synch_change_layout_kb>
    5964:	0e 94 31 44 	call	0x8862	; 0x8862 <time_printdisp__set_xy>
    5968:	10 92 5c 0a 	sts	0x0A5C, r1	; 0x800a5c <date_printdisp+0x15>
    596c:	0e 94 db 44 	call	0x89b6	; 0x89b6 <date_printdisp__set_xy>
    5970:	78 94       	sei
    5972:	0e 94 7c 40 	call	0x80f8	; 0x80f8 <Shell_main>
    5976:	80 e0       	ldi	r24, 0x00	; 0
    5978:	90 e0       	ldi	r25, 0x00	; 0
    597a:	0f 90       	pop	r0
    597c:	0f 90       	pop	r0
    597e:	df 91       	pop	r29
    5980:	cf 91       	pop	r28
    5982:	0f 91       	pop	r16
    5984:	08 95       	ret

00005986 <menu_main_background_panel0>:
    5986:	0f 93       	push	r16
    5988:	0f ef       	ldi	r16, 0xFF	; 255
    598a:	2f e3       	ldi	r18, 0x3F	; 63
    598c:	4f eb       	ldi	r20, 0xBF	; 191
    598e:	60 e0       	ldi	r22, 0x00	; 0
    5990:	80 e0       	ldi	r24, 0x00	; 0
    5992:	0e 94 f4 28 	call	0x51e8	; 0x51e8 <ks0108DrawRect>
    5996:	20 e0       	ldi	r18, 0x00	; 0
    5998:	4f eb       	ldi	r20, 0xBF	; 191
    599a:	6d e0       	ldi	r22, 0x0D	; 13
    599c:	80 e0       	ldi	r24, 0x00	; 0
    599e:	0e 94 61 28 	call	0x50c2	; 0x50c2 <ks0108FillRect>
    59a2:	4f ef       	ldi	r20, 0xFF	; 255
    59a4:	64 e4       	ldi	r22, 0x44	; 68
    59a6:	75 e2       	ldi	r23, 0x25	; 37
    59a8:	86 e0       	ldi	r24, 0x06	; 6
    59aa:	90 e1       	ldi	r25, 0x10	; 16
    59ac:	0e 94 47 25 	call	0x4a8e	; 0x4a8e <ks0108SelectFont>
    59b0:	61 e0       	ldi	r22, 0x01	; 1
    59b2:	83 e0       	ldi	r24, 0x03	; 3
    59b4:	0e 94 da 25 	call	0x4bb4	; 0x4bb4 <ks0108GotoXY>
    59b8:	88 e6       	ldi	r24, 0x68	; 104
    59ba:	94 e1       	ldi	r25, 0x14	; 20
    59bc:	0f 91       	pop	r16
    59be:	0c 94 11 2c 	jmp	0x5822	; 0x5822 <ks0108Puts_P>

000059c2 <push_menu>:
    59c2:	ae ed       	ldi	r26, 0xDE	; 222
    59c4:	b2 e0       	ldi	r27, 0x02	; 2
    59c6:	52 96       	adiw	r26, 0x12	; 18
    59c8:	7c 91       	ld	r23, X
    59ca:	52 97       	sbiw	r26, 0x12	; 18
    59cc:	27 2f       	mov	r18, r23
    59ce:	30 e0       	ldi	r19, 0x00	; 0
    59d0:	a9 01       	movw	r20, r18
    59d2:	4f 5f       	subi	r20, 0xFF	; 255
    59d4:	5f 4f       	sbci	r21, 0xFF	; 255
    59d6:	fa 01       	movw	r30, r20
    59d8:	ee 0f       	add	r30, r30
    59da:	ff 1f       	adc	r31, r31
    59dc:	4e 0f       	add	r20, r30
    59de:	5f 1f       	adc	r21, r31
    59e0:	fa 01       	movw	r30, r20
    59e2:	e2 52       	subi	r30, 0x22	; 34
    59e4:	fd 4f       	sbci	r31, 0xFD	; 253
    59e6:	91 83       	std	Z+1, r25	; 0x01
    59e8:	80 83       	st	Z, r24
    59ea:	f9 01       	movw	r30, r18
    59ec:	ee 0f       	add	r30, r30
    59ee:	ff 1f       	adc	r31, r31
    59f0:	2e 0f       	add	r18, r30
    59f2:	3f 1f       	adc	r19, r31
    59f4:	f9 01       	movw	r30, r18
    59f6:	e2 52       	subi	r30, 0x22	; 34
    59f8:	fd 4f       	sbci	r31, 0xFD	; 253
    59fa:	65 83       	std	Z+5, r22	; 0x05
    59fc:	7f 5f       	subi	r23, 0xFF	; 255
    59fe:	52 96       	adiw	r26, 0x12	; 18
    5a00:	7c 93       	st	X, r23
    5a02:	08 95       	ret

00005a04 <pop_menu>:
    5a04:	ae ed       	ldi	r26, 0xDE	; 222
    5a06:	b2 e0       	ldi	r27, 0x02	; 2
    5a08:	52 96       	adiw	r26, 0x12	; 18
    5a0a:	8c 91       	ld	r24, X
    5a0c:	52 97       	sbiw	r26, 0x12	; 18
    5a0e:	81 50       	subi	r24, 0x01	; 1
    5a10:	52 96       	adiw	r26, 0x12	; 18
    5a12:	8c 93       	st	X, r24
    5a14:	52 97       	sbiw	r26, 0x12	; 18
    5a16:	90 e0       	ldi	r25, 0x00	; 0
    5a18:	9c 01       	movw	r18, r24
    5a1a:	2f 5f       	subi	r18, 0xFF	; 255
    5a1c:	3f 4f       	sbci	r19, 0xFF	; 255
    5a1e:	f9 01       	movw	r30, r18
    5a20:	ee 0f       	add	r30, r30
    5a22:	ff 1f       	adc	r31, r31
    5a24:	2e 0f       	add	r18, r30
    5a26:	3f 1f       	adc	r19, r31
    5a28:	f9 01       	movw	r30, r18
    5a2a:	e2 52       	subi	r30, 0x22	; 34
    5a2c:	fd 4f       	sbci	r31, 0xFD	; 253
    5a2e:	20 81       	ld	r18, Z
    5a30:	31 81       	ldd	r19, Z+1	; 0x01
    5a32:	2d 93       	st	X+, r18
    5a34:	3c 93       	st	X, r19
    5a36:	d9 01       	movw	r26, r18
    5a38:	a2 51       	subi	r26, 0x12	; 18
    5a3a:	bf 4f       	sbci	r27, 0xFF	; 255
    5a3c:	fc 01       	movw	r30, r24
    5a3e:	ee 0f       	add	r30, r30
    5a40:	ff 1f       	adc	r31, r31
    5a42:	8e 0f       	add	r24, r30
    5a44:	9f 1f       	adc	r25, r31
    5a46:	fc 01       	movw	r30, r24
    5a48:	e2 52       	subi	r30, 0x22	; 34
    5a4a:	fd 4f       	sbci	r31, 0xFD	; 253
    5a4c:	85 81       	ldd	r24, Z+5	; 0x05
    5a4e:	8c 93       	st	X, r24
    5a50:	08 95       	ret

00005a52 <get_target_levelstack>:
    5a52:	e0 91 e0 02 	lds	r30, 0x02E0	; 0x8002e0 <menu_operational+0x2>
    5a56:	f0 e0       	ldi	r31, 0x00	; 0
    5a58:	ee 0f       	add	r30, r30
    5a5a:	ff 1f       	adc	r31, r31
    5a5c:	e6 5a       	subi	r30, 0xA6	; 166
    5a5e:	fd 4f       	sbci	r31, 0xFD	; 253
    5a60:	01 90       	ld	r0, Z+
    5a62:	f0 81       	ld	r31, Z
    5a64:	e0 2d       	mov	r30, r0
    5a66:	80 81       	ld	r24, Z
    5a68:	08 95       	ret

00005a6a <get_target_option>:
    5a6a:	e0 91 e0 02 	lds	r30, 0x02E0	; 0x8002e0 <menu_operational+0x2>
    5a6e:	f0 e0       	ldi	r31, 0x00	; 0
    5a70:	ee 0f       	add	r30, r30
    5a72:	ff 1f       	adc	r31, r31
    5a74:	e6 5a       	subi	r30, 0xA6	; 166
    5a76:	fd 4f       	sbci	r31, 0xFD	; 253
    5a78:	01 90       	ld	r0, Z+
    5a7a:	f0 81       	ld	r31, Z
    5a7c:	e0 2d       	mov	r30, r0
    5a7e:	83 81       	ldd	r24, Z+3	; 0x03
    5a80:	08 95       	ret

00005a82 <__forward_from_root>:
    5a82:	cf 93       	push	r28
    5a84:	0e 94 29 2d 	call	0x5a52	; 0x5a52 <get_target_levelstack>
    5a88:	e0 91 de 02 	lds	r30, 0x02DE	; 0x8002de <menu_operational>
    5a8c:	f0 91 df 02 	lds	r31, 0x02DF	; 0x8002df <menu_operational+0x1>
    5a90:	90 81       	ld	r25, Z
    5a92:	c8 2f       	mov	r28, r24
    5a94:	c9 1b       	sub	r28, r25
    5a96:	e0 91 e0 02 	lds	r30, 0x02E0	; 0x8002e0 <menu_operational+0x2>
    5a9a:	f0 e0       	ldi	r31, 0x00	; 0
    5a9c:	ee 0f       	add	r30, r30
    5a9e:	ff 1f       	adc	r31, r31
    5aa0:	e6 5a       	subi	r30, 0xA6	; 166
    5aa2:	fd 4f       	sbci	r31, 0xFD	; 253
    5aa4:	01 90       	ld	r0, Z+
    5aa6:	f0 81       	ld	r31, Z
    5aa8:	e0 2d       	mov	r30, r0
    5aaa:	cc 23       	and	r28, r28
    5aac:	61 f0       	breq	.+24     	; 0x5ac6 <__forward_from_root+0x44>
    5aae:	84 e1       	ldi	r24, 0x14	; 20
    5ab0:	c8 9f       	mul	r28, r24
    5ab2:	e0 0d       	add	r30, r0
    5ab4:	f1 1d       	adc	r31, r1
    5ab6:	11 24       	eor	r1, r1
    5ab8:	63 81       	ldd	r22, Z+3	; 0x03
    5aba:	81 81       	ldd	r24, Z+1	; 0x01
    5abc:	92 81       	ldd	r25, Z+2	; 0x02
    5abe:	0e 94 e1 2c 	call	0x59c2	; 0x59c2 <push_menu>
    5ac2:	c1 50       	subi	r28, 0x01	; 1
    5ac4:	e8 cf       	rjmp	.-48     	; 0x5a96 <__forward_from_root+0x14>
    5ac6:	81 81       	ldd	r24, Z+1	; 0x01
    5ac8:	92 81       	ldd	r25, Z+2	; 0x02
    5aca:	90 93 df 02 	sts	0x02DF, r25	; 0x8002df <menu_operational+0x1>
    5ace:	80 93 de 02 	sts	0x02DE, r24	; 0x8002de <menu_operational>
    5ad2:	23 81       	ldd	r18, Z+3	; 0x03
    5ad4:	fc 01       	movw	r30, r24
    5ad6:	e2 51       	subi	r30, 0x12	; 18
    5ad8:	ff 4f       	sbci	r31, 0xFF	; 255
    5ada:	20 83       	st	Z, r18
    5adc:	cf 91       	pop	r28
    5ade:	08 95       	ret

00005ae0 <control_of_traffic>:
    5ae0:	cf 93       	push	r28
    5ae2:	df 93       	push	r29
    5ae4:	0e 94 29 2d 	call	0x5a52	; 0x5a52 <get_target_levelstack>
    5ae8:	c0 91 de 02 	lds	r28, 0x02DE	; 0x8002de <menu_operational>
    5aec:	d0 91 df 02 	lds	r29, 0x02DF	; 0x8002df <menu_operational+0x1>
    5af0:	98 81       	ld	r25, Y
    5af2:	98 17       	cp	r25, r24
    5af4:	20 f4       	brcc	.+8      	; 0x5afe <control_of_traffic+0x1e>
    5af6:	df 91       	pop	r29
    5af8:	cf 91       	pop	r28
    5afa:	0c 94 41 2d 	jmp	0x5a82	; 0x5a82 <__forward_from_root>
    5afe:	89 17       	cp	r24, r25
    5b00:	18 f4       	brcc	.+6      	; 0x5b08 <control_of_traffic+0x28>
    5b02:	0e 94 02 2d 	call	0x5a04	; 0x5a04 <pop_menu>
    5b06:	fd cf       	rjmp	.-6      	; 0x5b02 <control_of_traffic+0x22>
    5b08:	0e 94 35 2d 	call	0x5a6a	; 0x5a6a <get_target_option>
    5b0c:	c2 51       	subi	r28, 0x12	; 18
    5b0e:	df 4f       	sbci	r29, 0xFF	; 255
    5b10:	88 83       	st	Y, r24
    5b12:	df 91       	pop	r29
    5b14:	cf 91       	pop	r28
    5b16:	08 95       	ret

00005b18 <_draw_invert_rect>:
    5b18:	fc 01       	movw	r30, r24
    5b1a:	e2 51       	subi	r30, 0x12	; 18
    5b1c:	ff 4f       	sbci	r31, 0xFF	; 255
    5b1e:	20 81       	ld	r18, Z
    5b20:	02 2e       	mov	r0, r18
    5b22:	00 0c       	add	r0, r0
    5b24:	33 0b       	sbc	r19, r19
    5b26:	66 e1       	ldi	r22, 0x16	; 22
    5b28:	62 9f       	mul	r22, r18
    5b2a:	f0 01       	movw	r30, r0
    5b2c:	63 9f       	mul	r22, r19
    5b2e:	f0 0d       	add	r31, r0
    5b30:	11 24       	eor	r1, r1
    5b32:	e8 0f       	add	r30, r24
    5b34:	f9 1f       	adc	r31, r25
    5b36:	2f 5f       	subi	r18, 0xFF	; 255
    5b38:	3f 4f       	sbci	r19, 0xFF	; 255
    5b3a:	62 9f       	mul	r22, r18
    5b3c:	a0 01       	movw	r20, r0
    5b3e:	63 9f       	mul	r22, r19
    5b40:	50 0d       	add	r21, r0
    5b42:	11 24       	eor	r1, r1
    5b44:	dc 01       	movw	r26, r24
    5b46:	a4 0f       	add	r26, r20
    5b48:	b5 1f       	adc	r27, r21
    5b4a:	20 8d       	ldd	r18, Z+24	; 0x18
    5b4c:	47 89       	ldd	r20, Z+23	; 0x17
    5b4e:	6c 91       	ld	r22, X
    5b50:	85 89       	ldd	r24, Z+21	; 0x15
    5b52:	0c 94 57 29 	jmp	0x52ae	; 0x52ae <ks0108InvertRect>

00005b56 <_forward_option>:
    5b56:	cf 93       	push	r28
    5b58:	df 93       	push	r29
    5b5a:	ec 01       	movw	r28, r24
    5b5c:	0e 94 8c 2d 	call	0x5b18	; 0x5b18 <_draw_invert_rect>
    5b60:	fe 01       	movw	r30, r28
    5b62:	e2 51       	subi	r30, 0x12	; 18
    5b64:	ff 4f       	sbci	r31, 0xFF	; 255
    5b66:	80 81       	ld	r24, Z
    5b68:	8f 5f       	subi	r24, 0xFF	; 255
    5b6a:	80 83       	st	Z, r24
    5b6c:	de 01       	movw	r26, r28
    5b6e:	a0 51       	subi	r26, 0x10	; 16
    5b70:	bf 4f       	sbci	r27, 0xFF	; 255
    5b72:	9c 91       	ld	r25, X
    5b74:	98 17       	cp	r25, r24
    5b76:	1c f4       	brge	.+6      	; 0x5b7e <_forward_option+0x28>
    5b78:	11 97       	sbiw	r26, 0x01	; 1
    5b7a:	8c 91       	ld	r24, X
    5b7c:	80 83       	st	Z, r24
    5b7e:	ce 01       	movw	r24, r28
    5b80:	df 91       	pop	r29
    5b82:	cf 91       	pop	r28
    5b84:	0c 94 8c 2d 	jmp	0x5b18	; 0x5b18 <_draw_invert_rect>

00005b88 <_back_option>:
    5b88:	cf 93       	push	r28
    5b8a:	df 93       	push	r29
    5b8c:	ec 01       	movw	r28, r24
    5b8e:	0e 94 8c 2d 	call	0x5b18	; 0x5b18 <_draw_invert_rect>
    5b92:	fe 01       	movw	r30, r28
    5b94:	e2 51       	subi	r30, 0x12	; 18
    5b96:	ff 4f       	sbci	r31, 0xFF	; 255
    5b98:	80 81       	ld	r24, Z
    5b9a:	81 50       	subi	r24, 0x01	; 1
    5b9c:	80 83       	st	Z, r24
    5b9e:	de 01       	movw	r26, r28
    5ba0:	a1 51       	subi	r26, 0x11	; 17
    5ba2:	bf 4f       	sbci	r27, 0xFF	; 255
    5ba4:	9c 91       	ld	r25, X
    5ba6:	89 17       	cp	r24, r25
    5ba8:	1c f4       	brge	.+6      	; 0x5bb0 <_back_option+0x28>
    5baa:	11 96       	adiw	r26, 0x01	; 1
    5bac:	8c 91       	ld	r24, X
    5bae:	80 83       	st	Z, r24
    5bb0:	ce 01       	movw	r24, r28
    5bb2:	df 91       	pop	r29
    5bb4:	cf 91       	pop	r28
    5bb6:	0c 94 8c 2d 	jmp	0x5b18	; 0x5b18 <_draw_invert_rect>

00005bba <set_page_by_numoption>:
    5bba:	cf 93       	push	r28
    5bbc:	df 93       	push	r29
    5bbe:	ec 01       	movw	r28, r24
    5bc0:	dc 01       	movw	r26, r24
    5bc2:	a3 51       	subi	r26, 0x13	; 19
    5bc4:	bf 4f       	sbci	r27, 0xFF	; 255
    5bc6:	1c 92       	st	X, r1
    5bc8:	fc 01       	movw	r30, r24
    5bca:	e2 51       	subi	r30, 0x12	; 18
    5bcc:	ff 4f       	sbci	r31, 0xFF	; 255
    5bce:	60 81       	ld	r22, Z
    5bd0:	06 2e       	mov	r0, r22
    5bd2:	00 0c       	add	r0, r0
    5bd4:	77 0b       	sbc	r23, r23
    5bd6:	40 e0       	ldi	r20, 0x00	; 0
    5bd8:	9c 91       	ld	r25, X
    5bda:	29 2f       	mov	r18, r25
    5bdc:	09 2e       	mov	r0, r25
    5bde:	00 0c       	add	r0, r0
    5be0:	33 0b       	sbc	r19, r19
    5be2:	f9 01       	movw	r30, r18
    5be4:	ee 0f       	add	r30, r30
    5be6:	ff 1f       	adc	r31, r31
    5be8:	e2 0f       	add	r30, r18
    5bea:	f3 1f       	adc	r31, r19
    5bec:	ec 0f       	add	r30, r28
    5bee:	fd 1f       	adc	r31, r29
    5bf0:	ef 51       	subi	r30, 0x1F	; 31
    5bf2:	ff 4f       	sbci	r31, 0xFF	; 255
    5bf4:	80 81       	ld	r24, Z
    5bf6:	48 0f       	add	r20, r24
    5bf8:	24 2f       	mov	r18, r20
    5bfa:	30 e0       	ldi	r19, 0x00	; 0
    5bfc:	62 17       	cp	r22, r18
    5bfe:	73 07       	cpc	r23, r19
    5c00:	1c f0       	brlt	.+6      	; 0x5c08 <set_page_by_numoption+0x4e>
    5c02:	9f 5f       	subi	r25, 0xFF	; 255
    5c04:	9c 93       	st	X, r25
    5c06:	e8 cf       	rjmp	.-48     	; 0x5bd8 <set_page_by_numoption+0x1e>
    5c08:	df 91       	pop	r29
    5c0a:	cf 91       	pop	r28
    5c0c:	08 95       	ret

00005c0e <set_limits_by_current_page>:
    5c0e:	cf 93       	push	r28
    5c10:	df 93       	push	r29
    5c12:	ec 01       	movw	r28, r24
    5c14:	c1 51       	subi	r28, 0x11	; 17
    5c16:	df 4f       	sbci	r29, 0xFF	; 255
    5c18:	18 82       	st	Y, r1
    5c1a:	fc 01       	movw	r30, r24
    5c1c:	e0 51       	subi	r30, 0x10	; 16
    5c1e:	ff 4f       	sbci	r31, 0xFF	; 255
    5c20:	10 82       	st	Z, r1
    5c22:	dc 01       	movw	r26, r24
    5c24:	a3 51       	subi	r26, 0x13	; 19
    5c26:	bf 4f       	sbci	r27, 0xFF	; 255
    5c28:	7c 91       	ld	r23, X
    5c2a:	27 2f       	mov	r18, r23
    5c2c:	07 2e       	mov	r0, r23
    5c2e:	00 0c       	add	r0, r0
    5c30:	33 0b       	sbc	r19, r19
    5c32:	60 e0       	ldi	r22, 0x00	; 0
    5c34:	46 2f       	mov	r20, r22
    5c36:	50 e0       	ldi	r21, 0x00	; 0
    5c38:	24 17       	cp	r18, r20
    5c3a:	35 07       	cpc	r19, r21
    5c3c:	7c f0       	brlt	.+30     	; 0x5c5c <set_limits_by_current_page+0x4e>
    5c3e:	da 01       	movw	r26, r20
    5c40:	aa 0f       	add	r26, r26
    5c42:	bb 1f       	adc	r27, r27
    5c44:	a4 0f       	add	r26, r20
    5c46:	b5 1f       	adc	r27, r21
    5c48:	a8 0f       	add	r26, r24
    5c4a:	b9 1f       	adc	r27, r25
    5c4c:	af 51       	subi	r26, 0x1F	; 31
    5c4e:	bf 4f       	sbci	r27, 0xFF	; 255
    5c50:	50 81       	ld	r21, Z
    5c52:	4c 91       	ld	r20, X
    5c54:	45 0f       	add	r20, r21
    5c56:	40 83       	st	Z, r20
    5c58:	6f 5f       	subi	r22, 0xFF	; 255
    5c5a:	ec cf       	rjmp	.-40     	; 0x5c34 <set_limits_by_current_page+0x26>
    5c5c:	40 81       	ld	r20, Z
    5c5e:	41 50       	subi	r20, 0x01	; 1
    5c60:	40 83       	st	Z, r20
    5c62:	17 16       	cp	r1, r23
    5c64:	74 f4       	brge	.+28     	; 0x5c82 <set_limits_by_current_page+0x74>
    5c66:	21 50       	subi	r18, 0x01	; 1
    5c68:	31 09       	sbc	r19, r1
    5c6a:	f9 01       	movw	r30, r18
    5c6c:	ee 0f       	add	r30, r30
    5c6e:	ff 1f       	adc	r31, r31
    5c70:	2e 0f       	add	r18, r30
    5c72:	3f 1f       	adc	r19, r31
    5c74:	fc 01       	movw	r30, r24
    5c76:	e2 0f       	add	r30, r18
    5c78:	f3 1f       	adc	r31, r19
    5c7a:	ef 51       	subi	r30, 0x1F	; 31
    5c7c:	ff 4f       	sbci	r31, 0xFF	; 255
    5c7e:	80 81       	ld	r24, Z
    5c80:	88 83       	st	Y, r24
    5c82:	df 91       	pop	r29
    5c84:	cf 91       	pop	r28
    5c86:	08 95       	ret

00005c88 <_show_options_by_numpage>:
    5c88:	9f 92       	push	r9
    5c8a:	af 92       	push	r10
    5c8c:	bf 92       	push	r11
    5c8e:	cf 92       	push	r12
    5c90:	df 92       	push	r13
    5c92:	ef 92       	push	r14
    5c94:	ff 92       	push	r15
    5c96:	0f 93       	push	r16
    5c98:	1f 93       	push	r17
    5c9a:	cf 93       	push	r28
    5c9c:	df 93       	push	r29
    5c9e:	ec 01       	movw	r28, r24
    5ca0:	0e 94 dd 2d 	call	0x5bba	; 0x5bba <set_page_by_numoption>
    5ca4:	ce 01       	movw	r24, r28
    5ca6:	0e 94 07 2e 	call	0x5c0e	; 0x5c0e <set_limits_by_current_page>
    5caa:	4f ef       	ldi	r20, 0xFF	; 255
    5cac:	64 e4       	ldi	r22, 0x44	; 68
    5cae:	75 e2       	ldi	r23, 0x25	; 37
    5cb0:	8b 81       	ldd	r24, Y+3	; 0x03
    5cb2:	9c 81       	ldd	r25, Y+4	; 0x04
    5cb4:	0e 94 47 25 	call	0x4a8e	; 0x4a8e <ks0108SelectFont>
    5cb8:	fe 01       	movw	r30, r28
    5cba:	e1 51       	subi	r30, 0x11	; 17
    5cbc:	ff 4f       	sbci	r31, 0xFF	; 255
    5cbe:	10 81       	ld	r17, Z
    5cc0:	5e 01       	movw	r10, r28
    5cc2:	80 ef       	ldi	r24, 0xF0	; 240
    5cc4:	a8 0e       	add	r10, r24
    5cc6:	b1 1c       	adc	r11, r1
    5cc8:	86 e1       	ldi	r24, 0x16	; 22
    5cca:	98 2e       	mov	r9, r24
    5ccc:	21 2f       	mov	r18, r17
    5cce:	30 e0       	ldi	r19, 0x00	; 0
    5cd0:	f5 01       	movw	r30, r10
    5cd2:	80 81       	ld	r24, Z
    5cd4:	08 2e       	mov	r0, r24
    5cd6:	00 0c       	add	r0, r0
    5cd8:	99 0b       	sbc	r25, r25
    5cda:	82 17       	cp	r24, r18
    5cdc:	93 07       	cpc	r25, r19
    5cde:	ec f0       	brlt	.+58     	; 0x5d1a <_show_options_by_numpage+0x92>
    5ce0:	92 9e       	mul	r9, r18
    5ce2:	60 01       	movw	r12, r0
    5ce4:	93 9e       	mul	r9, r19
    5ce6:	d0 0c       	add	r13, r0
    5ce8:	11 24       	eor	r1, r1
    5cea:	7e 01       	movw	r14, r28
    5cec:	ec 0c       	add	r14, r12
    5cee:	fd 1c       	adc	r15, r13
    5cf0:	0f ef       	ldi	r16, 0xFF	; 255
    5cf2:	f7 01       	movw	r30, r14
    5cf4:	24 89       	ldd	r18, Z+20	; 0x14
    5cf6:	43 89       	ldd	r20, Z+19	; 0x13
    5cf8:	62 89       	ldd	r22, Z+18	; 0x12
    5cfa:	81 89       	ldd	r24, Z+17	; 0x11
    5cfc:	0e 94 f4 28 	call	0x51e8	; 0x51e8 <ks0108DrawRect>
    5d00:	f7 01       	movw	r30, r14
    5d02:	66 81       	ldd	r22, Z+6	; 0x06
    5d04:	85 81       	ldd	r24, Z+5	; 0x05
    5d06:	0e 94 da 25 	call	0x4bb4	; 0x4bb4 <ks0108GotoXY>
    5d0a:	c6 01       	movw	r24, r12
    5d0c:	07 96       	adiw	r24, 0x07	; 7
    5d0e:	8c 0f       	add	r24, r28
    5d10:	9d 1f       	adc	r25, r29
    5d12:	0e 94 e9 2b 	call	0x57d2	; 0x57d2 <ks0108Puts>
    5d16:	1f 5f       	subi	r17, 0xFF	; 255
    5d18:	d9 cf       	rjmp	.-78     	; 0x5ccc <_show_options_by_numpage+0x44>
    5d1a:	ce 01       	movw	r24, r28
    5d1c:	df 91       	pop	r29
    5d1e:	cf 91       	pop	r28
    5d20:	1f 91       	pop	r17
    5d22:	0f 91       	pop	r16
    5d24:	ff 90       	pop	r15
    5d26:	ef 90       	pop	r14
    5d28:	df 90       	pop	r13
    5d2a:	cf 90       	pop	r12
    5d2c:	bf 90       	pop	r11
    5d2e:	af 90       	pop	r10
    5d30:	9f 90       	pop	r9
    5d32:	0c 94 8c 2d 	jmp	0x5b18	; 0x5b18 <_draw_invert_rect>

00005d36 <menu_main_config0>:
    5d36:	0f 93       	push	r16
    5d38:	cf 93       	push	r28
    5d3a:	df 93       	push	r29
    5d3c:	ce ed       	ldi	r28, 0xDE	; 222
    5d3e:	d2 e0       	ldi	r29, 0x02	; 2
    5d40:	64 e0       	ldi	r22, 0x04	; 4
    5d42:	88 81       	ld	r24, Y
    5d44:	99 81       	ldd	r25, Y+1	; 0x01
    5d46:	0e 94 e1 2c 	call	0x59c2	; 0x59c2 <push_menu>
    5d4a:	81 ef       	ldi	r24, 0xF1	; 241
    5d4c:	92 e0       	ldi	r25, 0x02	; 2
    5d4e:	99 83       	std	Y+1, r25	; 0x01
    5d50:	88 83       	st	Y, r24
    5d52:	80 91 d4 03 	lds	r24, 0x03D4	; 0x8003d4 <menu_config+0xe3>
    5d56:	80 93 df 03 	sts	0x03DF, r24	; 0x8003df <menu_config+0xee>
    5d5a:	00 e0       	ldi	r16, 0x00	; 0
    5d5c:	2e e2       	ldi	r18, 0x2E	; 46
    5d5e:	4c e7       	ldi	r20, 0x7C	; 124
    5d60:	60 e1       	ldi	r22, 0x10	; 16
    5d62:	82 e4       	ldi	r24, 0x42	; 66
    5d64:	0e 94 61 28 	call	0x50c2	; 0x50c2 <ks0108FillRect>
    5d68:	88 81       	ld	r24, Y
    5d6a:	99 81       	ldd	r25, Y+1	; 0x01
    5d6c:	0e 94 44 2e 	call	0x5c88	; 0x5c88 <_show_options_by_numpage>
    5d70:	83 e0       	ldi	r24, 0x03	; 3
    5d72:	80 93 10 0a 	sts	0x0A10, r24	; 0x800a10 <shell>
    5d76:	df 91       	pop	r29
    5d78:	cf 91       	pop	r28
    5d7a:	0f 91       	pop	r16
    5d7c:	08 95       	ret

00005d7e <menu_config_back0>:
    5d7e:	0f 93       	push	r16
    5d80:	0e 94 02 2d 	call	0x5a04	; 0x5a04 <pop_menu>
    5d84:	00 e0       	ldi	r16, 0x00	; 0
    5d86:	2e e2       	ldi	r18, 0x2E	; 46
    5d88:	4c e7       	ldi	r20, 0x7C	; 124
    5d8a:	60 e1       	ldi	r22, 0x10	; 16
    5d8c:	82 e4       	ldi	r24, 0x42	; 66
    5d8e:	0e 94 61 28 	call	0x50c2	; 0x50c2 <ks0108FillRect>
    5d92:	80 91 de 02 	lds	r24, 0x02DE	; 0x8002de <menu_operational>
    5d96:	90 91 df 02 	lds	r25, 0x02DF	; 0x8002df <menu_operational+0x1>
    5d9a:	0e 94 44 2e 	call	0x5c88	; 0x5c88 <_show_options_by_numpage>
    5d9e:	83 e0       	ldi	r24, 0x03	; 3
    5da0:	80 93 10 0a 	sts	0x0A10, r24	; 0x800a10 <shell>
    5da4:	0f 91       	pop	r16
    5da6:	08 95       	ret

00005da8 <_next_page>:
    5da8:	fc 01       	movw	r30, r24
    5daa:	e3 51       	subi	r30, 0x13	; 19
    5dac:	ff 4f       	sbci	r31, 0xFF	; 255
    5dae:	20 81       	ld	r18, Z
    5db0:	2f 5f       	subi	r18, 0xFF	; 255
    5db2:	20 83       	st	Z, r18
    5db4:	dc 01       	movw	r26, r24
    5db6:	a2 51       	subi	r26, 0x12	; 18
    5db8:	bf 4f       	sbci	r27, 0xFF	; 255
    5dba:	02 2e       	mov	r0, r18
    5dbc:	00 0c       	add	r0, r0
    5dbe:	33 0b       	sbc	r19, r19
    5dc0:	f9 01       	movw	r30, r18
    5dc2:	ee 0f       	add	r30, r30
    5dc4:	ff 1f       	adc	r31, r31
    5dc6:	e2 0f       	add	r30, r18
    5dc8:	f3 1f       	adc	r31, r19
    5dca:	e8 0f       	add	r30, r24
    5dcc:	f9 1f       	adc	r31, r25
    5dce:	ed 51       	subi	r30, 0x1D	; 29
    5dd0:	ff 4f       	sbci	r31, 0xFF	; 255
    5dd2:	20 81       	ld	r18, Z
    5dd4:	2c 93       	st	X, r18
    5dd6:	0c 94 44 2e 	jmp	0x5c88	; 0x5c88 <_show_options_by_numpage>

00005dda <next_page>:
    5dda:	0f 93       	push	r16
    5ddc:	00 e0       	ldi	r16, 0x00	; 0
    5dde:	2e e2       	ldi	r18, 0x2E	; 46
    5de0:	4c e7       	ldi	r20, 0x7C	; 124
    5de2:	60 e1       	ldi	r22, 0x10	; 16
    5de4:	82 e4       	ldi	r24, 0x42	; 66
    5de6:	0e 94 61 28 	call	0x50c2	; 0x50c2 <ks0108FillRect>
    5dea:	80 91 de 02 	lds	r24, 0x02DE	; 0x8002de <menu_operational>
    5dee:	90 91 df 02 	lds	r25, 0x02DF	; 0x8002df <menu_operational+0x1>
    5df2:	0e 94 d4 2e 	call	0x5da8	; 0x5da8 <_next_page>
    5df6:	83 e0       	ldi	r24, 0x03	; 3
    5df8:	80 93 10 0a 	sts	0x0A10, r24	; 0x800a10 <shell>
    5dfc:	0f 91       	pop	r16
    5dfe:	08 95       	ret

00005e00 <_back_page>:
    5e00:	cf 93       	push	r28
    5e02:	df 93       	push	r29
    5e04:	fc 01       	movw	r30, r24
    5e06:	e3 51       	subi	r30, 0x13	; 19
    5e08:	ff 4f       	sbci	r31, 0xFF	; 255
    5e0a:	40 81       	ld	r20, Z
    5e0c:	24 2f       	mov	r18, r20
    5e0e:	04 2e       	mov	r0, r20
    5e10:	00 0c       	add	r0, r0
    5e12:	33 0b       	sbc	r19, r19
    5e14:	b9 01       	movw	r22, r18
    5e16:	66 0f       	add	r22, r22
    5e18:	77 1f       	adc	r23, r23
    5e1a:	26 0f       	add	r18, r22
    5e1c:	37 1f       	adc	r19, r23
    5e1e:	28 0f       	add	r18, r24
    5e20:	39 1f       	adc	r19, r25
    5e22:	e9 01       	movw	r28, r18
    5e24:	cd 51       	subi	r28, 0x1D	; 29
    5e26:	df 4f       	sbci	r29, 0xFF	; 255
    5e28:	dc 01       	movw	r26, r24
    5e2a:	a2 51       	subi	r26, 0x12	; 18
    5e2c:	bf 4f       	sbci	r27, 0xFF	; 255
    5e2e:	5c 91       	ld	r21, X
    5e30:	58 83       	st	Y, r21
    5e32:	21 97       	sbiw	r28, 0x01	; 1
    5e34:	28 81       	ld	r18, Y
    5e36:	2c 93       	st	X, r18
    5e38:	41 50       	subi	r20, 0x01	; 1
    5e3a:	40 83       	st	Z, r20
    5e3c:	df 91       	pop	r29
    5e3e:	cf 91       	pop	r28
    5e40:	0c 94 44 2e 	jmp	0x5c88	; 0x5c88 <_show_options_by_numpage>

00005e44 <back_page>:
    5e44:	0f 93       	push	r16
    5e46:	00 e0       	ldi	r16, 0x00	; 0
    5e48:	2e e2       	ldi	r18, 0x2E	; 46
    5e4a:	4c e7       	ldi	r20, 0x7C	; 124
    5e4c:	60 e1       	ldi	r22, 0x10	; 16
    5e4e:	82 e4       	ldi	r24, 0x42	; 66
    5e50:	0e 94 61 28 	call	0x50c2	; 0x50c2 <ks0108FillRect>
    5e54:	80 91 de 02 	lds	r24, 0x02DE	; 0x8002de <menu_operational>
    5e58:	90 91 df 02 	lds	r25, 0x02DF	; 0x8002df <menu_operational+0x1>
    5e5c:	0e 94 00 2f 	call	0x5e00	; 0x5e00 <_back_page>
    5e60:	83 e0       	ldi	r24, 0x03	; 3
    5e62:	80 93 10 0a 	sts	0x0A10, r24	; 0x800a10 <shell>
    5e66:	0f 91       	pop	r16
    5e68:	08 95       	ret

00005e6a <key4_1fmode1>:
    5e6a:	60 e0       	ldi	r22, 0x00	; 0
    5e6c:	80 e0       	ldi	r24, 0x00	; 0
    5e6e:	0e 94 a1 3f 	call	0x7f42	; 0x7f42 <playsound>
    5e72:	e0 91 73 06 	lds	r30, 0x0673	; 0x800673 <dialogbox_nb+0xc>
    5e76:	f0 91 74 06 	lds	r31, 0x0674	; 0x800674 <dialogbox_nb+0xd>
    5e7a:	09 94       	ijmp

00005e7c <key2_1fmode1>:
    5e7c:	e0 91 6f 06 	lds	r30, 0x066F	; 0x80066f <dialogbox_nb+0x8>
    5e80:	f0 91 70 06 	lds	r31, 0x0670	; 0x800670 <dialogbox_nb+0x9>
    5e84:	09 95       	icall
    5e86:	60 e0       	ldi	r22, 0x00	; 0
    5e88:	80 e0       	ldi	r24, 0x00	; 0
    5e8a:	0c 94 a1 3f 	jmp	0x7f42	; 0x7f42 <playsound>

00005e8e <key1_1fmode1>:
    5e8e:	e0 91 6d 06 	lds	r30, 0x066D	; 0x80066d <dialogbox_nb+0x6>
    5e92:	f0 91 6e 06 	lds	r31, 0x066E	; 0x80066e <dialogbox_nb+0x7>
    5e96:	09 95       	icall
    5e98:	60 e0       	ldi	r22, 0x00	; 0
    5e9a:	80 e0       	ldi	r24, 0x00	; 0
    5e9c:	0c 94 a1 3f 	jmp	0x7f42	; 0x7f42 <playsound>

00005ea0 <key3_1fmode0_aft>:
    5ea0:	80 91 ea 07 	lds	r24, 0x07EA	; 0x8007ea <thisps>
    5ea4:	94 e2       	ldi	r25, 0x24	; 36
    5ea6:	89 02       	muls	r24, r25
    5ea8:	90 01       	movw	r18, r0
    5eaa:	11 24       	eor	r1, r1
    5eac:	f9 01       	movw	r30, r18
    5eae:	e5 58       	subi	r30, 0x85	; 133
    5eb0:	f5 4f       	sbci	r31, 0xF5	; 245
    5eb2:	90 81       	ld	r25, Z
    5eb4:	91 60       	ori	r25, 0x01	; 1
    5eb6:	90 83       	st	Z, r25
    5eb8:	f9 01       	movw	r30, r18
    5eba:	ee 59       	subi	r30, 0x9E	; 158
    5ebc:	f5 4f       	sbci	r31, 0xF5	; 245
    5ebe:	90 a1       	ldd	r25, Z+32	; 0x20
    5ec0:	91 11       	cpse	r25, r1
    5ec2:	02 c0       	rjmp	.+4      	; 0x5ec8 <key3_1fmode0_aft+0x28>
    5ec4:	0c 94 a3 0f 	jmp	0x1f46	; 0x1f46 <directOnOff_mode1>
    5ec8:	0c 94 7a 10 	jmp	0x20f4	; 0x20f4 <directOnOff_mode2>

00005ecc <key3_1fmode0>:
    5ecc:	80 91 ea 07 	lds	r24, 0x07EA	; 0x8007ea <thisps>
    5ed0:	94 e2       	ldi	r25, 0x24	; 36
    5ed2:	89 02       	muls	r24, r25
    5ed4:	90 01       	movw	r18, r0
    5ed6:	11 24       	eor	r1, r1
    5ed8:	f9 01       	movw	r30, r18
    5eda:	e5 58       	subi	r30, 0x85	; 133
    5edc:	f5 4f       	sbci	r31, 0xF5	; 245
    5ede:	90 81       	ld	r25, Z
    5ee0:	91 60       	ori	r25, 0x01	; 1
    5ee2:	90 83       	st	Z, r25
    5ee4:	f9 01       	movw	r30, r18
    5ee6:	ee 59       	subi	r30, 0x9E	; 158
    5ee8:	f5 4f       	sbci	r31, 0xF5	; 245
    5eea:	90 a1       	ldd	r25, Z+32	; 0x20
    5eec:	91 11       	cpse	r25, r1
    5eee:	02 c0       	rjmp	.+4      	; 0x5ef4 <key3_1fmode0+0x28>
    5ef0:	0c 94 c7 0e 	jmp	0x1d8e	; 0x1d8e <RestoreOnOff_mode1>
    5ef4:	0c 94 24 10 	jmp	0x2048	; 0x2048 <RestoreOnOff_mode2>

00005ef8 <key2_1fmode0>:
    5ef8:	80 91 ea 07 	lds	r24, 0x07EA	; 0x8007ea <thisps>
    5efc:	94 e2       	ldi	r25, 0x24	; 36
    5efe:	89 02       	muls	r24, r25
    5f00:	f0 01       	movw	r30, r0
    5f02:	11 24       	eor	r1, r1
    5f04:	e5 58       	subi	r30, 0x85	; 133
    5f06:	f5 4f       	sbci	r31, 0xF5	; 245
    5f08:	90 81       	ld	r25, Z
    5f0a:	91 60       	ori	r25, 0x01	; 1
    5f0c:	90 83       	st	Z, r25
    5f0e:	0c 94 67 0e 	jmp	0x1cce	; 0x1cce <_PreEx_DimmingDown>

00005f12 <key1_1fmode0>:
    5f12:	80 91 ea 07 	lds	r24, 0x07EA	; 0x8007ea <thisps>
    5f16:	94 e2       	ldi	r25, 0x24	; 36
    5f18:	89 02       	muls	r24, r25
    5f1a:	f0 01       	movw	r30, r0
    5f1c:	11 24       	eor	r1, r1
    5f1e:	e5 58       	subi	r30, 0x85	; 133
    5f20:	f5 4f       	sbci	r31, 0xF5	; 245
    5f22:	90 81       	ld	r25, Z
    5f24:	91 60       	ori	r25, 0x01	; 1
    5f26:	90 83       	st	Z, r25
    5f28:	0c 94 2c 0e 	jmp	0x1c58	; 0x1c58 <_PreEx_DimmingUp>

00005f2c <showpropzone>:
    5f2c:	0f 93       	push	r16
    5f2e:	cf 93       	push	r28
    5f30:	c8 2f       	mov	r28, r24
    5f32:	84 e0       	ldi	r24, 0x04	; 4
    5f34:	c8 9f       	mul	r28, r24
    5f36:	f0 01       	movw	r30, r0
    5f38:	11 24       	eor	r1, r1
    5f3a:	ed 5e       	subi	r30, 0xED	; 237
    5f3c:	f7 4f       	sbci	r31, 0xF7	; 247
    5f3e:	80 81       	ld	r24, Z
    5f40:	81 60       	ori	r24, 0x01	; 1
    5f42:	80 83       	st	Z, r24
    5f44:	4f ef       	ldi	r20, 0xFF	; 255
    5f46:	64 e4       	ldi	r22, 0x44	; 68
    5f48:	75 e2       	ldi	r23, 0x25	; 37
    5f4a:	86 e0       	ldi	r24, 0x06	; 6
    5f4c:	90 e1       	ldi	r25, 0x10	; 16
    5f4e:	0e 94 47 25 	call	0x4a8e	; 0x4a8e <ks0108SelectFont>
    5f52:	60 e0       	ldi	r22, 0x00	; 0
    5f54:	8c 2f       	mov	r24, r28
    5f56:	0e 94 95 4a 	call	0x952a	; 0x952a <FindAndPrintNameOfZone>
    5f5a:	0f ef       	ldi	r16, 0xFF	; 255
    5f5c:	20 e0       	ldi	r18, 0x00	; 0
    5f5e:	4d e3       	ldi	r20, 0x3D	; 61
    5f60:	6e e2       	ldi	r22, 0x2E	; 46
    5f62:	81 e0       	ldi	r24, 0x01	; 1
    5f64:	0e 94 61 28 	call	0x50c2	; 0x50c2 <ks0108FillRect>
    5f68:	8c 2f       	mov	r24, r28
    5f6a:	0e 94 7c 0d 	call	0x1af8	; 0x1af8 <if_fadingactive_nextdc_else_dc>
    5f6e:	cf 91       	pop	r28
    5f70:	0f 91       	pop	r16
    5f72:	0c 94 c0 0d 	jmp	0x1b80	; 0x1b80 <dcporcentz>

00005f76 <key3_1fmode1>:
    5f76:	e0 91 71 06 	lds	r30, 0x0671	; 0x800671 <dialogbox_nb+0xa>
    5f7a:	f0 91 72 06 	lds	r31, 0x0672	; 0x800672 <dialogbox_nb+0xb>
    5f7e:	09 95       	icall
    5f80:	80 91 69 06 	lds	r24, 0x0669	; 0x800669 <dialogbox_nb+0x2>
    5f84:	81 11       	cpse	r24, r1
    5f86:	02 c0       	rjmp	.+4      	; 0x5f8c <key3_1fmode1+0x16>
    5f88:	61 e0       	ldi	r22, 0x01	; 1
    5f8a:	06 c0       	rjmp	.+12     	; 0x5f98 <key3_1fmode1+0x22>
    5f8c:	80 91 69 06 	lds	r24, 0x0669	; 0x800669 <dialogbox_nb+0x2>
    5f90:	81 30       	cpi	r24, 0x01	; 1
    5f92:	21 f4       	brne	.+8      	; 0x5f9c <key3_1fmode1+0x26>
    5f94:	60 e0       	ldi	r22, 0x00	; 0
    5f96:	80 e0       	ldi	r24, 0x00	; 0
    5f98:	0c 94 a1 3f 	jmp	0x7f42	; 0x7f42 <playsound>
    5f9c:	08 95       	ret

00005f9e <key3_1fmode1_aft>:
    5f9e:	0c 94 bb 2f 	jmp	0x5f76	; 0x5f76 <key3_1fmode1>

00005fa2 <selectzone>:
    5fa2:	0f 93       	push	r16
    5fa4:	cf 93       	push	r28
    5fa6:	90 91 ea 07 	lds	r25, 0x07EA	; 0x8007ea <thisps>
    5faa:	89 0f       	add	r24, r25
    5fac:	80 93 ea 07 	sts	0x07EA, r24	; 0x8007ea <thisps>
    5fb0:	87 ff       	sbrs	r24, 7
    5fb2:	07 c0       	rjmp	.+14     	; 0x5fc2 <selectzone+0x20>
    5fb4:	80 e0       	ldi	r24, 0x00	; 0
    5fb6:	0e 94 f6 11 	call	0x23ec	; 0x23ec <blink_captionof_barzone_STOP>
    5fba:	85 e0       	ldi	r24, 0x05	; 5
    5fbc:	80 93 ea 07 	sts	0x07EA, r24	; 0x8007ea <thisps>
    5fc0:	18 c0       	rjmp	.+48     	; 0x5ff2 <selectzone+0x50>
    5fc2:	86 30       	cpi	r24, 0x06	; 6
    5fc4:	34 f0       	brlt	.+12     	; 0x5fd2 <selectzone+0x30>
    5fc6:	85 e0       	ldi	r24, 0x05	; 5
    5fc8:	0e 94 f6 11 	call	0x23ec	; 0x23ec <blink_captionof_barzone_STOP>
    5fcc:	10 92 ea 07 	sts	0x07EA, r1	; 0x8007ea <thisps>
    5fd0:	10 c0       	rjmp	.+32     	; 0x5ff2 <selectzone+0x50>
    5fd2:	89 2f       	mov	r24, r25
    5fd4:	0e 94 f6 11 	call	0x23ec	; 0x23ec <blink_captionof_barzone_STOP>
    5fd8:	00 e0       	ldi	r16, 0x00	; 0
    5fda:	2d e3       	ldi	r18, 0x3D	; 61
    5fdc:	4d e3       	ldi	r20, 0x3D	; 61
    5fde:	61 e0       	ldi	r22, 0x01	; 1
    5fe0:	81 e0       	ldi	r24, 0x01	; 1
    5fe2:	0e 94 61 28 	call	0x50c2	; 0x50c2 <ks0108FillRect>
    5fe6:	80 91 ea 07 	lds	r24, 0x07EA	; 0x8007ea <thisps>
    5fea:	cf 91       	pop	r28
    5fec:	0f 91       	pop	r16
    5fee:	0c 94 96 2f 	jmp	0x5f2c	; 0x5f2c <showpropzone>
    5ff2:	c1 e0       	ldi	r28, 0x01	; 1
    5ff4:	c0 93 eb 07 	sts	0x07EB, r28	; 0x8007eb <thisps+0x1>
    5ff8:	61 e0       	ldi	r22, 0x01	; 1
    5ffa:	83 ed       	ldi	r24, 0xD3	; 211
    5ffc:	94 e0       	ldi	r25, 0x04	; 4
    5ffe:	0e 94 b8 24 	call	0x4970	; 0x4970 <change_operating_mode>
    6002:	c0 93 ec 07 	sts	0x07EC, r28	; 0x8007ec <thisps+0x2>
    6006:	10 92 ed 07 	sts	0x07ED, r1	; 0x8007ed <thisps+0x3>
    600a:	83 e0       	ldi	r24, 0x03	; 3
    600c:	80 93 69 08 	sts	0x0869, r24	; 0x800869 <kbhandler_app>
    6010:	cf 91       	pop	r28
    6012:	0f 91       	pop	r16
    6014:	08 95       	ret

00006016 <key1_2fmode0>:
    6016:	60 e0       	ldi	r22, 0x00	; 0
    6018:	80 e0       	ldi	r24, 0x00	; 0
    601a:	0e 94 a1 3f 	call	0x7f42	; 0x7f42 <playsound>
    601e:	8f ef       	ldi	r24, 0xFF	; 255
    6020:	0c 94 d1 2f 	jmp	0x5fa2	; 0x5fa2 <selectzone>

00006024 <key4_1fmode0>:
    6024:	60 e0       	ldi	r22, 0x00	; 0
    6026:	80 e0       	ldi	r24, 0x00	; 0
    6028:	0e 94 a1 3f 	call	0x7f42	; 0x7f42 <playsound>
    602c:	81 e0       	ldi	r24, 0x01	; 1
    602e:	0c 94 d1 2f 	jmp	0x5fa2	; 0x5fa2 <selectzone>

00006032 <key3_2fmode0>:
    6032:	cf 93       	push	r28
    6034:	df 93       	push	r29
    6036:	61 e0       	ldi	r22, 0x01	; 1
    6038:	80 e0       	ldi	r24, 0x00	; 0
    603a:	0e 94 a1 3f 	call	0x7f42	; 0x7f42 <playsound>
    603e:	ca ee       	ldi	r28, 0xEA	; 234
    6040:	d7 e0       	ldi	r29, 0x07	; 7
    6042:	88 81       	ld	r24, Y
    6044:	0e 94 f6 11 	call	0x23ec	; 0x23ec <blink_captionof_barzone_STOP>
    6048:	82 e0       	ldi	r24, 0x02	; 2
    604a:	80 93 10 0a 	sts	0x0A10, r24	; 0x800a10 <shell>
    604e:	1a 82       	std	Y+2, r1	; 0x02
    6050:	1b 82       	std	Y+3, r1	; 0x03
    6052:	83 e0       	ldi	r24, 0x03	; 3
    6054:	80 93 69 08 	sts	0x0869, r24	; 0x800869 <kbhandler_app>
    6058:	df 91       	pop	r29
    605a:	cf 91       	pop	r28
    605c:	08 95       	ret

0000605e <key2_2fmode0>:
    605e:	cf 93       	push	r28
    6060:	df 93       	push	r29
    6062:	ca ee       	ldi	r28, 0xEA	; 234
    6064:	d7 e0       	ldi	r29, 0x07	; 7
    6066:	88 81       	ld	r24, Y
    6068:	0e 94 f6 11 	call	0x23ec	; 0x23ec <blink_captionof_barzone_STOP>
    606c:	80 91 06 08 	lds	r24, 0x0806	; 0x800806 <crossover_scene_zone>
    6070:	81 60       	ori	r24, 0x01	; 1
    6072:	80 93 06 08 	sts	0x0806, r24	; 0x800806 <crossover_scene_zone>
    6076:	10 92 e0 02 	sts	0x02E0, r1	; 0x8002e0 <menu_operational+0x2>
    607a:	81 e0       	ldi	r24, 0x01	; 1
    607c:	80 93 10 0a 	sts	0x0A10, r24	; 0x800a10 <shell>
    6080:	1a 82       	std	Y+2, r1	; 0x02
    6082:	1b 82       	std	Y+3, r1	; 0x03
    6084:	83 e0       	ldi	r24, 0x03	; 3
    6086:	80 93 69 08 	sts	0x0869, r24	; 0x800869 <kbhandler_app>
    608a:	61 e0       	ldi	r22, 0x01	; 1
    608c:	80 e0       	ldi	r24, 0x00	; 0
    608e:	df 91       	pop	r29
    6090:	cf 91       	pop	r28
    6092:	0c 94 a1 3f 	jmp	0x7f42	; 0x7f42 <playsound>

00006096 <zone_handler>:
    6096:	0f 93       	push	r16
    6098:	1f 93       	push	r17
    609a:	cf 93       	push	r28
    609c:	df 93       	push	r29
    609e:	80 91 ec 07 	lds	r24, 0x07EC	; 0x8007ec <thisps+0x2>
    60a2:	81 11       	cpse	r24, r1
    60a4:	59 c0       	rjmp	.+178    	; 0x6158 <zone_handler+0xc2>
    60a6:	80 91 ed 07 	lds	r24, 0x07ED	; 0x8007ed <thisps+0x3>
    60aa:	81 11       	cpse	r24, r1
    60ac:	50 c0       	rjmp	.+160    	; 0x614e <zone_handler+0xb8>
    60ae:	81 e0       	ldi	r24, 0x01	; 1
    60b0:	80 93 ed 07 	sts	0x07ED, r24	; 0x8007ed <thisps+0x3>
    60b4:	80 91 37 08 	lds	r24, 0x0837	; 0x800837 <ps_fading_inbk>
    60b8:	84 60       	ori	r24, 0x04	; 4
    60ba:	80 93 37 08 	sts	0x0837, r24	; 0x800837 <ps_fading_inbk>
    60be:	80 91 06 08 	lds	r24, 0x0806	; 0x800806 <crossover_scene_zone>
    60c2:	81 fd       	sbrc	r24, 1
    60c4:	2f c0       	rjmp	.+94     	; 0x6124 <zone_handler+0x8e>
    60c6:	00 e0       	ldi	r16, 0x00	; 0
    60c8:	2f e3       	ldi	r18, 0x3F	; 63
    60ca:	4f eb       	ldi	r20, 0xBF	; 191
    60cc:	60 e0       	ldi	r22, 0x00	; 0
    60ce:	80 e0       	ldi	r24, 0x00	; 0
    60d0:	0e 94 61 28 	call	0x50c2	; 0x50c2 <ks0108FillRect>
    60d4:	0f ef       	ldi	r16, 0xFF	; 255
    60d6:	2f e3       	ldi	r18, 0x3F	; 63
    60d8:	4f e3       	ldi	r20, 0x3F	; 63
    60da:	60 e0       	ldi	r22, 0x00	; 0
    60dc:	80 e0       	ldi	r24, 0x00	; 0
    60de:	0e 94 f4 28 	call	0x51e8	; 0x51e8 <ks0108DrawRect>
    60e2:	2f e3       	ldi	r18, 0x3F	; 63
    60e4:	4e e7       	ldi	r20, 0x7E	; 126
    60e6:	60 e0       	ldi	r22, 0x00	; 0
    60e8:	81 e4       	ldi	r24, 0x41	; 65
    60ea:	0e 94 f4 28 	call	0x51e8	; 0x51e8 <ks0108DrawRect>
    60ee:	0e 94 a7 1f 	call	0x3f4e	; 0x3f4e <_write_display_threshold_allzone>
    60f2:	0e 94 fc 1c 	call	0x39f8	; 0x39f8 <CaptionOfAllZones>
    60f6:	0e 94 c8 1c 	call	0x3990	; 0x3990 <DrawBarsVertOfAllZones>
    60fa:	c0 e0       	ldi	r28, 0x00	; 0
    60fc:	d0 e0       	ldi	r29, 0x00	; 0
    60fe:	14 e2       	ldi	r17, 0x24	; 36
    6100:	1c 9f       	mul	r17, r28
    6102:	f0 01       	movw	r30, r0
    6104:	1d 9f       	mul	r17, r29
    6106:	f0 0d       	add	r31, r0
    6108:	11 24       	eor	r1, r1
    610a:	ee 59       	subi	r30, 0x9E	; 158
    610c:	f5 4f       	sbci	r31, 0xF5	; 245
    610e:	60 85       	ldd	r22, Z+8	; 0x08
    6110:	71 85       	ldd	r23, Z+9	; 0x09
    6112:	4f ef       	ldi	r20, 0xFF	; 255
    6114:	8c 2f       	mov	r24, r28
    6116:	0e 94 57 1f 	call	0x3eae	; 0x3eae <direct_fillclear_barlevel>
    611a:	21 96       	adiw	r28, 0x01	; 1
    611c:	c6 30       	cpi	r28, 0x06	; 6
    611e:	d1 05       	cpc	r29, r1
    6120:	79 f7       	brne	.-34     	; 0x6100 <zone_handler+0x6a>
    6122:	03 c0       	rjmp	.+6      	; 0x612a <zone_handler+0x94>
    6124:	8d 7f       	andi	r24, 0xFD	; 253
    6126:	80 93 06 08 	sts	0x0806, r24	; 0x800806 <crossover_scene_zone>
    612a:	00 e0       	ldi	r16, 0x00	; 0
    612c:	2d e3       	ldi	r18, 0x3D	; 61
    612e:	4d e3       	ldi	r20, 0x3D	; 61
    6130:	61 e0       	ldi	r22, 0x01	; 1
    6132:	81 e0       	ldi	r24, 0x01	; 1
    6134:	0e 94 61 28 	call	0x50c2	; 0x50c2 <ks0108FillRect>
    6138:	80 91 ea 07 	lds	r24, 0x07EA	; 0x8007ea <thisps>
    613c:	0e 94 96 2f 	call	0x5f2c	; 0x5f2c <showpropzone>
    6140:	10 92 eb 07 	sts	0x07EB, r1	; 0x8007eb <thisps+0x1>
    6144:	60 e0       	ldi	r22, 0x00	; 0
    6146:	83 ed       	ldi	r24, 0xD3	; 211
    6148:	94 e0       	ldi	r25, 0x04	; 4
    614a:	0e 94 b8 24 	call	0x4970	; 0x4970 <change_operating_mode>
    614e:	8f ef       	ldi	r24, 0xFF	; 255
    6150:	80 93 ec 07 	sts	0x07EC, r24	; 0x8007ec <thisps+0x2>
    6154:	10 92 ed 07 	sts	0x07ED, r1	; 0x8007ed <thisps+0x3>
    6158:	80 91 ec 07 	lds	r24, 0x07EC	; 0x8007ec <thisps+0x2>
    615c:	81 30       	cpi	r24, 0x01	; 1
    615e:	09 f0       	breq	.+2      	; 0x6162 <zone_handler+0xcc>
    6160:	48 c0       	rjmp	.+144    	; 0x61f2 <zone_handler+0x15c>
    6162:	90 91 ed 07 	lds	r25, 0x07ED	; 0x8007ed <thisps+0x3>
    6166:	91 11       	cpse	r25, r1
    6168:	1c c0       	rjmp	.+56     	; 0x61a2 <zone_handler+0x10c>
    616a:	80 93 ed 07 	sts	0x07ED, r24	; 0x8007ed <thisps+0x3>
    616e:	4f e1       	ldi	r20, 0x1F	; 31
    6170:	6f e1       	ldi	r22, 0x1F	; 31
    6172:	8f e1       	ldi	r24, 0x1F	; 31
    6174:	0e 94 02 1c 	call	0x3804	; 0x3804 <ClearFromCenter_GrowingSymmetric>
    6178:	63 e1       	ldi	r22, 0x13	; 19
    617a:	86 e0       	ldi	r24, 0x06	; 6
    617c:	0e 94 da 25 	call	0x4bb4	; 0x4bb4 <ks0108GotoXY>
    6180:	85 e8       	ldi	r24, 0x85	; 133
    6182:	94 e1       	ldi	r25, 0x14	; 20
    6184:	0e 94 11 2c 	call	0x5822	; 0x5822 <ks0108Puts_P>
    6188:	6f e1       	ldi	r22, 0x1F	; 31
    618a:	8a e0       	ldi	r24, 0x0A	; 10
    618c:	0e 94 da 25 	call	0x4bb4	; 0x4bb4 <ks0108GotoXY>
    6190:	8b e7       	ldi	r24, 0x7B	; 123
    6192:	94 e1       	ldi	r25, 0x14	; 20
    6194:	0e 94 11 2c 	call	0x5822	; 0x5822 <ks0108Puts_P>
    6198:	40 e0       	ldi	r20, 0x00	; 0
    619a:	62 e0       	ldi	r22, 0x02	; 2
    619c:	82 e0       	ldi	r24, 0x02	; 2
    619e:	0e 94 e6 3d 	call	0x7bcc	; 0x7bcc <dialogbox_sino>
    61a2:	80 91 ed 07 	lds	r24, 0x07ED	; 0x8007ed <thisps+0x3>
    61a6:	81 30       	cpi	r24, 0x01	; 1
    61a8:	21 f5       	brne	.+72     	; 0x61f2 <zone_handler+0x15c>
    61aa:	80 91 6a 06 	lds	r24, 0x066A	; 0x80066a <dialogbox_nb+0x3>
    61ae:	87 fd       	sbrc	r24, 7
    61b0:	20 c0       	rjmp	.+64     	; 0x61f2 <zone_handler+0x15c>
    61b2:	80 91 6a 06 	lds	r24, 0x066A	; 0x80066a <dialogbox_nb+0x3>
    61b6:	81 30       	cpi	r24, 0x01	; 1
    61b8:	61 f4       	brne	.+24     	; 0x61d2 <zone_handler+0x13c>
    61ba:	90 91 06 08 	lds	r25, 0x0806	; 0x800806 <crossover_scene_zone>
    61be:	91 60       	ori	r25, 0x01	; 1
    61c0:	90 93 06 08 	sts	0x0806, r25	; 0x800806 <crossover_scene_zone>
    61c4:	10 92 e0 02 	sts	0x02E0, r1	; 0x8002e0 <menu_operational+0x2>
    61c8:	80 93 10 0a 	sts	0x0A10, r24	; 0x800a10 <shell>
    61cc:	10 92 ec 07 	sts	0x07EC, r1	; 0x8007ec <thisps+0x2>
    61d0:	0b c0       	rjmp	.+22     	; 0x61e8 <zone_handler+0x152>
    61d2:	80 91 6a 06 	lds	r24, 0x066A	; 0x80066a <dialogbox_nb+0x3>
    61d6:	88 23       	and	r24, r24
    61d8:	21 f0       	breq	.+8      	; 0x61e2 <zone_handler+0x14c>
    61da:	80 91 6a 06 	lds	r24, 0x066A	; 0x80066a <dialogbox_nb+0x3>
    61de:	83 30       	cpi	r24, 0x03	; 3
    61e0:	41 f4       	brne	.+16     	; 0x61f2 <zone_handler+0x15c>
    61e2:	82 e0       	ldi	r24, 0x02	; 2
    61e4:	80 93 ec 07 	sts	0x07EC, r24	; 0x8007ec <thisps+0x2>
    61e8:	10 92 ed 07 	sts	0x07ED, r1	; 0x8007ed <thisps+0x3>
    61ec:	8f ef       	ldi	r24, 0xFF	; 255
    61ee:	80 93 6a 06 	sts	0x066A, r24	; 0x80066a <dialogbox_nb+0x3>
    61f2:	80 91 ec 07 	lds	r24, 0x07EC	; 0x8007ec <thisps+0x2>
    61f6:	82 30       	cpi	r24, 0x02	; 2
    61f8:	09 f0       	breq	.+2      	; 0x61fc <zone_handler+0x166>
    61fa:	50 c0       	rjmp	.+160    	; 0x629c <zone_handler+0x206>
    61fc:	80 91 ed 07 	lds	r24, 0x07ED	; 0x8007ed <thisps+0x3>
    6200:	81 11       	cpse	r24, r1
    6202:	15 c0       	rjmp	.+42     	; 0x622e <zone_handler+0x198>
    6204:	81 e0       	ldi	r24, 0x01	; 1
    6206:	80 93 ed 07 	sts	0x07ED, r24	; 0x8007ed <thisps+0x3>
    620a:	4f e1       	ldi	r20, 0x1F	; 31
    620c:	6f e1       	ldi	r22, 0x1F	; 31
    620e:	8f e1       	ldi	r24, 0x1F	; 31
    6210:	0e 94 02 1c 	call	0x3804	; 0x3804 <ClearFromCenter_GrowingSymmetric>
    6214:	69 e1       	ldi	r22, 0x19	; 25
    6216:	81 e1       	ldi	r24, 0x11	; 17
    6218:	0e 94 da 25 	call	0x4bb4	; 0x4bb4 <ks0108GotoXY>
    621c:	84 e7       	ldi	r24, 0x74	; 116
    621e:	94 e1       	ldi	r25, 0x14	; 20
    6220:	0e 94 11 2c 	call	0x5822	; 0x5822 <ks0108Puts_P>
    6224:	40 e0       	ldi	r20, 0x00	; 0
    6226:	62 e0       	ldi	r22, 0x02	; 2
    6228:	82 e0       	ldi	r24, 0x02	; 2
    622a:	0e 94 e6 3d 	call	0x7bcc	; 0x7bcc <dialogbox_sino>
    622e:	80 91 ed 07 	lds	r24, 0x07ED	; 0x8007ed <thisps+0x3>
    6232:	81 30       	cpi	r24, 0x01	; 1
    6234:	99 f5       	brne	.+102    	; 0x629c <zone_handler+0x206>
    6236:	80 91 6a 06 	lds	r24, 0x066A	; 0x80066a <dialogbox_nb+0x3>
    623a:	87 fd       	sbrc	r24, 7
    623c:	2f c0       	rjmp	.+94     	; 0x629c <zone_handler+0x206>
    623e:	80 91 6a 06 	lds	r24, 0x066A	; 0x80066a <dialogbox_nb+0x3>
    6242:	81 30       	cpi	r24, 0x01	; 1
    6244:	61 f4       	brne	.+24     	; 0x625e <zone_handler+0x1c8>
    6246:	82 e0       	ldi	r24, 0x02	; 2
    6248:	80 93 10 0a 	sts	0x0A10, r24	; 0x800a10 <shell>
    624c:	10 92 ec 07 	sts	0x07EC, r1	; 0x8007ec <thisps+0x2>
    6250:	10 92 ed 07 	sts	0x07ED, r1	; 0x8007ed <thisps+0x3>
    6254:	83 e0       	ldi	r24, 0x03	; 3
    6256:	80 93 69 08 	sts	0x0869, r24	; 0x800869 <kbhandler_app>
    625a:	8f ef       	ldi	r24, 0xFF	; 255
    625c:	1d c0       	rjmp	.+58     	; 0x6298 <zone_handler+0x202>
    625e:	80 91 6a 06 	lds	r24, 0x066A	; 0x80066a <dialogbox_nb+0x3>
    6262:	88 23       	and	r24, r24
    6264:	21 f0       	breq	.+8      	; 0x626e <zone_handler+0x1d8>
    6266:	80 91 6a 06 	lds	r24, 0x066A	; 0x80066a <dialogbox_nb+0x3>
    626a:	83 30       	cpi	r24, 0x03	; 3
    626c:	b9 f4       	brne	.+46     	; 0x629c <zone_handler+0x206>
    626e:	4f e1       	ldi	r20, 0x1F	; 31
    6270:	6f e1       	ldi	r22, 0x1F	; 31
    6272:	8f e1       	ldi	r24, 0x1F	; 31
    6274:	0e 94 02 1c 	call	0x3804	; 0x3804 <ClearFromCenter_GrowingSymmetric>
    6278:	80 91 ea 07 	lds	r24, 0x07EA	; 0x8007ea <thisps>
    627c:	0e 94 96 2f 	call	0x5f2c	; 0x5f2c <showpropzone>
    6280:	10 92 eb 07 	sts	0x07EB, r1	; 0x8007eb <thisps+0x1>
    6284:	60 e0       	ldi	r22, 0x00	; 0
    6286:	83 ed       	ldi	r24, 0xD3	; 211
    6288:	94 e0       	ldi	r25, 0x04	; 4
    628a:	0e 94 b8 24 	call	0x4970	; 0x4970 <change_operating_mode>
    628e:	8f ef       	ldi	r24, 0xFF	; 255
    6290:	80 93 ec 07 	sts	0x07EC, r24	; 0x8007ec <thisps+0x2>
    6294:	10 92 ed 07 	sts	0x07ED, r1	; 0x8007ed <thisps+0x3>
    6298:	80 93 6a 06 	sts	0x066A, r24	; 0x80066a <dialogbox_nb+0x3>
    629c:	df 91       	pop	r29
    629e:	cf 91       	pop	r28
    62a0:	1f 91       	pop	r17
    62a2:	0f 91       	pop	r16
    62a4:	08 95       	ret

000062a6 <_options_preview_scene>:
    62a6:	20 91 9c 01 	lds	r18, 0x019C	; 0x80019c <previewscene>
    62aa:	80 91 36 08 	lds	r24, 0x0836	; 0x800836 <ps_scene>
    62ae:	02 2e       	mov	r0, r18
    62b0:	00 0c       	add	r0, r0
    62b2:	33 0b       	sbc	r19, r19
    62b4:	90 e0       	ldi	r25, 0x00	; 0
    62b6:	28 17       	cp	r18, r24
    62b8:	39 07       	cpc	r19, r25
    62ba:	14 f0       	brlt	.+4      	; 0x62c0 <_options_preview_scene+0x1a>
    62bc:	10 92 9c 01 	sts	0x019C, r1	; 0x80019c <previewscene>
    62c0:	80 91 9c 01 	lds	r24, 0x019C	; 0x80019c <previewscene>
    62c4:	87 ff       	sbrs	r24, 7
    62c6:	05 c0       	rjmp	.+10     	; 0x62d2 <_options_preview_scene+0x2c>
    62c8:	80 91 36 08 	lds	r24, 0x0836	; 0x800836 <ps_scene>
    62cc:	81 50       	subi	r24, 0x01	; 1
    62ce:	80 93 9c 01 	sts	0x019C, r24	; 0x80019c <previewscene>
    62d2:	80 91 37 08 	lds	r24, 0x0837	; 0x800837 <ps_fading_inbk>
    62d6:	8b 7f       	andi	r24, 0xFB	; 251
    62d8:	80 93 37 08 	sts	0x0837, r24	; 0x800837 <ps_fading_inbk>
    62dc:	e0 91 aa 01 	lds	r30, 0x01AA	; 0x8001aa <previewscene+0xe>
    62e0:	f0 91 ab 01 	lds	r31, 0x01AB	; 0x8001ab <previewscene+0xf>
    62e4:	09 94       	ijmp

000062e6 <key3_1fmode3>:
    62e6:	08 95       	ret

000062e8 <key1_2fmode0>:
    62e8:	83 e0       	ldi	r24, 0x03	; 3
    62ea:	80 93 69 08 	sts	0x0869, r24	; 0x800869 <kbhandler_app>
    62ee:	08 95       	ret

000062f0 <_entering_to_preview_scene>:
    62f0:	e0 91 ae 01 	lds	r30, 0x01AE	; 0x8001ae <previewscene+0x12>
    62f4:	f0 91 af 01 	lds	r31, 0x01AF	; 0x8001af <previewscene+0x13>
    62f8:	09 95       	icall
    62fa:	80 91 36 08 	lds	r24, 0x0836	; 0x800836 <ps_scene>
    62fe:	63 e1       	ldi	r22, 0x13	; 19
    6300:	88 23       	and	r24, r24
    6302:	51 f0       	breq	.+20     	; 0x6318 <_entering_to_preview_scene+0x28>
    6304:	86 e0       	ldi	r24, 0x06	; 6
    6306:	0e 94 da 25 	call	0x4bb4	; 0x4bb4 <ks0108GotoXY>
    630a:	80 ec       	ldi	r24, 0xC0	; 192
    630c:	94 e1       	ldi	r25, 0x14	; 20
    630e:	0e 94 11 2c 	call	0x5822	; 0x5822 <ks0108Puts_P>
    6312:	0e 94 53 31 	call	0x62a6	; 0x62a6 <_options_preview_scene>
    6316:	0f c0       	rjmp	.+30     	; 0x6336 <_entering_to_preview_scene+0x46>
    6318:	86 e0       	ldi	r24, 0x06	; 6
    631a:	0e 94 da 25 	call	0x4bb4	; 0x4bb4 <ks0108GotoXY>
    631e:	85 eb       	ldi	r24, 0xB5	; 181
    6320:	94 e1       	ldi	r25, 0x14	; 20
    6322:	0e 94 11 2c 	call	0x5822	; 0x5822 <ks0108Puts_P>
    6326:	6e e1       	ldi	r22, 0x1E	; 30
    6328:	8a e0       	ldi	r24, 0x0A	; 10
    632a:	0e 94 da 25 	call	0x4bb4	; 0x4bb4 <ks0108GotoXY>
    632e:	8d ea       	ldi	r24, 0xAD	; 173
    6330:	94 e1       	ldi	r25, 0x14	; 20
    6332:	0e 94 11 2c 	call	0x5822	; 0x5822 <ks0108Puts_P>
    6336:	82 e0       	ldi	r24, 0x02	; 2
    6338:	80 93 ef 07 	sts	0x07EF, r24	; 0x8007ef <thisps>
    633c:	62 e0       	ldi	r22, 0x02	; 2
    633e:	83 e5       	ldi	r24, 0x53	; 83
    6340:	95 e0       	ldi	r25, 0x05	; 5
    6342:	0c 94 b8 24 	jmp	0x4970	; 0x4970 <change_operating_mode>

00006346 <key4_1fmode3>:
    6346:	cf 93       	push	r28
    6348:	df 93       	push	r29
    634a:	60 e0       	ldi	r22, 0x00	; 0
    634c:	80 e0       	ldi	r24, 0x00	; 0
    634e:	0e 94 a1 3f 	call	0x7f42	; 0x7f42 <playsound>
    6352:	cf ee       	ldi	r28, 0xEF	; 239
    6354:	d7 e0       	ldi	r29, 0x07	; 7
    6356:	81 e0       	ldi	r24, 0x01	; 1
    6358:	88 83       	st	Y, r24
    635a:	61 e0       	ldi	r22, 0x01	; 1
    635c:	83 e5       	ldi	r24, 0x53	; 83
    635e:	95 e0       	ldi	r25, 0x05	; 5
    6360:	0e 94 b8 24 	call	0x4970	; 0x4970 <change_operating_mode>
    6364:	86 e0       	ldi	r24, 0x06	; 6
    6366:	89 83       	std	Y+1, r24	; 0x01
    6368:	1a 82       	std	Y+2, r1	; 0x02
    636a:	df 91       	pop	r29
    636c:	cf 91       	pop	r28
    636e:	08 95       	ret

00006370 <key4_1fmode2>:
    6370:	cf 93       	push	r28
    6372:	df 93       	push	r29
    6374:	10 92 d6 09 	sts	0x09D6, r1	; 0x8009d6 <borrame_start>
    6378:	60 e0       	ldi	r22, 0x00	; 0
    637a:	80 e0       	ldi	r24, 0x00	; 0
    637c:	0e 94 a1 3f 	call	0x7f42	; 0x7f42 <playsound>
    6380:	cf ee       	ldi	r28, 0xEF	; 239
    6382:	d7 e0       	ldi	r29, 0x07	; 7
    6384:	81 e0       	ldi	r24, 0x01	; 1
    6386:	88 83       	st	Y, r24
    6388:	61 e0       	ldi	r22, 0x01	; 1
    638a:	83 e5       	ldi	r24, 0x53	; 83
    638c:	95 e0       	ldi	r25, 0x05	; 5
    638e:	0e 94 b8 24 	call	0x4970	; 0x4970 <change_operating_mode>
    6392:	85 e0       	ldi	r24, 0x05	; 5
    6394:	89 83       	std	Y+1, r24	; 0x01
    6396:	1a 82       	std	Y+2, r1	; 0x02
    6398:	df 91       	pop	r29
    639a:	cf 91       	pop	r28
    639c:	08 95       	ret

0000639e <key3_1fmode2>:
    639e:	10 92 d6 09 	sts	0x09D6, r1	; 0x8009d6 <borrame_start>
    63a2:	61 e0       	ldi	r22, 0x01	; 1
    63a4:	80 e0       	ldi	r24, 0x00	; 0
    63a6:	0e 94 a1 3f 	call	0x7f42	; 0x7f42 <playsound>
    63aa:	e5 ed       	ldi	r30, 0xD5	; 213
    63ac:	f5 e0       	ldi	r31, 0x05	; 5
    63ae:	10 86       	std	Z+8, r1	; 0x08
    63b0:	12 86       	std	Z+10, r1	; 0x0a
    63b2:	81 e0       	ldi	r24, 0x01	; 1
    63b4:	83 87       	std	Z+11, r24	; 0x0b
    63b6:	80 93 ee 07 	sts	0x07EE, r24	; 0x8007ee <ps_search_scene>
    63ba:	8f ef       	ldi	r24, 0xFF	; 255
    63bc:	80 93 69 08 	sts	0x0869, r24	; 0x800869 <kbhandler_app>
    63c0:	08 95       	ret

000063c2 <key4_1fmode1>:
    63c2:	60 e0       	ldi	r22, 0x00	; 0
    63c4:	80 e0       	ldi	r24, 0x00	; 0
    63c6:	0e 94 a1 3f 	call	0x7f42	; 0x7f42 <playsound>
    63ca:	e0 91 73 06 	lds	r30, 0x0673	; 0x800673 <dialogbox_nb+0xc>
    63ce:	f0 91 74 06 	lds	r31, 0x0674	; 0x800674 <dialogbox_nb+0xd>
    63d2:	09 94       	ijmp

000063d4 <key2_1fmode1>:
    63d4:	e0 91 6f 06 	lds	r30, 0x066F	; 0x80066f <dialogbox_nb+0x8>
    63d8:	f0 91 70 06 	lds	r31, 0x0670	; 0x800670 <dialogbox_nb+0x9>
    63dc:	09 95       	icall
    63de:	60 e0       	ldi	r22, 0x00	; 0
    63e0:	80 e0       	ldi	r24, 0x00	; 0
    63e2:	0c 94 a1 3f 	jmp	0x7f42	; 0x7f42 <playsound>

000063e6 <key1_1fmode1>:
    63e6:	e0 91 6d 06 	lds	r30, 0x066D	; 0x80066d <dialogbox_nb+0x6>
    63ea:	f0 91 6e 06 	lds	r31, 0x066E	; 0x80066e <dialogbox_nb+0x7>
    63ee:	09 95       	icall
    63f0:	60 e0       	ldi	r22, 0x00	; 0
    63f2:	80 e0       	ldi	r24, 0x00	; 0
    63f4:	0c 94 a1 3f 	jmp	0x7f42	; 0x7f42 <playsound>

000063f8 <key4_1fmode0>:
    63f8:	1f 93       	push	r17
    63fa:	cf 93       	push	r28
    63fc:	df 93       	push	r29
    63fe:	60 e0       	ldi	r22, 0x00	; 0
    6400:	80 e0       	ldi	r24, 0x00	; 0
    6402:	0e 94 a1 3f 	call	0x7f42	; 0x7f42 <playsound>
    6406:	cf ee       	ldi	r28, 0xEF	; 239
    6408:	d7 e0       	ldi	r29, 0x07	; 7
    640a:	11 e0       	ldi	r17, 0x01	; 1
    640c:	18 83       	st	Y, r17
    640e:	61 e0       	ldi	r22, 0x01	; 1
    6410:	83 e5       	ldi	r24, 0x53	; 83
    6412:	95 e0       	ldi	r25, 0x05	; 5
    6414:	0e 94 b8 24 	call	0x4970	; 0x4970 <change_operating_mode>
    6418:	19 83       	std	Y+1, r17	; 0x01
    641a:	1a 82       	std	Y+2, r1	; 0x02
    641c:	df 91       	pop	r29
    641e:	cf 91       	pop	r28
    6420:	1f 91       	pop	r17
    6422:	08 95       	ret

00006424 <key1_1fmode0>:
    6424:	60 e0       	ldi	r22, 0x00	; 0
    6426:	80 e0       	ldi	r24, 0x00	; 0
    6428:	0e 94 a1 3f 	call	0x7f42	; 0x7f42 <playsound>
    642c:	80 91 28 08 	lds	r24, 0x0828	; 0x800828 <currentscene>
    6430:	8f 3f       	cpi	r24, 0xFF	; 255
    6432:	29 f0       	breq	.+10     	; 0x643e <key1_1fmode0+0x1a>
    6434:	80 91 9c 01 	lds	r24, 0x019C	; 0x80019c <previewscene>
    6438:	8f 5f       	subi	r24, 0xFF	; 255
    643a:	80 93 9c 01 	sts	0x019C, r24	; 0x80019c <previewscene>
    643e:	0e 94 78 31 	call	0x62f0	; 0x62f0 <_entering_to_preview_scene>
    6442:	81 e0       	ldi	r24, 0x01	; 1
    6444:	80 93 d6 09 	sts	0x09D6, r24	; 0x8009d6 <borrame_start>
    6448:	10 92 f2 07 	sts	0x07F2, r1	; 0x8007f2 <borrame>
    644c:	10 92 d7 09 	sts	0x09D7, r1	; 0x8009d7 <borrame_counter>
    6450:	10 92 d5 09 	sts	0x09D5, r1	; 0x8009d5 <borrame_flag>
    6454:	08 95       	ret

00006456 <key2_1fmode3>:
    6456:	1f 93       	push	r17
    6458:	cf 93       	push	r28
    645a:	df 93       	push	r29
    645c:	c0 e0       	ldi	r28, 0x00	; 0
    645e:	d0 e0       	ldi	r29, 0x00	; 0
    6460:	14 e2       	ldi	r17, 0x24	; 36
    6462:	1c 9f       	mul	r17, r28
    6464:	f0 01       	movw	r30, r0
    6466:	1d 9f       	mul	r17, r29
    6468:	f0 0d       	add	r31, r0
    646a:	11 24       	eor	r1, r1
    646c:	e5 58       	subi	r30, 0x85	; 133
    646e:	f5 4f       	sbci	r31, 0xF5	; 245
    6470:	80 81       	ld	r24, Z
    6472:	8e 7f       	andi	r24, 0xFE	; 254
    6474:	80 83       	st	Z, r24
    6476:	8c 2f       	mov	r24, r28
    6478:	0e 94 67 0e 	call	0x1cce	; 0x1cce <_PreEx_DimmingDown>
    647c:	21 96       	adiw	r28, 0x01	; 1
    647e:	c6 30       	cpi	r28, 0x06	; 6
    6480:	d1 05       	cpc	r29, r1
    6482:	79 f7       	brne	.-34     	; 0x6462 <key2_1fmode3+0xc>
    6484:	df 91       	pop	r29
    6486:	cf 91       	pop	r28
    6488:	1f 91       	pop	r17
    648a:	08 95       	ret

0000648c <key1_1fmode3>:
    648c:	1f 93       	push	r17
    648e:	cf 93       	push	r28
    6490:	df 93       	push	r29
    6492:	c0 e0       	ldi	r28, 0x00	; 0
    6494:	d0 e0       	ldi	r29, 0x00	; 0
    6496:	14 e2       	ldi	r17, 0x24	; 36
    6498:	1c 9f       	mul	r17, r28
    649a:	f0 01       	movw	r30, r0
    649c:	1d 9f       	mul	r17, r29
    649e:	f0 0d       	add	r31, r0
    64a0:	11 24       	eor	r1, r1
    64a2:	e5 58       	subi	r30, 0x85	; 133
    64a4:	f5 4f       	sbci	r31, 0xF5	; 245
    64a6:	80 81       	ld	r24, Z
    64a8:	8e 7f       	andi	r24, 0xFE	; 254
    64aa:	80 83       	st	Z, r24
    64ac:	8c 2f       	mov	r24, r28
    64ae:	0e 94 2c 0e 	call	0x1c58	; 0x1c58 <_PreEx_DimmingUp>
    64b2:	21 96       	adiw	r28, 0x01	; 1
    64b4:	c6 30       	cpi	r28, 0x06	; 6
    64b6:	d1 05       	cpc	r29, r1
    64b8:	79 f7       	brne	.-34     	; 0x6498 <key1_1fmode3+0xc>
    64ba:	df 91       	pop	r29
    64bc:	cf 91       	pop	r28
    64be:	1f 91       	pop	r17
    64c0:	08 95       	ret

000064c2 <_show_the_scene>:
    64c2:	df 92       	push	r13
    64c4:	ef 92       	push	r14
    64c6:	ff 92       	push	r15
    64c8:	0f 93       	push	r16
    64ca:	1f 93       	push	r17
    64cc:	cf 93       	push	r28
    64ce:	df 93       	push	r29
    64d0:	80 91 28 08 	lds	r24, 0x0828	; 0x800828 <currentscene>
    64d4:	0e 94 64 16 	call	0x2cc8	; 0x2cc8 <_print_texts_scene>
    64d8:	80 91 37 08 	lds	r24, 0x0837	; 0x800837 <ps_fading_inbk>
    64dc:	84 60       	ori	r24, 0x04	; 4
    64de:	80 93 37 08 	sts	0x0837, r24	; 0x800837 <ps_fading_inbk>
    64e2:	c0 e0       	ldi	r28, 0x00	; 0
    64e4:	d0 e0       	ldi	r29, 0x00	; 0
    64e6:	24 e2       	ldi	r18, 0x24	; 36
    64e8:	d2 2e       	mov	r13, r18
    64ea:	80 91 01 01 	lds	r24, 0x0101	; 0x800101 <NUM_ELEM_DENTRO_BAR>
    64ee:	60 91 00 01 	lds	r22, 0x0100	; 0x800100 <__DATA_REGION_ORIGIN__>
    64f2:	86 9f       	mul	r24, r22
    64f4:	b0 01       	movw	r22, r0
    64f6:	11 24       	eor	r1, r1
    64f8:	40 e0       	ldi	r20, 0x00	; 0
    64fa:	8c 2f       	mov	r24, r28
    64fc:	0e 94 57 1f 	call	0x3eae	; 0x3eae <direct_fillclear_barlevel>
    6500:	dc 9e       	mul	r13, r28
    6502:	c0 01       	movw	r24, r0
    6504:	dd 9e       	mul	r13, r29
    6506:	90 0d       	add	r25, r0
    6508:	11 24       	eor	r1, r1
    650a:	fc 01       	movw	r30, r24
    650c:	e6 58       	subi	r30, 0x86	; 134
    650e:	f5 4f       	sbci	r31, 0xF5	; 245
    6510:	20 81       	ld	r18, Z
    6512:	8c 01       	movw	r16, r24
    6514:	0e 59       	subi	r16, 0x9E	; 158
    6516:	15 4f       	sbci	r17, 0xF5	; 245
    6518:	ae 01       	movw	r20, r28
    651a:	4f 5f       	subi	r20, 0xFF	; 255
    651c:	5f 4f       	sbci	r21, 0xFF	; 255
    651e:	7a 01       	movw	r14, r20
    6520:	20 ff       	sbrs	r18, 0
    6522:	27 c0       	rjmp	.+78     	; 0x6572 <_show_the_scene+0xb0>
    6524:	fc 01       	movw	r30, r24
    6526:	e5 58       	subi	r30, 0x85	; 133
    6528:	f5 4f       	sbci	r31, 0xF5	; 245
    652a:	80 81       	ld	r24, Z
    652c:	f8 01       	movw	r30, r16
    652e:	81 ff       	sbrs	r24, 1
    6530:	21 c0       	rjmp	.+66     	; 0x6574 <_show_the_scene+0xb2>
    6532:	87 85       	ldd	r24, Z+15	; 0x0f
    6534:	81 30       	cpi	r24, 0x01	; 1
    6536:	59 f4       	brne	.+22     	; 0x654e <_show_the_scene+0x8c>
    6538:	fa 01       	movw	r30, r20
    653a:	ee 0f       	add	r30, r30
    653c:	ff 1f       	adc	r31, r31
    653e:	e8 5d       	subi	r30, 0xD8	; 216
    6540:	f7 4f       	sbci	r31, 0xF7	; 247
    6542:	60 81       	ld	r22, Z
    6544:	71 81       	ldd	r23, Z+1	; 0x01
    6546:	8c 2f       	mov	r24, r28
    6548:	0e 94 f0 1e 	call	0x3de0	; 0x3de0 <preview_dc_barlevel>
    654c:	12 c0       	rjmp	.+36     	; 0x6572 <_show_the_scene+0xb0>
    654e:	f8 01       	movw	r30, r16
    6550:	60 85       	ldd	r22, Z+8	; 0x08
    6552:	71 85       	ldd	r23, Z+9	; 0x09
    6554:	4f ef       	ldi	r20, 0xFF	; 255
    6556:	8c 2f       	mov	r24, r28
    6558:	0e 94 57 1f 	call	0x3eae	; 0x3eae <direct_fillclear_barlevel>
    655c:	f7 01       	movw	r30, r14
    655e:	ee 0f       	add	r30, r30
    6560:	ff 1f       	adc	r31, r31
    6562:	e8 5d       	subi	r30, 0xD8	; 216
    6564:	f7 4f       	sbci	r31, 0xF7	; 247
    6566:	60 81       	ld	r22, Z
    6568:	71 81       	ldd	r23, Z+1	; 0x01
    656a:	8c 2f       	mov	r24, r28
    656c:	0e 94 f0 1e 	call	0x3de0	; 0x3de0 <preview_dc_barlevel>
    6570:	07 c0       	rjmp	.+14     	; 0x6580 <_show_the_scene+0xbe>
    6572:	f8 01       	movw	r30, r16
    6574:	60 85       	ldd	r22, Z+8	; 0x08
    6576:	71 85       	ldd	r23, Z+9	; 0x09
    6578:	4f ef       	ldi	r20, 0xFF	; 255
    657a:	8c 2f       	mov	r24, r28
    657c:	0e 94 57 1f 	call	0x3eae	; 0x3eae <direct_fillclear_barlevel>
    6580:	e7 01       	movw	r28, r14
    6582:	c6 30       	cpi	r28, 0x06	; 6
    6584:	d1 05       	cpc	r29, r1
    6586:	09 f0       	breq	.+2      	; 0x658a <_show_the_scene+0xc8>
    6588:	b0 cf       	rjmp	.-160    	; 0x64ea <_show_the_scene+0x28>
    658a:	df 91       	pop	r29
    658c:	cf 91       	pop	r28
    658e:	1f 91       	pop	r17
    6590:	0f 91       	pop	r16
    6592:	ff 90       	pop	r15
    6594:	ef 90       	pop	r14
    6596:	df 90       	pop	r13
    6598:	08 95       	ret

0000659a <key3_2fmode2>:
    659a:	0f 93       	push	r16
    659c:	61 e0       	ldi	r22, 0x01	; 1
    659e:	80 e0       	ldi	r24, 0x00	; 0
    65a0:	0e 94 a1 3f 	call	0x7f42	; 0x7f42 <playsound>
    65a4:	00 e0       	ldi	r16, 0x00	; 0
    65a6:	2d e3       	ldi	r18, 0x3D	; 61
    65a8:	4d e3       	ldi	r20, 0x3D	; 61
    65aa:	61 e0       	ldi	r22, 0x01	; 1
    65ac:	81 e0       	ldi	r24, 0x01	; 1
    65ae:	0e 94 61 28 	call	0x50c2	; 0x50c2 <ks0108FillRect>
    65b2:	0e 94 61 32 	call	0x64c2	; 0x64c2 <_show_the_scene>
    65b6:	80 91 28 08 	lds	r24, 0x0828	; 0x800828 <currentscene>
    65ba:	8f 3f       	cpi	r24, 0xFF	; 255
    65bc:	29 f0       	breq	.+10     	; 0x65c8 <key3_2fmode2+0x2e>
    65be:	80 91 28 08 	lds	r24, 0x0828	; 0x800828 <currentscene>
    65c2:	80 93 9c 01 	sts	0x019C, r24	; 0x80019c <previewscene>
    65c6:	02 c0       	rjmp	.+4      	; 0x65cc <key3_2fmode2+0x32>
    65c8:	10 92 9c 01 	sts	0x019C, r1	; 0x80019c <previewscene>
    65cc:	10 92 ef 07 	sts	0x07EF, r1	; 0x8007ef <thisps>
    65d0:	60 e0       	ldi	r22, 0x00	; 0
    65d2:	83 e5       	ldi	r24, 0x53	; 83
    65d4:	95 e0       	ldi	r25, 0x05	; 5
    65d6:	0e 94 b8 24 	call	0x4970	; 0x4970 <change_operating_mode>
    65da:	83 e0       	ldi	r24, 0x03	; 3
    65dc:	80 93 69 08 	sts	0x0869, r24	; 0x800869 <kbhandler_app>
    65e0:	0f 91       	pop	r16
    65e2:	08 95       	ret

000065e4 <_desynch_all>:
    65e4:	cf 93       	push	r28
    65e6:	df 93       	push	r29
    65e8:	0e 94 27 12 	call	0x244e	; 0x244e <blink_captionof_barzone_STOPALL>
    65ec:	4f e1       	ldi	r20, 0x1F	; 31
    65ee:	6f e1       	ldi	r22, 0x1F	; 31
    65f0:	8f e1       	ldi	r24, 0x1F	; 31
    65f2:	0e 94 02 1c 	call	0x3804	; 0x3804 <ClearFromCenter_GrowingSymmetric>
    65f6:	80 91 28 08 	lds	r24, 0x0828	; 0x800828 <currentscene>
    65fa:	8f 3f       	cpi	r24, 0xFF	; 255
    65fc:	99 f0       	breq	.+38     	; 0x6624 <_desynch_all+0x40>
    65fe:	c0 e0       	ldi	r28, 0x00	; 0
    6600:	d0 e0       	ldi	r29, 0x00	; 0
    6602:	8c 2f       	mov	r24, r28
    6604:	0e 94 7c 0d 	call	0x1af8	; 0x1af8 <if_fadingactive_nextdc_else_dc>
    6608:	21 96       	adiw	r28, 0x01	; 1
    660a:	fe 01       	movw	r30, r28
    660c:	ee 0f       	add	r30, r30
    660e:	ff 1f       	adc	r31, r31
    6610:	e8 5d       	subi	r30, 0xD8	; 216
    6612:	f7 4f       	sbci	r31, 0xF7	; 247
    6614:	20 81       	ld	r18, Z
    6616:	31 81       	ldd	r19, Z+1	; 0x01
    6618:	82 17       	cp	r24, r18
    661a:	93 07       	cpc	r25, r19
    661c:	c1 f4       	brne	.+48     	; 0x664e <_desynch_all+0x6a>
    661e:	c6 30       	cpi	r28, 0x06	; 6
    6620:	d1 05       	cpc	r29, r1
    6622:	79 f7       	brne	.-34     	; 0x6602 <_desynch_all+0x1e>
    6624:	0e 94 f5 16 	call	0x2dea	; 0x2dea <_all_dcs_taked_as_currentscene>
    6628:	80 91 28 08 	lds	r24, 0x0828	; 0x800828 <currentscene>
    662c:	0e 94 64 16 	call	0x2cc8	; 0x2cc8 <_print_texts_scene>
    6630:	10 92 ef 07 	sts	0x07EF, r1	; 0x8007ef <thisps>
    6634:	60 e0       	ldi	r22, 0x00	; 0
    6636:	83 e5       	ldi	r24, 0x53	; 83
    6638:	95 e0       	ldi	r25, 0x05	; 5
    663a:	0e 94 b8 24 	call	0x4970	; 0x4970 <change_operating_mode>
    663e:	8f ef       	ldi	r24, 0xFF	; 255
    6640:	80 93 f0 07 	sts	0x07F0, r24	; 0x8007f0 <thisps+0x1>
    6644:	10 92 f1 07 	sts	0x07F1, r1	; 0x8007f1 <thisps+0x2>
    6648:	df 91       	pop	r29
    664a:	cf 91       	pop	r28
    664c:	08 95       	ret
    664e:	8f ef       	ldi	r24, 0xFF	; 255
    6650:	80 93 28 08 	sts	0x0828, r24	; 0x800828 <currentscene>
    6654:	e7 cf       	rjmp	.-50     	; 0x6624 <_desynch_all+0x40>

00006656 <key3_1fmode3_aft>:
    6656:	61 e0       	ldi	r22, 0x01	; 1
    6658:	80 e0       	ldi	r24, 0x00	; 0
    665a:	0e 94 a1 3f 	call	0x7f42	; 0x7f42 <playsound>
    665e:	0c 94 f2 32 	jmp	0x65e4	; 0x65e4 <_desynch_all>

00006662 <_synch_all>:
    6662:	0f 93       	push	r16
    6664:	1f 93       	push	r17
    6666:	cf 93       	push	r28
    6668:	df 93       	push	r29
    666a:	c0 e0       	ldi	r28, 0x00	; 0
    666c:	d0 e0       	ldi	r29, 0x00	; 0
    666e:	14 e2       	ldi	r17, 0x24	; 36
    6670:	0c 2f       	mov	r16, r28
    6672:	1c 9f       	mul	r17, r28
    6674:	f0 01       	movw	r30, r0
    6676:	1d 9f       	mul	r17, r29
    6678:	f0 0d       	add	r31, r0
    667a:	11 24       	eor	r1, r1
    667c:	e6 58       	subi	r30, 0x86	; 134
    667e:	f5 4f       	sbci	r31, 0xF5	; 245
    6680:	80 81       	ld	r24, Z
    6682:	80 ff       	sbrs	r24, 0
    6684:	03 c0       	rjmp	.+6      	; 0x668c <_synch_all+0x2a>
    6686:	80 81       	ld	r24, Z
    6688:	8e 7f       	andi	r24, 0xFE	; 254
    668a:	80 83       	st	Z, r24
    668c:	1c 9f       	mul	r17, r28
    668e:	f0 01       	movw	r30, r0
    6690:	1d 9f       	mul	r17, r29
    6692:	f0 0d       	add	r31, r0
    6694:	11 24       	eor	r1, r1
    6696:	e5 58       	subi	r30, 0x85	; 133
    6698:	f5 4f       	sbci	r31, 0xF5	; 245
    669a:	80 81       	ld	r24, Z
    669c:	81 ff       	sbrs	r24, 1
    669e:	03 c0       	rjmp	.+6      	; 0x66a6 <_synch_all+0x44>
    66a0:	80 81       	ld	r24, Z
    66a2:	8d 7f       	andi	r24, 0xFD	; 253
    66a4:	80 83       	st	Z, r24
    66a6:	1c 9f       	mul	r17, r28
    66a8:	f0 01       	movw	r30, r0
    66aa:	1d 9f       	mul	r17, r29
    66ac:	f0 0d       	add	r31, r0
    66ae:	11 24       	eor	r1, r1
    66b0:	ee 59       	subi	r30, 0x9E	; 158
    66b2:	f5 4f       	sbci	r31, 0xF5	; 245
    66b4:	82 8d       	ldd	r24, Z+26	; 0x1a
    66b6:	81 30       	cpi	r24, 0x01	; 1
    66b8:	09 f4       	brne	.+2      	; 0x66bc <_synch_all+0x5a>
    66ba:	12 8e       	std	Z+26, r1	; 0x1a
    66bc:	80 91 01 01 	lds	r24, 0x0101	; 0x800101 <NUM_ELEM_DENTRO_BAR>
    66c0:	60 91 00 01 	lds	r22, 0x0100	; 0x800100 <__DATA_REGION_ORIGIN__>
    66c4:	86 9f       	mul	r24, r22
    66c6:	b0 01       	movw	r22, r0
    66c8:	11 24       	eor	r1, r1
    66ca:	40 e0       	ldi	r20, 0x00	; 0
    66cc:	80 2f       	mov	r24, r16
    66ce:	0e 94 57 1f 	call	0x3eae	; 0x3eae <direct_fillclear_barlevel>
    66d2:	1c 9f       	mul	r17, r28
    66d4:	f0 01       	movw	r30, r0
    66d6:	1d 9f       	mul	r17, r29
    66d8:	f0 0d       	add	r31, r0
    66da:	11 24       	eor	r1, r1
    66dc:	ee 59       	subi	r30, 0x9E	; 158
    66de:	f5 4f       	sbci	r31, 0xF5	; 245
    66e0:	60 85       	ldd	r22, Z+8	; 0x08
    66e2:	71 85       	ldd	r23, Z+9	; 0x09
    66e4:	4f ef       	ldi	r20, 0xFF	; 255
    66e6:	80 2f       	mov	r24, r16
    66e8:	0e 94 57 1f 	call	0x3eae	; 0x3eae <direct_fillclear_barlevel>
    66ec:	21 96       	adiw	r28, 0x01	; 1
    66ee:	c6 30       	cpi	r28, 0x06	; 6
    66f0:	d1 05       	cpc	r29, r1
    66f2:	09 f0       	breq	.+2      	; 0x66f6 <_synch_all+0x94>
    66f4:	bd cf       	rjmp	.-134    	; 0x6670 <_synch_all+0xe>
    66f6:	83 e0       	ldi	r24, 0x03	; 3
    66f8:	80 93 ef 07 	sts	0x07EF, r24	; 0x8007ef <thisps>
    66fc:	63 e0       	ldi	r22, 0x03	; 3
    66fe:	83 e5       	ldi	r24, 0x53	; 83
    6700:	95 e0       	ldi	r25, 0x05	; 5
    6702:	0e 94 b8 24 	call	0x4970	; 0x4970 <change_operating_mode>
    6706:	0e 94 d7 11 	call	0x23ae	; 0x23ae <blink_captionof_barzone_RUNALL>
    670a:	4f e1       	ldi	r20, 0x1F	; 31
    670c:	6f e1       	ldi	r22, 0x1F	; 31
    670e:	8f e1       	ldi	r24, 0x1F	; 31
    6710:	0e 94 02 1c 	call	0x3804	; 0x3804 <ClearFromCenter_GrowingSymmetric>
    6714:	4f ef       	ldi	r20, 0xFF	; 255
    6716:	64 e4       	ldi	r22, 0x44	; 68
    6718:	75 e2       	ldi	r23, 0x25	; 37
    671a:	86 e0       	ldi	r24, 0x06	; 6
    671c:	90 e1       	ldi	r25, 0x10	; 16
    671e:	0e 94 47 25 	call	0x4a8e	; 0x4a8e <ks0108SelectFont>
    6722:	63 e0       	ldi	r22, 0x03	; 3
    6724:	83 e0       	ldi	r24, 0x03	; 3
    6726:	0e 94 da 25 	call	0x4bb4	; 0x4bb4 <ks0108GotoXY>
    672a:	82 ea       	ldi	r24, 0xA2	; 162
    672c:	94 e1       	ldi	r25, 0x14	; 20
    672e:	0e 94 11 2c 	call	0x5822	; 0x5822 <ks0108Puts_P>
    6732:	2c e0       	ldi	r18, 0x0C	; 12
    6734:	4b e3       	ldi	r20, 0x3B	; 59
    6736:	62 e0       	ldi	r22, 0x02	; 2
    6738:	82 e0       	ldi	r24, 0x02	; 2
    673a:	0e 94 57 29 	call	0x52ae	; 0x52ae <ks0108InvertRect>
    673e:	60 e1       	ldi	r22, 0x10	; 16
    6740:	87 e0       	ldi	r24, 0x07	; 7
    6742:	0e 94 da 25 	call	0x4bb4	; 0x4bb4 <ks0108GotoXY>
    6746:	88 e9       	ldi	r24, 0x98	; 152
    6748:	94 e1       	ldi	r25, 0x14	; 20
    674a:	0e 94 11 2c 	call	0x5822	; 0x5822 <ks0108Puts_P>
    674e:	6d e1       	ldi	r22, 0x1D	; 29
    6750:	8f e0       	ldi	r24, 0x0F	; 15
    6752:	0e 94 da 25 	call	0x4bb4	; 0x4bb4 <ks0108GotoXY>
    6756:	82 e9       	ldi	r24, 0x92	; 146
    6758:	94 e1       	ldi	r25, 0x14	; 20
    675a:	0e 94 11 2c 	call	0x5822	; 0x5822 <ks0108Puts_P>
    675e:	0f ef       	ldi	r16, 0xFF	; 255
    6760:	20 e0       	ldi	r18, 0x00	; 0
    6762:	4d e3       	ldi	r20, 0x3D	; 61
    6764:	6e e2       	ldi	r22, 0x2E	; 46
    6766:	81 e0       	ldi	r24, 0x01	; 1
    6768:	0e 94 61 28 	call	0x50c2	; 0x50c2 <ks0108FillRect>
    676c:	00 e0       	ldi	r16, 0x00	; 0
    676e:	2c e0       	ldi	r18, 0x0C	; 12
    6770:	44 e2       	ldi	r20, 0x24	; 36
    6772:	6f e2       	ldi	r22, 0x2F	; 47
    6774:	8a e0       	ldi	r24, 0x0A	; 10
    6776:	0e 94 61 28 	call	0x50c2	; 0x50c2 <ks0108FillRect>
    677a:	65 e3       	ldi	r22, 0x35	; 53
    677c:	8c e0       	ldi	r24, 0x0C	; 12
    677e:	0e 94 90 1d 	call	0x3b20	; 0x3b20 <_DrawUpTriangleState>
    6782:	65 e3       	ldi	r22, 0x35	; 53
    6784:	8b e1       	ldi	r24, 0x1B	; 27
    6786:	0e 94 bd 1d 	call	0x3b7a	; 0x3b7a <_DrawDownTriangleState>
    678a:	62 e3       	ldi	r22, 0x32	; 50
    678c:	82 e3       	ldi	r24, 0x32	; 50
    678e:	0e 94 68 1d 	call	0x3ad0	; 0x3ad0 <_DrawOnOffState>
    6792:	8f ef       	ldi	r24, 0xFF	; 255
    6794:	80 93 f0 07 	sts	0x07F0, r24	; 0x8007f0 <thisps+0x1>
    6798:	10 92 f1 07 	sts	0x07F1, r1	; 0x8007f1 <thisps+0x2>
    679c:	df 91       	pop	r29
    679e:	cf 91       	pop	r28
    67a0:	1f 91       	pop	r17
    67a2:	0f 91       	pop	r16
    67a4:	08 95       	ret

000067a6 <key3_1fmode0_aft>:
    67a6:	61 e0       	ldi	r22, 0x01	; 1
    67a8:	80 e0       	ldi	r24, 0x00	; 0
    67aa:	0e 94 a1 3f 	call	0x7f42	; 0x7f42 <playsound>
    67ae:	0c 94 31 33 	jmp	0x6662	; 0x6662 <_synch_all>

000067b2 <key3_1fmode1>:
    67b2:	e0 91 71 06 	lds	r30, 0x0671	; 0x800671 <dialogbox_nb+0xa>
    67b6:	f0 91 72 06 	lds	r31, 0x0672	; 0x800672 <dialogbox_nb+0xb>
    67ba:	09 95       	icall
    67bc:	80 91 69 06 	lds	r24, 0x0669	; 0x800669 <dialogbox_nb+0x2>
    67c0:	81 11       	cpse	r24, r1
    67c2:	02 c0       	rjmp	.+4      	; 0x67c8 <key3_1fmode1+0x16>
    67c4:	61 e0       	ldi	r22, 0x01	; 1
    67c6:	06 c0       	rjmp	.+12     	; 0x67d4 <key3_1fmode1+0x22>
    67c8:	80 91 69 06 	lds	r24, 0x0669	; 0x800669 <dialogbox_nb+0x2>
    67cc:	81 30       	cpi	r24, 0x01	; 1
    67ce:	21 f4       	brne	.+8      	; 0x67d8 <key3_1fmode1+0x26>
    67d0:	60 e0       	ldi	r22, 0x00	; 0
    67d2:	80 e0       	ldi	r24, 0x00	; 0
    67d4:	0c 94 a1 3f 	jmp	0x7f42	; 0x7f42 <playsound>
    67d8:	08 95       	ret

000067da <key3_1fmode1_aft>:
    67da:	0c 94 d9 33 	jmp	0x67b2	; 0x67b2 <key3_1fmode1>

000067de <key2_1fmode2>:
    67de:	60 e0       	ldi	r22, 0x00	; 0
    67e0:	80 e0       	ldi	r24, 0x00	; 0
    67e2:	0e 94 a1 3f 	call	0x7f42	; 0x7f42 <playsound>
    67e6:	80 91 36 08 	lds	r24, 0x0836	; 0x800836 <ps_scene>
    67ea:	88 23       	and	r24, r24
    67ec:	a1 f0       	breq	.+40     	; 0x6816 <key2_1fmode2+0x38>
    67ee:	10 92 d7 09 	sts	0x09D7, r1	; 0x8009d7 <borrame_counter>
    67f2:	64 e3       	ldi	r22, 0x34	; 52
    67f4:	89 e0       	ldi	r24, 0x09	; 9
    67f6:	0e 94 a2 1e 	call	0x3d44	; 0x3d44 <_draw_triangle_left_solid_white>
    67fa:	10 92 d9 05 	sts	0x05D9, r1	; 0x8005d9 <this_timmer_nb+0x4>
    67fe:	10 92 db 05 	sts	0x05DB, r1	; 0x8005db <this_timmer_nb+0x6>
    6802:	81 e0       	ldi	r24, 0x01	; 1
    6804:	80 93 dc 05 	sts	0x05DC, r24	; 0x8005dc <this_timmer_nb+0x7>
    6808:	80 91 9c 01 	lds	r24, 0x019C	; 0x80019c <previewscene>
    680c:	81 50       	subi	r24, 0x01	; 1
    680e:	80 93 9c 01 	sts	0x019C, r24	; 0x80019c <previewscene>
    6812:	0c 94 53 31 	jmp	0x62a6	; 0x62a6 <_options_preview_scene>
    6816:	08 95       	ret

00006818 <key1_1fmode2>:
    6818:	60 e0       	ldi	r22, 0x00	; 0
    681a:	80 e0       	ldi	r24, 0x00	; 0
    681c:	0e 94 a1 3f 	call	0x7f42	; 0x7f42 <playsound>
    6820:	80 91 36 08 	lds	r24, 0x0836	; 0x800836 <ps_scene>
    6824:	88 23       	and	r24, r24
    6826:	a1 f0       	breq	.+40     	; 0x6850 <key1_1fmode2+0x38>
    6828:	10 92 d7 09 	sts	0x09D7, r1	; 0x8009d7 <borrame_counter>
    682c:	64 e3       	ldi	r22, 0x34	; 52
    682e:	86 e3       	ldi	r24, 0x36	; 54
    6830:	0e 94 c9 1e 	call	0x3d92	; 0x3d92 <_draw_triangle_rigth_solid_white>
    6834:	10 92 d5 05 	sts	0x05D5, r1	; 0x8005d5 <this_timmer_nb>
    6838:	10 92 d7 05 	sts	0x05D7, r1	; 0x8005d7 <this_timmer_nb+0x2>
    683c:	81 e0       	ldi	r24, 0x01	; 1
    683e:	80 93 d8 05 	sts	0x05D8, r24	; 0x8005d8 <this_timmer_nb+0x3>
    6842:	80 91 9c 01 	lds	r24, 0x019C	; 0x80019c <previewscene>
    6846:	8f 5f       	subi	r24, 0xFF	; 255
    6848:	80 93 9c 01 	sts	0x019C, r24	; 0x80019c <previewscene>
    684c:	0c 94 53 31 	jmp	0x62a6	; 0x62a6 <_options_preview_scene>
    6850:	08 95       	ret

00006852 <key3_1fmode0>:
    6852:	08 95       	ret

00006854 <key3_2fmode0>:
    6854:	82 e0       	ldi	r24, 0x02	; 2
    6856:	80 93 10 0a 	sts	0x0A10, r24	; 0x800a10 <shell>
    685a:	ef ee       	ldi	r30, 0xEF	; 239
    685c:	f7 e0       	ldi	r31, 0x07	; 7
    685e:	11 82       	std	Z+1, r1	; 0x01
    6860:	12 82       	std	Z+2, r1	; 0x02
    6862:	83 e0       	ldi	r24, 0x03	; 3
    6864:	80 93 69 08 	sts	0x0869, r24	; 0x800869 <kbhandler_app>
    6868:	61 e0       	ldi	r22, 0x01	; 1
    686a:	80 e0       	ldi	r24, 0x00	; 0
    686c:	0c 94 a1 3f 	jmp	0x7f42	; 0x7f42 <playsound>

00006870 <key2_2fmode0>:
    6870:	80 91 06 08 	lds	r24, 0x0806	; 0x800806 <crossover_scene_zone>
    6874:	82 60       	ori	r24, 0x02	; 2
    6876:	80 93 06 08 	sts	0x0806, r24	; 0x800806 <crossover_scene_zone>
    687a:	81 e0       	ldi	r24, 0x01	; 1
    687c:	80 93 e0 02 	sts	0x02E0, r24	; 0x8002e0 <menu_operational+0x2>
    6880:	80 93 10 0a 	sts	0x0A10, r24	; 0x800a10 <shell>
    6884:	ef ee       	ldi	r30, 0xEF	; 239
    6886:	f7 e0       	ldi	r31, 0x07	; 7
    6888:	11 82       	std	Z+1, r1	; 0x01
    688a:	12 82       	std	Z+2, r1	; 0x02
    688c:	83 e0       	ldi	r24, 0x03	; 3
    688e:	80 93 69 08 	sts	0x0869, r24	; 0x800869 <kbhandler_app>
    6892:	61 e0       	ldi	r22, 0x01	; 1
    6894:	80 e0       	ldi	r24, 0x00	; 0
    6896:	0c 94 a1 3f 	jmp	0x7f42	; 0x7f42 <playsound>

0000689a <_anyzone_isnt_zero>:
    689a:	cf 93       	push	r28
    689c:	c0 e0       	ldi	r28, 0x00	; 0
    689e:	8c 2f       	mov	r24, r28
    68a0:	0e 94 7c 0d 	call	0x1af8	; 0x1af8 <if_fadingactive_nextdc_else_dc>
    68a4:	89 2b       	or	r24, r25
    68a6:	29 f4       	brne	.+10     	; 0x68b2 <_anyzone_isnt_zero+0x18>
    68a8:	cf 5f       	subi	r28, 0xFF	; 255
    68aa:	c6 30       	cpi	r28, 0x06	; 6
    68ac:	c1 f7       	brne	.-16     	; 0x689e <_anyzone_isnt_zero+0x4>
    68ae:	80 e0       	ldi	r24, 0x00	; 0
    68b0:	01 c0       	rjmp	.+2      	; 0x68b4 <_anyzone_isnt_zero+0x1a>
    68b2:	81 e0       	ldi	r24, 0x01	; 1
    68b4:	cf 91       	pop	r28
    68b6:	08 95       	ret

000068b8 <key2_1fmode0>:
    68b8:	df 92       	push	r13
    68ba:	ef 92       	push	r14
    68bc:	ff 92       	push	r15
    68be:	0f 93       	push	r16
    68c0:	1f 93       	push	r17
    68c2:	cf 93       	push	r28
    68c4:	df 93       	push	r29
    68c6:	0e 94 b5 1b 	call	0x376a	; 0x376a <is_fadingprocess_allzone_finish>
    68ca:	88 23       	and	r24, r24
    68cc:	09 f4       	brne	.+2      	; 0x68d0 <key2_1fmode0+0x18>
    68ce:	d2 c0       	rjmp	.+420    	; 0x6a74 <key2_1fmode0+0x1bc>
    68d0:	0e 94 4d 34 	call	0x689a	; 0x689a <_anyzone_isnt_zero>
    68d4:	88 23       	and	r24, r24
    68d6:	09 f4       	brne	.+2      	; 0x68da <key2_1fmode0+0x22>
    68d8:	55 c0       	rjmp	.+170    	; 0x6984 <key2_1fmode0+0xcc>
    68da:	60 e0       	ldi	r22, 0x00	; 0
    68dc:	80 e0       	ldi	r24, 0x00	; 0
    68de:	0e 94 a1 3f 	call	0x7f42	; 0x7f42 <playsound>
    68e2:	0e 94 0a 17 	call	0x2e14	; 0x2e14 <_all_dcs_of_currentscene__lessequalthan_threshold>
    68e6:	88 23       	and	r24, r24
    68e8:	01 f1       	breq	.+64     	; 0x692a <key2_1fmode0+0x72>
    68ea:	c0 e0       	ldi	r28, 0x00	; 0
    68ec:	d0 e0       	ldi	r29, 0x00	; 0
    68ee:	14 e2       	ldi	r17, 0x24	; 36
    68f0:	1c 9f       	mul	r17, r28
    68f2:	c0 01       	movw	r24, r0
    68f4:	1d 9f       	mul	r17, r29
    68f6:	90 0d       	add	r25, r0
    68f8:	11 24       	eor	r1, r1
    68fa:	fc 01       	movw	r30, r24
    68fc:	e5 58       	subi	r30, 0x85	; 133
    68fe:	f5 4f       	sbci	r31, 0xF5	; 245
    6900:	20 81       	ld	r18, Z
    6902:	2e 7f       	andi	r18, 0xFE	; 254
    6904:	20 83       	st	Z, r18
    6906:	fc 01       	movw	r30, r24
    6908:	ee 59       	subi	r30, 0x9E	; 158
    690a:	f5 4f       	sbci	r31, 0xF5	; 245
    690c:	80 a1       	ldd	r24, Z+32	; 0x20
    690e:	81 11       	cpse	r24, r1
    6910:	04 c0       	rjmp	.+8      	; 0x691a <key2_1fmode0+0x62>
    6912:	8c 2f       	mov	r24, r28
    6914:	0e 94 c7 0e 	call	0x1d8e	; 0x1d8e <RestoreOnOff_mode1>
    6918:	03 c0       	rjmp	.+6      	; 0x6920 <key2_1fmode0+0x68>
    691a:	8c 2f       	mov	r24, r28
    691c:	0e 94 24 10 	call	0x2048	; 0x2048 <RestoreOnOff_mode2>
    6920:	21 96       	adiw	r28, 0x01	; 1
    6922:	c6 30       	cpi	r28, 0x06	; 6
    6924:	d1 05       	cpc	r29, r1
    6926:	21 f7       	brne	.-56     	; 0x68f0 <key2_1fmode0+0x38>
    6928:	a5 c0       	rjmp	.+330    	; 0x6a74 <key2_1fmode0+0x1bc>
    692a:	80 e0       	ldi	r24, 0x00	; 0
    692c:	90 e0       	ldi	r25, 0x00	; 0
    692e:	14 e2       	ldi	r17, 0x24	; 36
    6930:	ec 01       	movw	r28, r24
    6932:	21 96       	adiw	r28, 0x01	; 1
    6934:	fe 01       	movw	r30, r28
    6936:	ee 0f       	add	r30, r30
    6938:	ff 1f       	adc	r31, r31
    693a:	e8 5d       	subi	r30, 0xD8	; 216
    693c:	f7 4f       	sbci	r31, 0xF7	; 247
    693e:	40 81       	ld	r20, Z
    6940:	51 81       	ldd	r21, Z+1	; 0x01
    6942:	18 9f       	mul	r17, r24
    6944:	f0 01       	movw	r30, r0
    6946:	19 9f       	mul	r17, r25
    6948:	f0 0d       	add	r31, r0
    694a:	11 24       	eor	r1, r1
    694c:	df 01       	movw	r26, r30
    694e:	ae 59       	subi	r26, 0x9E	; 158
    6950:	b5 4f       	sbci	r27, 0xF5	; 245
    6952:	5d 96       	adiw	r26, 0x1d	; 29
    6954:	2d 91       	ld	r18, X+
    6956:	3c 91       	ld	r19, X
    6958:	5e 97       	sbiw	r26, 0x1e	; 30
    695a:	24 17       	cp	r18, r20
    695c:	35 07       	cpc	r19, r21
    695e:	70 f4       	brcc	.+28     	; 0x697c <key2_1fmode0+0xc4>
    6960:	e5 58       	subi	r30, 0x85	; 133
    6962:	f5 4f       	sbci	r31, 0xF5	; 245
    6964:	20 81       	ld	r18, Z
    6966:	2e 7f       	andi	r18, 0xFE	; 254
    6968:	20 83       	st	Z, r18
    696a:	90 96       	adiw	r26, 0x20	; 32
    696c:	2c 91       	ld	r18, X
    696e:	21 11       	cpse	r18, r1
    6970:	03 c0       	rjmp	.+6      	; 0x6978 <key2_1fmode0+0xc0>
    6972:	0e 94 c7 0e 	call	0x1d8e	; 0x1d8e <RestoreOnOff_mode1>
    6976:	02 c0       	rjmp	.+4      	; 0x697c <key2_1fmode0+0xc4>
    6978:	0e 94 24 10 	call	0x2048	; 0x2048 <RestoreOnOff_mode2>
    697c:	ce 01       	movw	r24, r28
    697e:	26 97       	sbiw	r28, 0x06	; 6
    6980:	b9 f6       	brne	.-82     	; 0x6930 <key2_1fmode0+0x78>
    6982:	78 c0       	rjmp	.+240    	; 0x6a74 <key2_1fmode0+0x1bc>
    6984:	0e 94 0a 17 	call	0x2e14	; 0x2e14 <_all_dcs_of_currentscene__lessequalthan_threshold>
    6988:	c0 e0       	ldi	r28, 0x00	; 0
    698a:	d0 e0       	ldi	r29, 0x00	; 0
    698c:	88 23       	and	r24, r24
    698e:	b9 f1       	breq	.+110    	; 0x69fe <key2_1fmode0+0x146>
    6990:	24 e2       	ldi	r18, 0x24	; 36
    6992:	f2 2e       	mov	r15, r18
    6994:	fc 9e       	mul	r15, r28
    6996:	80 01       	movw	r16, r0
    6998:	fd 9e       	mul	r15, r29
    699a:	10 0d       	add	r17, r0
    699c:	11 24       	eor	r1, r1
    699e:	f8 01       	movw	r30, r16
    69a0:	e5 58       	subi	r30, 0x85	; 133
    69a2:	f5 4f       	sbci	r31, 0xF5	; 245
    69a4:	80 81       	ld	r24, Z
    69a6:	8e 7f       	andi	r24, 0xFE	; 254
    69a8:	80 83       	st	Z, r24
    69aa:	80 91 01 01 	lds	r24, 0x0101	; 0x800101 <NUM_ELEM_DENTRO_BAR>
    69ae:	60 91 00 01 	lds	r22, 0x0100	; 0x800100 <__DATA_REGION_ORIGIN__>
    69b2:	86 9f       	mul	r24, r22
    69b4:	b0 01       	movw	r22, r0
    69b6:	11 24       	eor	r1, r1
    69b8:	8c 2f       	mov	r24, r28
    69ba:	0e 94 8e 0d 	call	0x1b1c	; 0x1b1c <setting_preupdate_dc>
    69be:	8c 2f       	mov	r24, r28
    69c0:	0e 94 a7 0d 	call	0x1b4e	; 0x1b4e <updatedc_acctypeofload>
    69c4:	0e 59       	subi	r16, 0x9E	; 158
    69c6:	15 4f       	sbci	r17, 0xF5	; 245
    69c8:	f8 01       	movw	r30, r16
    69ca:	86 81       	ldd	r24, Z+6	; 0x06
    69cc:	81 11       	cpse	r24, r1
    69ce:	12 c0       	rjmp	.+36     	; 0x69f4 <key2_1fmode0+0x13c>
    69d0:	80 91 01 01 	lds	r24, 0x0101	; 0x800101 <NUM_ELEM_DENTRO_BAR>
    69d4:	60 91 00 01 	lds	r22, 0x0100	; 0x800100 <__DATA_REGION_ORIGIN__>
    69d8:	86 9f       	mul	r24, r22
    69da:	b0 01       	movw	r22, r0
    69dc:	11 24       	eor	r1, r1
    69de:	40 e0       	ldi	r20, 0x00	; 0
    69e0:	8c 2f       	mov	r24, r28
    69e2:	0e 94 57 1f 	call	0x3eae	; 0x3eae <direct_fillclear_barlevel>
    69e6:	f8 01       	movw	r30, r16
    69e8:	60 85       	ldd	r22, Z+8	; 0x08
    69ea:	71 85       	ldd	r23, Z+9	; 0x09
    69ec:	4f ef       	ldi	r20, 0xFF	; 255
    69ee:	8c 2f       	mov	r24, r28
    69f0:	0e 94 57 1f 	call	0x3eae	; 0x3eae <direct_fillclear_barlevel>
    69f4:	21 96       	adiw	r28, 0x01	; 1
    69f6:	c6 30       	cpi	r28, 0x06	; 6
    69f8:	d1 05       	cpc	r29, r1
    69fa:	61 f6       	brne	.-104    	; 0x6994 <key2_1fmode0+0xdc>
    69fc:	3b c0       	rjmp	.+118    	; 0x6a74 <key2_1fmode0+0x1bc>
    69fe:	94 e2       	ldi	r25, 0x24	; 36
    6a00:	d9 2e       	mov	r13, r25
    6a02:	dc 9e       	mul	r13, r28
    6a04:	70 01       	movw	r14, r0
    6a06:	dd 9e       	mul	r13, r29
    6a08:	f0 0c       	add	r15, r0
    6a0a:	11 24       	eor	r1, r1
    6a0c:	f7 01       	movw	r30, r14
    6a0e:	e5 58       	subi	r30, 0x85	; 133
    6a10:	f5 4f       	sbci	r31, 0xF5	; 245
    6a12:	80 81       	ld	r24, Z
    6a14:	8e 7f       	andi	r24, 0xFE	; 254
    6a16:	80 83       	st	Z, r24
    6a18:	8e 01       	movw	r16, r28
    6a1a:	0f 5f       	subi	r16, 0xFF	; 255
    6a1c:	1f 4f       	sbci	r17, 0xFF	; 255
    6a1e:	f8 01       	movw	r30, r16
    6a20:	ee 0f       	add	r30, r30
    6a22:	ff 1f       	adc	r31, r31
    6a24:	e8 5d       	subi	r30, 0xD8	; 216
    6a26:	f7 4f       	sbci	r31, 0xF7	; 247
    6a28:	60 81       	ld	r22, Z
    6a2a:	71 81       	ldd	r23, Z+1	; 0x01
    6a2c:	8c 2f       	mov	r24, r28
    6a2e:	0e 94 8e 0d 	call	0x1b1c	; 0x1b1c <setting_preupdate_dc>
    6a32:	8c 2f       	mov	r24, r28
    6a34:	0e 94 a7 0d 	call	0x1b4e	; 0x1b4e <updatedc_acctypeofload>
    6a38:	c7 01       	movw	r24, r14
    6a3a:	8e 59       	subi	r24, 0x9E	; 158
    6a3c:	95 4f       	sbci	r25, 0xF5	; 245
    6a3e:	7c 01       	movw	r14, r24
    6a40:	fc 01       	movw	r30, r24
    6a42:	86 81       	ldd	r24, Z+6	; 0x06
    6a44:	81 11       	cpse	r24, r1
    6a46:	12 c0       	rjmp	.+36     	; 0x6a6c <key2_1fmode0+0x1b4>
    6a48:	80 91 01 01 	lds	r24, 0x0101	; 0x800101 <NUM_ELEM_DENTRO_BAR>
    6a4c:	60 91 00 01 	lds	r22, 0x0100	; 0x800100 <__DATA_REGION_ORIGIN__>
    6a50:	86 9f       	mul	r24, r22
    6a52:	b0 01       	movw	r22, r0
    6a54:	11 24       	eor	r1, r1
    6a56:	40 e0       	ldi	r20, 0x00	; 0
    6a58:	8c 2f       	mov	r24, r28
    6a5a:	0e 94 57 1f 	call	0x3eae	; 0x3eae <direct_fillclear_barlevel>
    6a5e:	f7 01       	movw	r30, r14
    6a60:	60 85       	ldd	r22, Z+8	; 0x08
    6a62:	71 85       	ldd	r23, Z+9	; 0x09
    6a64:	4f ef       	ldi	r20, 0xFF	; 255
    6a66:	8c 2f       	mov	r24, r28
    6a68:	0e 94 57 1f 	call	0x3eae	; 0x3eae <direct_fillclear_barlevel>
    6a6c:	e8 01       	movw	r28, r16
    6a6e:	06 30       	cpi	r16, 0x06	; 6
    6a70:	11 05       	cpc	r17, r1
    6a72:	39 f6       	brne	.-114    	; 0x6a02 <key2_1fmode0+0x14a>
    6a74:	df 91       	pop	r29
    6a76:	cf 91       	pop	r28
    6a78:	1f 91       	pop	r17
    6a7a:	0f 91       	pop	r16
    6a7c:	ff 90       	pop	r15
    6a7e:	ef 90       	pop	r14
    6a80:	df 90       	pop	r13
    6a82:	08 95       	ret

00006a84 <Timmer_TimmingToBackScene>:
    6a84:	90 91 d6 09 	lds	r25, 0x09D6	; 0x8009d6 <borrame_start>
    6a88:	91 30       	cpi	r25, 0x01	; 1
    6a8a:	59 f4       	brne	.+22     	; 0x6aa2 <Timmer_TimmingToBackScene+0x1e>
    6a8c:	80 91 f2 07 	lds	r24, 0x07F2	; 0x8007f2 <borrame>
    6a90:	8f 5f       	subi	r24, 0xFF	; 255
    6a92:	80 93 f2 07 	sts	0x07F2, r24	; 0x8007f2 <borrame>
    6a96:	88 3c       	cpi	r24, 0xC8	; 200
    6a98:	20 f0       	brcs	.+8      	; 0x6aa2 <Timmer_TimmingToBackScene+0x1e>
    6a9a:	10 92 f2 07 	sts	0x07F2, r1	; 0x8007f2 <borrame>
    6a9e:	90 93 d5 09 	sts	0x09D5, r25	; 0x8009d5 <borrame_flag>
    6aa2:	08 95       	ret

00006aa4 <_borrame_timming>:
    6aa4:	80 91 d6 09 	lds	r24, 0x09D6	; 0x8009d6 <borrame_start>
    6aa8:	81 30       	cpi	r24, 0x01	; 1
    6aaa:	79 f5       	brne	.+94     	; 0x6b0a <_borrame_timming+0x66>
    6aac:	80 91 d5 09 	lds	r24, 0x09D5	; 0x8009d5 <borrame_flag>
    6ab0:	81 30       	cpi	r24, 0x01	; 1
    6ab2:	59 f5       	brne	.+86     	; 0x6b0a <_borrame_timming+0x66>
    6ab4:	10 92 d5 09 	sts	0x09D5, r1	; 0x8009d5 <borrame_flag>
    6ab8:	80 91 d7 09 	lds	r24, 0x09D7	; 0x8009d7 <borrame_counter>
    6abc:	8f 5f       	subi	r24, 0xFF	; 255
    6abe:	80 93 d7 09 	sts	0x09D7, r24	; 0x8009d7 <borrame_counter>
    6ac2:	85 30       	cpi	r24, 0x05	; 5
    6ac4:	10 f1       	brcs	.+68     	; 0x6b0a <_borrame_timming+0x66>
    6ac6:	10 92 d6 09 	sts	0x09D6, r1	; 0x8009d6 <borrame_start>
    6aca:	10 92 d7 09 	sts	0x09D7, r1	; 0x8009d7 <borrame_counter>
    6ace:	4f e1       	ldi	r20, 0x1F	; 31
    6ad0:	6f e1       	ldi	r22, 0x1F	; 31
    6ad2:	8f e1       	ldi	r24, 0x1F	; 31
    6ad4:	0e 94 02 1c 	call	0x3804	; 0x3804 <ClearFromCenter_GrowingSymmetric>
    6ad8:	0e 94 61 32 	call	0x64c2	; 0x64c2 <_show_the_scene>
    6adc:	80 91 28 08 	lds	r24, 0x0828	; 0x800828 <currentscene>
    6ae0:	8f 3f       	cpi	r24, 0xFF	; 255
    6ae2:	29 f0       	breq	.+10     	; 0x6aee <_borrame_timming+0x4a>
    6ae4:	80 91 28 08 	lds	r24, 0x0828	; 0x800828 <currentscene>
    6ae8:	80 93 9c 01 	sts	0x019C, r24	; 0x80019c <previewscene>
    6aec:	02 c0       	rjmp	.+4      	; 0x6af2 <_borrame_timming+0x4e>
    6aee:	10 92 9c 01 	sts	0x019C, r1	; 0x80019c <previewscene>
    6af2:	10 92 ef 07 	sts	0x07EF, r1	; 0x8007ef <thisps>
    6af6:	60 e0       	ldi	r22, 0x00	; 0
    6af8:	83 e5       	ldi	r24, 0x53	; 83
    6afa:	95 e0       	ldi	r25, 0x05	; 5
    6afc:	0e 94 b8 24 	call	0x4970	; 0x4970 <change_operating_mode>
    6b00:	8f ef       	ldi	r24, 0xFF	; 255
    6b02:	80 93 f0 07 	sts	0x07F0, r24	; 0x8007f0 <thisps+0x1>
    6b06:	10 92 f1 07 	sts	0x07F1, r1	; 0x8007f1 <thisps+0x2>
    6b0a:	08 95       	ret

00006b0c <scene_handler>:
    6b0c:	0f 93       	push	r16
    6b0e:	1f 93       	push	r17
    6b10:	cf 93       	push	r28
    6b12:	df 93       	push	r29
    6b14:	80 91 f0 07 	lds	r24, 0x07F0	; 0x8007f0 <thisps+0x1>
    6b18:	81 11       	cpse	r24, r1
    6b1a:	33 c1       	rjmp	.+614    	; 0x6d82 <scene_handler+0x276>
    6b1c:	80 91 f1 07 	lds	r24, 0x07F1	; 0x8007f1 <thisps+0x2>
    6b20:	81 11       	cpse	r24, r1
    6b22:	2a c1       	rjmp	.+596    	; 0x6d78 <scene_handler+0x26c>
    6b24:	81 e0       	ldi	r24, 0x01	; 1
    6b26:	80 93 f1 07 	sts	0x07F1, r24	; 0x8007f1 <thisps+0x2>
    6b2a:	80 91 37 08 	lds	r24, 0x0837	; 0x800837 <ps_fading_inbk>
    6b2e:	84 60       	ori	r24, 0x04	; 4
    6b30:	80 93 37 08 	sts	0x0837, r24	; 0x800837 <ps_fading_inbk>
    6b34:	80 e0       	ldi	r24, 0x00	; 0
    6b36:	90 e0       	ldi	r25, 0x00	; 0
    6b38:	24 e2       	ldi	r18, 0x24	; 36
    6b3a:	28 9f       	mul	r18, r24
    6b3c:	f0 01       	movw	r30, r0
    6b3e:	29 9f       	mul	r18, r25
    6b40:	f0 0d       	add	r31, r0
    6b42:	11 24       	eor	r1, r1
    6b44:	ee 59       	subi	r30, 0x9E	; 158
    6b46:	f5 4f       	sbci	r31, 0xF5	; 245
    6b48:	32 8d       	ldd	r19, Z+26	; 0x1a
    6b4a:	31 30       	cpi	r19, 0x01	; 1
    6b4c:	09 f4       	brne	.+2      	; 0x6b50 <scene_handler+0x44>
    6b4e:	12 8e       	std	Z+26, r1	; 0x1a
    6b50:	01 96       	adiw	r24, 0x01	; 1
    6b52:	86 30       	cpi	r24, 0x06	; 6
    6b54:	91 05       	cpc	r25, r1
    6b56:	89 f7       	brne	.-30     	; 0x6b3a <scene_handler+0x2e>
    6b58:	80 91 06 08 	lds	r24, 0x0806	; 0x800806 <crossover_scene_zone>
    6b5c:	80 fd       	sbrc	r24, 0
    6b5e:	2f c0       	rjmp	.+94     	; 0x6bbe <scene_handler+0xb2>
    6b60:	00 e0       	ldi	r16, 0x00	; 0
    6b62:	2f e3       	ldi	r18, 0x3F	; 63
    6b64:	4f eb       	ldi	r20, 0xBF	; 191
    6b66:	60 e0       	ldi	r22, 0x00	; 0
    6b68:	80 e0       	ldi	r24, 0x00	; 0
    6b6a:	0e 94 61 28 	call	0x50c2	; 0x50c2 <ks0108FillRect>
    6b6e:	0f ef       	ldi	r16, 0xFF	; 255
    6b70:	2f e3       	ldi	r18, 0x3F	; 63
    6b72:	4f e3       	ldi	r20, 0x3F	; 63
    6b74:	60 e0       	ldi	r22, 0x00	; 0
    6b76:	80 e0       	ldi	r24, 0x00	; 0
    6b78:	0e 94 f4 28 	call	0x51e8	; 0x51e8 <ks0108DrawRect>
    6b7c:	2f e3       	ldi	r18, 0x3F	; 63
    6b7e:	4e e7       	ldi	r20, 0x7E	; 126
    6b80:	60 e0       	ldi	r22, 0x00	; 0
    6b82:	81 e4       	ldi	r24, 0x41	; 65
    6b84:	0e 94 f4 28 	call	0x51e8	; 0x51e8 <ks0108DrawRect>
    6b88:	0e 94 fc 1c 	call	0x39f8	; 0x39f8 <CaptionOfAllZones>
    6b8c:	0e 94 c8 1c 	call	0x3990	; 0x3990 <DrawBarsVertOfAllZones>
    6b90:	0e 94 a7 1f 	call	0x3f4e	; 0x3f4e <_write_display_threshold_allzone>
    6b94:	c0 e0       	ldi	r28, 0x00	; 0
    6b96:	d0 e0       	ldi	r29, 0x00	; 0
    6b98:	14 e2       	ldi	r17, 0x24	; 36
    6b9a:	1c 9f       	mul	r17, r28
    6b9c:	f0 01       	movw	r30, r0
    6b9e:	1d 9f       	mul	r17, r29
    6ba0:	f0 0d       	add	r31, r0
    6ba2:	11 24       	eor	r1, r1
    6ba4:	ee 59       	subi	r30, 0x9E	; 158
    6ba6:	f5 4f       	sbci	r31, 0xF5	; 245
    6ba8:	60 85       	ldd	r22, Z+8	; 0x08
    6baa:	71 85       	ldd	r23, Z+9	; 0x09
    6bac:	4f ef       	ldi	r20, 0xFF	; 255
    6bae:	8c 2f       	mov	r24, r28
    6bb0:	0e 94 57 1f 	call	0x3eae	; 0x3eae <direct_fillclear_barlevel>
    6bb4:	21 96       	adiw	r28, 0x01	; 1
    6bb6:	c6 30       	cpi	r28, 0x06	; 6
    6bb8:	d1 05       	cpc	r29, r1
    6bba:	79 f7       	brne	.-34     	; 0x6b9a <scene_handler+0x8e>
    6bbc:	03 c0       	rjmp	.+6      	; 0x6bc4 <scene_handler+0xb8>
    6bbe:	8e 7f       	andi	r24, 0xFE	; 254
    6bc0:	80 93 06 08 	sts	0x0806, r24	; 0x800806 <crossover_scene_zone>
    6bc4:	0e 94 cd 10 	call	0x219a	; 0x219a <_all_current_dcs_are_lessequalthan_threshold>
    6bc8:	81 11       	cpse	r24, r1
    6bca:	36 c0       	rjmp	.+108    	; 0x6c38 <scene_handler+0x12c>
    6bcc:	0e 94 0a 17 	call	0x2e14	; 0x2e14 <_all_dcs_of_currentscene__lessequalthan_threshold>
    6bd0:	88 23       	and	r24, r24
    6bd2:	51 f0       	breq	.+20     	; 0x6be8 <scene_handler+0xdc>
    6bd4:	0e 94 4a 17 	call	0x2e94	; 0x2e94 <_all_dcs_of_objzone__equalthan_100porcent>
    6bd8:	81 11       	cpse	r24, r1
    6bda:	b1 c0       	rjmp	.+354    	; 0x6d3e <scene_handler+0x232>
    6bdc:	0e 94 f5 16 	call	0x2dea	; 0x2dea <_all_dcs_taked_as_currentscene>
    6be0:	8f ef       	ldi	r24, 0xFF	; 255
    6be2:	80 93 28 08 	sts	0x0828, r24	; 0x800828 <currentscene>
    6be6:	ab c0       	rjmp	.+342    	; 0x6d3e <scene_handler+0x232>
    6be8:	0e 94 2b 17 	call	0x2e56	; 0x2e56 <_all_dcs_of_currentscene__areequalthan_current_dcs>
    6bec:	81 11       	cpse	r24, r1
    6bee:	a7 c0       	rjmp	.+334    	; 0x6d3e <scene_handler+0x232>
    6bf0:	0e 94 f5 16 	call	0x2dea	; 0x2dea <_all_dcs_taked_as_currentscene>
    6bf4:	8f ef       	ldi	r24, 0xFF	; 255
    6bf6:	80 93 28 08 	sts	0x0828, r24	; 0x800828 <currentscene>
    6bfa:	80 91 6e 0a 	lds	r24, 0x0A6E	; 0x800a6e <objzone+0xc>
    6bfe:	8e 7f       	andi	r24, 0xFE	; 254
    6c00:	80 93 6e 0a 	sts	0x0A6E, r24	; 0x800a6e <objzone+0xc>
    6c04:	80 91 92 0a 	lds	r24, 0x0A92	; 0x800a92 <objzone+0x30>
    6c08:	8e 7f       	andi	r24, 0xFE	; 254
    6c0a:	80 93 92 0a 	sts	0x0A92, r24	; 0x800a92 <objzone+0x30>
    6c0e:	80 91 b6 0a 	lds	r24, 0x0AB6	; 0x800ab6 <objzone+0x54>
    6c12:	8e 7f       	andi	r24, 0xFE	; 254
    6c14:	80 93 b6 0a 	sts	0x0AB6, r24	; 0x800ab6 <objzone+0x54>
    6c18:	80 91 da 0a 	lds	r24, 0x0ADA	; 0x800ada <objzone+0x78>
    6c1c:	8e 7f       	andi	r24, 0xFE	; 254
    6c1e:	80 93 da 0a 	sts	0x0ADA, r24	; 0x800ada <objzone+0x78>
    6c22:	80 91 fe 0a 	lds	r24, 0x0AFE	; 0x800afe <objzone+0x9c>
    6c26:	8e 7f       	andi	r24, 0xFE	; 254
    6c28:	80 93 fe 0a 	sts	0x0AFE, r24	; 0x800afe <objzone+0x9c>
    6c2c:	80 91 22 0b 	lds	r24, 0x0B22	; 0x800b22 <objzone+0xc0>
    6c30:	8e 7f       	andi	r24, 0xFE	; 254
    6c32:	80 93 22 0b 	sts	0x0B22, r24	; 0x800b22 <objzone+0xc0>
    6c36:	83 c0       	rjmp	.+262    	; 0x6d3e <scene_handler+0x232>
    6c38:	0e 94 0a 17 	call	0x2e14	; 0x2e14 <_all_dcs_of_currentscene__lessequalthan_threshold>
    6c3c:	88 23       	and	r24, r24
    6c3e:	c9 f1       	breq	.+114    	; 0x6cb2 <scene_handler+0x1a6>
    6c40:	0e 94 ed 10 	call	0x21da	; 0x21da <_all_zones_have_pto_rstr_OFF>
    6c44:	81 11       	cpse	r24, r1
    6c46:	7b c0       	rjmp	.+246    	; 0x6d3e <scene_handler+0x232>
    6c48:	80 e0       	ldi	r24, 0x00	; 0
    6c4a:	90 e0       	ldi	r25, 0x00	; 0
    6c4c:	44 e2       	ldi	r20, 0x24	; 36
    6c4e:	5f ef       	ldi	r21, 0xFF	; 255
    6c50:	48 9f       	mul	r20, r24
    6c52:	f0 01       	movw	r30, r0
    6c54:	49 9f       	mul	r20, r25
    6c56:	f0 0d       	add	r31, r0
    6c58:	11 24       	eor	r1, r1
    6c5a:	df 01       	movw	r26, r30
    6c5c:	a2 59       	subi	r26, 0x92	; 146
    6c5e:	b5 4f       	sbci	r27, 0xF5	; 245
    6c60:	2c 91       	ld	r18, X
    6c62:	01 96       	adiw	r24, 0x01	; 1
    6c64:	20 ff       	sbrs	r18, 0
    6c66:	1a c0       	rjmp	.+52     	; 0x6c9c <scene_handler+0x190>
    6c68:	ee 59       	subi	r30, 0x9E	; 158
    6c6a:	f5 4f       	sbci	r31, 0xF5	; 245
    6c6c:	62 85       	ldd	r22, Z+10	; 0x0a
    6c6e:	73 85       	ldd	r23, Z+11	; 0x0b
    6c70:	20 91 01 01 	lds	r18, 0x0101	; 0x800101 <NUM_ELEM_DENTRO_BAR>
    6c74:	30 91 00 01 	lds	r19, 0x0100	; 0x800100 <__DATA_REGION_ORIGIN__>
    6c78:	23 9f       	mul	r18, r19
    6c7a:	90 01       	movw	r18, r0
    6c7c:	11 24       	eor	r1, r1
    6c7e:	62 17       	cp	r22, r18
    6c80:	73 07       	cpc	r23, r19
    6c82:	98 f4       	brcc	.+38     	; 0x6caa <scene_handler+0x19e>
    6c84:	50 93 28 08 	sts	0x0828, r21	; 0x800828 <currentscene>
    6c88:	22 85       	ldd	r18, Z+10	; 0x0a
    6c8a:	33 85       	ldd	r19, Z+11	; 0x0b
    6c8c:	fc 01       	movw	r30, r24
    6c8e:	ee 0f       	add	r30, r30
    6c90:	ff 1f       	adc	r31, r31
    6c92:	e8 5d       	subi	r30, 0xD8	; 216
    6c94:	f7 4f       	sbci	r31, 0xF7	; 247
    6c96:	31 83       	std	Z+1, r19	; 0x01
    6c98:	20 83       	st	Z, r18
    6c9a:	07 c0       	rjmp	.+14     	; 0x6caa <scene_handler+0x19e>
    6c9c:	fc 01       	movw	r30, r24
    6c9e:	ee 0f       	add	r30, r30
    6ca0:	ff 1f       	adc	r31, r31
    6ca2:	e8 5d       	subi	r30, 0xD8	; 216
    6ca4:	f7 4f       	sbci	r31, 0xF7	; 247
    6ca6:	11 82       	std	Z+1, r1	; 0x01
    6ca8:	10 82       	st	Z, r1
    6caa:	86 30       	cpi	r24, 0x06	; 6
    6cac:	91 05       	cpc	r25, r1
    6cae:	81 f6       	brne	.-96     	; 0x6c50 <scene_handler+0x144>
    6cb0:	46 c0       	rjmp	.+140    	; 0x6d3e <scene_handler+0x232>
    6cb2:	0e 94 ed 10 	call	0x21da	; 0x21da <_all_zones_have_pto_rstr_OFF>
    6cb6:	81 11       	cpse	r24, r1
    6cb8:	42 c0       	rjmp	.+132    	; 0x6d3e <scene_handler+0x232>
    6cba:	80 e0       	ldi	r24, 0x00	; 0
    6cbc:	90 e0       	ldi	r25, 0x00	; 0
    6cbe:	64 e2       	ldi	r22, 0x24	; 36
    6cc0:	7f ef       	ldi	r23, 0xFF	; 255
    6cc2:	68 9f       	mul	r22, r24
    6cc4:	a0 01       	movw	r20, r0
    6cc6:	69 9f       	mul	r22, r25
    6cc8:	50 0d       	add	r21, r0
    6cca:	11 24       	eor	r1, r1
    6ccc:	fa 01       	movw	r30, r20
    6cce:	e2 59       	subi	r30, 0x92	; 146
    6cd0:	f5 4f       	sbci	r31, 0xF5	; 245
    6cd2:	e0 81       	ld	r30, Z
    6cd4:	9c 01       	movw	r18, r24
    6cd6:	2f 5f       	subi	r18, 0xFF	; 255
    6cd8:	3f 4f       	sbci	r19, 0xFF	; 255
    6cda:	e0 ff       	sbrs	r30, 0
    6cdc:	25 c0       	rjmp	.+74     	; 0x6d28 <scene_handler+0x21c>
    6cde:	f9 01       	movw	r30, r18
    6ce0:	ee 0f       	add	r30, r30
    6ce2:	ff 1f       	adc	r31, r31
    6ce4:	e8 5d       	subi	r30, 0xD8	; 216
    6ce6:	f7 4f       	sbci	r31, 0xF7	; 247
    6ce8:	01 90       	ld	r0, Z+
    6cea:	f0 81       	ld	r31, Z
    6cec:	e0 2d       	mov	r30, r0
    6cee:	da 01       	movw	r26, r20
    6cf0:	ae 59       	subi	r26, 0x9E	; 158
    6cf2:	b5 4f       	sbci	r27, 0xF5	; 245
    6cf4:	1a 96       	adiw	r26, 0x0a	; 10
    6cf6:	4d 91       	ld	r20, X+
    6cf8:	5c 91       	ld	r21, X
    6cfa:	1b 97       	sbiw	r26, 0x0b	; 11
    6cfc:	e4 17       	cp	r30, r20
    6cfe:	f5 07       	cpc	r31, r21
    6d00:	11 f0       	breq	.+4      	; 0x6d06 <scene_handler+0x1fa>
    6d02:	70 93 28 08 	sts	0x0828, r23	; 0x800828 <currentscene>
    6d06:	68 9f       	mul	r22, r24
    6d08:	f0 01       	movw	r30, r0
    6d0a:	69 9f       	mul	r22, r25
    6d0c:	f0 0d       	add	r31, r0
    6d0e:	11 24       	eor	r1, r1
    6d10:	ee 59       	subi	r30, 0x9E	; 158
    6d12:	f5 4f       	sbci	r31, 0xF5	; 245
    6d14:	82 85       	ldd	r24, Z+10	; 0x0a
    6d16:	93 85       	ldd	r25, Z+11	; 0x0b
    6d18:	f9 01       	movw	r30, r18
    6d1a:	ee 0f       	add	r30, r30
    6d1c:	ff 1f       	adc	r31, r31
    6d1e:	e8 5d       	subi	r30, 0xD8	; 216
    6d20:	f7 4f       	sbci	r31, 0xF7	; 247
    6d22:	91 83       	std	Z+1, r25	; 0x01
    6d24:	80 83       	st	Z, r24
    6d26:	07 c0       	rjmp	.+14     	; 0x6d36 <scene_handler+0x22a>
    6d28:	f9 01       	movw	r30, r18
    6d2a:	ee 0f       	add	r30, r30
    6d2c:	ff 1f       	adc	r31, r31
    6d2e:	e8 5d       	subi	r30, 0xD8	; 216
    6d30:	f7 4f       	sbci	r31, 0xF7	; 247
    6d32:	11 82       	std	Z+1, r1	; 0x01
    6d34:	10 82       	st	Z, r1
    6d36:	c9 01       	movw	r24, r18
    6d38:	26 30       	cpi	r18, 0x06	; 6
    6d3a:	31 05       	cpc	r19, r1
    6d3c:	11 f6       	brne	.-124    	; 0x6cc2 <scene_handler+0x1b6>
    6d3e:	80 91 28 08 	lds	r24, 0x0828	; 0x800828 <currentscene>
    6d42:	8f 3f       	cpi	r24, 0xFF	; 255
    6d44:	29 f0       	breq	.+10     	; 0x6d50 <scene_handler+0x244>
    6d46:	80 91 28 08 	lds	r24, 0x0828	; 0x800828 <currentscene>
    6d4a:	80 93 9c 01 	sts	0x019C, r24	; 0x80019c <previewscene>
    6d4e:	02 c0       	rjmp	.+4      	; 0x6d54 <scene_handler+0x248>
    6d50:	10 92 9c 01 	sts	0x019C, r1	; 0x80019c <previewscene>
    6d54:	00 e0       	ldi	r16, 0x00	; 0
    6d56:	2d e3       	ldi	r18, 0x3D	; 61
    6d58:	4d e3       	ldi	r20, 0x3D	; 61
    6d5a:	61 e0       	ldi	r22, 0x01	; 1
    6d5c:	81 e0       	ldi	r24, 0x01	; 1
    6d5e:	0e 94 61 28 	call	0x50c2	; 0x50c2 <ks0108FillRect>
    6d62:	80 91 28 08 	lds	r24, 0x0828	; 0x800828 <currentscene>
    6d66:	0e 94 64 16 	call	0x2cc8	; 0x2cc8 <_print_texts_scene>
    6d6a:	10 92 ef 07 	sts	0x07EF, r1	; 0x8007ef <thisps>
    6d6e:	60 e0       	ldi	r22, 0x00	; 0
    6d70:	83 e5       	ldi	r24, 0x53	; 83
    6d72:	95 e0       	ldi	r25, 0x05	; 5
    6d74:	0e 94 b8 24 	call	0x4970	; 0x4970 <change_operating_mode>
    6d78:	8f ef       	ldi	r24, 0xFF	; 255
    6d7a:	80 93 f0 07 	sts	0x07F0, r24	; 0x8007f0 <thisps+0x1>
    6d7e:	10 92 f1 07 	sts	0x07F1, r1	; 0x8007f1 <thisps+0x2>
    6d82:	80 91 f0 07 	lds	r24, 0x07F0	; 0x8007f0 <thisps+0x1>
    6d86:	81 30       	cpi	r24, 0x01	; 1
    6d88:	09 f0       	breq	.+2      	; 0x6d8c <scene_handler+0x280>
    6d8a:	3f c0       	rjmp	.+126    	; 0x6e0a <scene_handler+0x2fe>
    6d8c:	90 91 f1 07 	lds	r25, 0x07F1	; 0x8007f1 <thisps+0x2>
    6d90:	91 11       	cpse	r25, r1
    6d92:	14 c0       	rjmp	.+40     	; 0x6dbc <scene_handler+0x2b0>
    6d94:	80 93 f1 07 	sts	0x07F1, r24	; 0x8007f1 <thisps+0x2>
    6d98:	4f e1       	ldi	r20, 0x1F	; 31
    6d9a:	6f e1       	ldi	r22, 0x1F	; 31
    6d9c:	8f e1       	ldi	r24, 0x1F	; 31
    6d9e:	0e 94 02 1c 	call	0x3804	; 0x3804 <ClearFromCenter_GrowingSymmetric>
    6da2:	69 e1       	ldi	r22, 0x19	; 25
    6da4:	81 e1       	ldi	r24, 0x11	; 17
    6da6:	0e 94 da 25 	call	0x4bb4	; 0x4bb4 <ks0108GotoXY>
    6daa:	85 e2       	ldi	r24, 0x25	; 37
    6dac:	95 e1       	ldi	r25, 0x15	; 21
    6dae:	0e 94 11 2c 	call	0x5822	; 0x5822 <ks0108Puts_P>
    6db2:	40 e0       	ldi	r20, 0x00	; 0
    6db4:	62 e0       	ldi	r22, 0x02	; 2
    6db6:	82 e0       	ldi	r24, 0x02	; 2
    6db8:	0e 94 e6 3d 	call	0x7bcc	; 0x7bcc <dialogbox_sino>
    6dbc:	80 91 f1 07 	lds	r24, 0x07F1	; 0x8007f1 <thisps+0x2>
    6dc0:	81 30       	cpi	r24, 0x01	; 1
    6dc2:	19 f5       	brne	.+70     	; 0x6e0a <scene_handler+0x2fe>
    6dc4:	80 91 6a 06 	lds	r24, 0x066A	; 0x80066a <dialogbox_nb+0x3>
    6dc8:	87 fd       	sbrc	r24, 7
    6dca:	1f c0       	rjmp	.+62     	; 0x6e0a <scene_handler+0x2fe>
    6dcc:	80 91 6a 06 	lds	r24, 0x066A	; 0x80066a <dialogbox_nb+0x3>
    6dd0:	81 30       	cpi	r24, 0x01	; 1
    6dd2:	59 f4       	brne	.+22     	; 0x6dea <scene_handler+0x2de>
    6dd4:	82 e0       	ldi	r24, 0x02	; 2
    6dd6:	80 93 10 0a 	sts	0x0A10, r24	; 0x800a10 <shell>
    6dda:	10 92 f0 07 	sts	0x07F0, r1	; 0x8007f0 <thisps+0x1>
    6dde:	10 92 f1 07 	sts	0x07F1, r1	; 0x8007f1 <thisps+0x2>
    6de2:	83 e0       	ldi	r24, 0x03	; 3
    6de4:	80 93 69 08 	sts	0x0869, r24	; 0x800869 <kbhandler_app>
    6de8:	0d c0       	rjmp	.+26     	; 0x6e04 <scene_handler+0x2f8>
    6dea:	80 91 6a 06 	lds	r24, 0x066A	; 0x80066a <dialogbox_nb+0x3>
    6dee:	88 23       	and	r24, r24
    6df0:	21 f0       	breq	.+8      	; 0x6dfa <scene_handler+0x2ee>
    6df2:	80 91 6a 06 	lds	r24, 0x066A	; 0x80066a <dialogbox_nb+0x3>
    6df6:	83 30       	cpi	r24, 0x03	; 3
    6df8:	41 f4       	brne	.+16     	; 0x6e0a <scene_handler+0x2fe>
    6dfa:	82 e0       	ldi	r24, 0x02	; 2
    6dfc:	80 93 f0 07 	sts	0x07F0, r24	; 0x8007f0 <thisps+0x1>
    6e00:	10 92 f1 07 	sts	0x07F1, r1	; 0x8007f1 <thisps+0x2>
    6e04:	8f ef       	ldi	r24, 0xFF	; 255
    6e06:	80 93 6a 06 	sts	0x066A, r24	; 0x80066a <dialogbox_nb+0x3>
    6e0a:	80 91 f0 07 	lds	r24, 0x07F0	; 0x8007f0 <thisps+0x1>
    6e0e:	82 30       	cpi	r24, 0x02	; 2
    6e10:	09 f0       	breq	.+2      	; 0x6e14 <scene_handler+0x308>
    6e12:	4a c0       	rjmp	.+148    	; 0x6ea8 <scene_handler+0x39c>
    6e14:	80 91 f1 07 	lds	r24, 0x07F1	; 0x8007f1 <thisps+0x2>
    6e18:	81 11       	cpse	r24, r1
    6e1a:	1d c0       	rjmp	.+58     	; 0x6e56 <scene_handler+0x34a>
    6e1c:	81 e0       	ldi	r24, 0x01	; 1
    6e1e:	80 93 f1 07 	sts	0x07F1, r24	; 0x8007f1 <thisps+0x2>
    6e22:	4f e1       	ldi	r20, 0x1F	; 31
    6e24:	6f e1       	ldi	r22, 0x1F	; 31
    6e26:	8f e1       	ldi	r24, 0x1F	; 31
    6e28:	0e 94 02 1c 	call	0x3804	; 0x3804 <ClearFromCenter_GrowingSymmetric>
    6e2c:	63 e1       	ldi	r22, 0x13	; 19
    6e2e:	8c e0       	ldi	r24, 0x0C	; 12
    6e30:	0e 94 da 25 	call	0x4bb4	; 0x4bb4 <ks0108GotoXY>
    6e34:	8e e1       	ldi	r24, 0x1E	; 30
    6e36:	95 e1       	ldi	r25, 0x15	; 21
    6e38:	0e 94 11 2c 	call	0x5822	; 0x5822 <ks0108Puts_P>
    6e3c:	6f e1       	ldi	r22, 0x1F	; 31
    6e3e:	8d e0       	ldi	r24, 0x0D	; 13
    6e40:	0e 94 da 25 	call	0x4bb4	; 0x4bb4 <ks0108GotoXY>
    6e44:	85 e1       	ldi	r24, 0x15	; 21
    6e46:	95 e1       	ldi	r25, 0x15	; 21
    6e48:	0e 94 11 2c 	call	0x5822	; 0x5822 <ks0108Puts_P>
    6e4c:	40 e0       	ldi	r20, 0x00	; 0
    6e4e:	62 e0       	ldi	r22, 0x02	; 2
    6e50:	82 e0       	ldi	r24, 0x02	; 2
    6e52:	0e 94 e6 3d 	call	0x7bcc	; 0x7bcc <dialogbox_sino>
    6e56:	80 91 f1 07 	lds	r24, 0x07F1	; 0x8007f1 <thisps+0x2>
    6e5a:	81 30       	cpi	r24, 0x01	; 1
    6e5c:	29 f5       	brne	.+74     	; 0x6ea8 <scene_handler+0x39c>
    6e5e:	80 91 6a 06 	lds	r24, 0x066A	; 0x80066a <dialogbox_nb+0x3>
    6e62:	87 fd       	sbrc	r24, 7
    6e64:	21 c0       	rjmp	.+66     	; 0x6ea8 <scene_handler+0x39c>
    6e66:	80 91 6a 06 	lds	r24, 0x066A	; 0x80066a <dialogbox_nb+0x3>
    6e6a:	81 30       	cpi	r24, 0x01	; 1
    6e6c:	69 f4       	brne	.+26     	; 0x6e88 <scene_handler+0x37c>
    6e6e:	4f e1       	ldi	r20, 0x1F	; 31
    6e70:	6f e1       	ldi	r22, 0x1F	; 31
    6e72:	8f e1       	ldi	r24, 0x1F	; 31
    6e74:	0e 94 02 1c 	call	0x3804	; 0x3804 <ClearFromCenter_GrowingSymmetric>
    6e78:	0e 94 78 31 	call	0x62f0	; 0x62f0 <_entering_to_preview_scene>
    6e7c:	8f ef       	ldi	r24, 0xFF	; 255
    6e7e:	80 93 f0 07 	sts	0x07F0, r24	; 0x8007f0 <thisps+0x1>
    6e82:	10 92 f1 07 	sts	0x07F1, r1	; 0x8007f1 <thisps+0x2>
    6e86:	0e c0       	rjmp	.+28     	; 0x6ea4 <scene_handler+0x398>
    6e88:	80 91 6a 06 	lds	r24, 0x066A	; 0x80066a <dialogbox_nb+0x3>
    6e8c:	88 23       	and	r24, r24
    6e8e:	21 f0       	breq	.+8      	; 0x6e98 <scene_handler+0x38c>
    6e90:	80 91 6a 06 	lds	r24, 0x066A	; 0x80066a <dialogbox_nb+0x3>
    6e94:	83 30       	cpi	r24, 0x03	; 3
    6e96:	41 f4       	brne	.+16     	; 0x6ea8 <scene_handler+0x39c>
    6e98:	83 e0       	ldi	r24, 0x03	; 3
    6e9a:	80 93 f0 07 	sts	0x07F0, r24	; 0x8007f0 <thisps+0x1>
    6e9e:	10 92 f1 07 	sts	0x07F1, r1	; 0x8007f1 <thisps+0x2>
    6ea2:	8f ef       	ldi	r24, 0xFF	; 255
    6ea4:	80 93 6a 06 	sts	0x066A, r24	; 0x80066a <dialogbox_nb+0x3>
    6ea8:	80 91 f0 07 	lds	r24, 0x07F0	; 0x8007f0 <thisps+0x1>
    6eac:	83 30       	cpi	r24, 0x03	; 3
    6eae:	09 f0       	breq	.+2      	; 0x6eb2 <scene_handler+0x3a6>
    6eb0:	49 c0       	rjmp	.+146    	; 0x6f44 <scene_handler+0x438>
    6eb2:	80 91 f1 07 	lds	r24, 0x07F1	; 0x8007f1 <thisps+0x2>
    6eb6:	81 11       	cpse	r24, r1
    6eb8:	1d c0       	rjmp	.+58     	; 0x6ef4 <scene_handler+0x3e8>
    6eba:	81 e0       	ldi	r24, 0x01	; 1
    6ebc:	80 93 f1 07 	sts	0x07F1, r24	; 0x8007f1 <thisps+0x2>
    6ec0:	4f e1       	ldi	r20, 0x1F	; 31
    6ec2:	6f e1       	ldi	r22, 0x1F	; 31
    6ec4:	8f e1       	ldi	r24, 0x1F	; 31
    6ec6:	0e 94 02 1c 	call	0x3804	; 0x3804 <ClearFromCenter_GrowingSymmetric>
    6eca:	63 e1       	ldi	r22, 0x13	; 19
    6ecc:	86 e0       	ldi	r24, 0x06	; 6
    6ece:	0e 94 da 25 	call	0x4bb4	; 0x4bb4 <ks0108GotoXY>
    6ed2:	8a e0       	ldi	r24, 0x0A	; 10
    6ed4:	95 e1       	ldi	r25, 0x15	; 21
    6ed6:	0e 94 11 2c 	call	0x5822	; 0x5822 <ks0108Puts_P>
    6eda:	6f e1       	ldi	r22, 0x1F	; 31
    6edc:	8f e0       	ldi	r24, 0x0F	; 15
    6ede:	0e 94 da 25 	call	0x4bb4	; 0x4bb4 <ks0108GotoXY>
    6ee2:	82 e0       	ldi	r24, 0x02	; 2
    6ee4:	95 e1       	ldi	r25, 0x15	; 21
    6ee6:	0e 94 11 2c 	call	0x5822	; 0x5822 <ks0108Puts_P>
    6eea:	40 e0       	ldi	r20, 0x00	; 0
    6eec:	62 e0       	ldi	r22, 0x02	; 2
    6eee:	82 e0       	ldi	r24, 0x02	; 2
    6ef0:	0e 94 e6 3d 	call	0x7bcc	; 0x7bcc <dialogbox_sino>
    6ef4:	80 91 f1 07 	lds	r24, 0x07F1	; 0x8007f1 <thisps+0x2>
    6ef8:	81 30       	cpi	r24, 0x01	; 1
    6efa:	21 f5       	brne	.+72     	; 0x6f44 <scene_handler+0x438>
    6efc:	80 91 6a 06 	lds	r24, 0x066A	; 0x80066a <dialogbox_nb+0x3>
    6f00:	87 fd       	sbrc	r24, 7
    6f02:	20 c0       	rjmp	.+64     	; 0x6f44 <scene_handler+0x438>
    6f04:	80 91 6a 06 	lds	r24, 0x066A	; 0x80066a <dialogbox_nb+0x3>
    6f08:	81 30       	cpi	r24, 0x01	; 1
    6f0a:	61 f4       	brne	.+24     	; 0x6f24 <scene_handler+0x418>
    6f0c:	90 91 06 08 	lds	r25, 0x0806	; 0x800806 <crossover_scene_zone>
    6f10:	92 60       	ori	r25, 0x02	; 2
    6f12:	90 93 06 08 	sts	0x0806, r25	; 0x800806 <crossover_scene_zone>
    6f16:	80 93 e0 02 	sts	0x02E0, r24	; 0x8002e0 <menu_operational+0x2>
    6f1a:	80 93 10 0a 	sts	0x0A10, r24	; 0x800a10 <shell>
    6f1e:	10 92 f0 07 	sts	0x07F0, r1	; 0x8007f0 <thisps+0x1>
    6f22:	0b c0       	rjmp	.+22     	; 0x6f3a <scene_handler+0x42e>
    6f24:	80 91 6a 06 	lds	r24, 0x066A	; 0x80066a <dialogbox_nb+0x3>
    6f28:	88 23       	and	r24, r24
    6f2a:	21 f0       	breq	.+8      	; 0x6f34 <scene_handler+0x428>
    6f2c:	80 91 6a 06 	lds	r24, 0x066A	; 0x80066a <dialogbox_nb+0x3>
    6f30:	83 30       	cpi	r24, 0x03	; 3
    6f32:	41 f4       	brne	.+16     	; 0x6f44 <scene_handler+0x438>
    6f34:	84 e0       	ldi	r24, 0x04	; 4
    6f36:	80 93 f0 07 	sts	0x07F0, r24	; 0x8007f0 <thisps+0x1>
    6f3a:	10 92 f1 07 	sts	0x07F1, r1	; 0x8007f1 <thisps+0x2>
    6f3e:	8f ef       	ldi	r24, 0xFF	; 255
    6f40:	80 93 6a 06 	sts	0x066A, r24	; 0x80066a <dialogbox_nb+0x3>
    6f44:	80 91 f0 07 	lds	r24, 0x07F0	; 0x8007f0 <thisps+0x1>
    6f48:	84 30       	cpi	r24, 0x04	; 4
    6f4a:	09 f0       	breq	.+2      	; 0x6f4e <scene_handler+0x442>
    6f4c:	50 c0       	rjmp	.+160    	; 0x6fee <scene_handler+0x4e2>
    6f4e:	80 91 f1 07 	lds	r24, 0x07F1	; 0x8007f1 <thisps+0x2>
    6f52:	81 11       	cpse	r24, r1
    6f54:	1d c0       	rjmp	.+58     	; 0x6f90 <scene_handler+0x484>
    6f56:	81 e0       	ldi	r24, 0x01	; 1
    6f58:	80 93 f1 07 	sts	0x07F1, r24	; 0x8007f1 <thisps+0x2>
    6f5c:	4f e1       	ldi	r20, 0x1F	; 31
    6f5e:	6f e1       	ldi	r22, 0x1F	; 31
    6f60:	8f e1       	ldi	r24, 0x1F	; 31
    6f62:	0e 94 02 1c 	call	0x3804	; 0x3804 <ClearFromCenter_GrowingSymmetric>
    6f66:	63 e1       	ldi	r22, 0x13	; 19
    6f68:	85 e0       	ldi	r24, 0x05	; 5
    6f6a:	0e 94 da 25 	call	0x4bb4	; 0x4bb4 <ks0108GotoXY>
    6f6e:	87 ef       	ldi	r24, 0xF7	; 247
    6f70:	94 e1       	ldi	r25, 0x14	; 20
    6f72:	0e 94 11 2c 	call	0x5822	; 0x5822 <ks0108Puts_P>
    6f76:	6f e1       	ldi	r22, 0x1F	; 31
    6f78:	87 e0       	ldi	r24, 0x07	; 7
    6f7a:	0e 94 da 25 	call	0x4bb4	; 0x4bb4 <ks0108GotoXY>
    6f7e:	8f ee       	ldi	r24, 0xEF	; 239
    6f80:	94 e1       	ldi	r25, 0x14	; 20
    6f82:	0e 94 11 2c 	call	0x5822	; 0x5822 <ks0108Puts_P>
    6f86:	40 e0       	ldi	r20, 0x00	; 0
    6f88:	62 e0       	ldi	r22, 0x02	; 2
    6f8a:	82 e0       	ldi	r24, 0x02	; 2
    6f8c:	0e 94 e6 3d 	call	0x7bcc	; 0x7bcc <dialogbox_sino>
    6f90:	80 91 f1 07 	lds	r24, 0x07F1	; 0x8007f1 <thisps+0x2>
    6f94:	81 30       	cpi	r24, 0x01	; 1
    6f96:	59 f5       	brne	.+86     	; 0x6fee <scene_handler+0x4e2>
    6f98:	80 91 6a 06 	lds	r24, 0x066A	; 0x80066a <dialogbox_nb+0x3>
    6f9c:	87 fd       	sbrc	r24, 7
    6f9e:	27 c0       	rjmp	.+78     	; 0x6fee <scene_handler+0x4e2>
    6fa0:	80 91 6a 06 	lds	r24, 0x066A	; 0x80066a <dialogbox_nb+0x3>
    6fa4:	81 30       	cpi	r24, 0x01	; 1
    6fa6:	21 f4       	brne	.+8      	; 0x6fb0 <scene_handler+0x4a4>
    6fa8:	0e 94 31 33 	call	0x6662	; 0x6662 <_synch_all>
    6fac:	8f ef       	ldi	r24, 0xFF	; 255
    6fae:	1d c0       	rjmp	.+58     	; 0x6fea <scene_handler+0x4de>
    6fb0:	80 91 6a 06 	lds	r24, 0x066A	; 0x80066a <dialogbox_nb+0x3>
    6fb4:	88 23       	and	r24, r24
    6fb6:	21 f0       	breq	.+8      	; 0x6fc0 <scene_handler+0x4b4>
    6fb8:	80 91 6a 06 	lds	r24, 0x066A	; 0x80066a <dialogbox_nb+0x3>
    6fbc:	83 30       	cpi	r24, 0x03	; 3
    6fbe:	b9 f4       	brne	.+46     	; 0x6fee <scene_handler+0x4e2>
    6fc0:	00 e0       	ldi	r16, 0x00	; 0
    6fc2:	2d e3       	ldi	r18, 0x3D	; 61
    6fc4:	4d e3       	ldi	r20, 0x3D	; 61
    6fc6:	61 e0       	ldi	r22, 0x01	; 1
    6fc8:	81 e0       	ldi	r24, 0x01	; 1
    6fca:	0e 94 61 28 	call	0x50c2	; 0x50c2 <ks0108FillRect>
    6fce:	0e 94 61 32 	call	0x64c2	; 0x64c2 <_show_the_scene>
    6fd2:	10 92 ef 07 	sts	0x07EF, r1	; 0x8007ef <thisps>
    6fd6:	60 e0       	ldi	r22, 0x00	; 0
    6fd8:	83 e5       	ldi	r24, 0x53	; 83
    6fda:	95 e0       	ldi	r25, 0x05	; 5
    6fdc:	0e 94 b8 24 	call	0x4970	; 0x4970 <change_operating_mode>
    6fe0:	8f ef       	ldi	r24, 0xFF	; 255
    6fe2:	80 93 f0 07 	sts	0x07F0, r24	; 0x8007f0 <thisps+0x1>
    6fe6:	10 92 f1 07 	sts	0x07F1, r1	; 0x8007f1 <thisps+0x2>
    6fea:	80 93 6a 06 	sts	0x066A, r24	; 0x80066a <dialogbox_nb+0x3>
    6fee:	80 91 f0 07 	lds	r24, 0x07F0	; 0x8007f0 <thisps+0x1>
    6ff2:	85 30       	cpi	r24, 0x05	; 5
    6ff4:	09 f0       	breq	.+2      	; 0x6ff8 <scene_handler+0x4ec>
    6ff6:	62 c0       	rjmp	.+196    	; 0x70bc <scene_handler+0x5b0>
    6ff8:	80 91 f1 07 	lds	r24, 0x07F1	; 0x8007f1 <thisps+0x2>
    6ffc:	81 11       	cpse	r24, r1
    6ffe:	1d c0       	rjmp	.+58     	; 0x703a <scene_handler+0x52e>
    7000:	81 e0       	ldi	r24, 0x01	; 1
    7002:	80 93 f1 07 	sts	0x07F1, r24	; 0x8007f1 <thisps+0x2>
    7006:	4f e1       	ldi	r20, 0x1F	; 31
    7008:	6f e1       	ldi	r22, 0x1F	; 31
    700a:	8f e1       	ldi	r24, 0x1F	; 31
    700c:	0e 94 02 1c 	call	0x3804	; 0x3804 <ClearFromCenter_GrowingSymmetric>
    7010:	63 e1       	ldi	r22, 0x13	; 19
    7012:	89 e0       	ldi	r24, 0x09	; 9
    7014:	0e 94 da 25 	call	0x4bb4	; 0x4bb4 <ks0108GotoXY>
    7018:	86 ee       	ldi	r24, 0xE6	; 230
    701a:	94 e1       	ldi	r25, 0x14	; 20
    701c:	0e 94 11 2c 	call	0x5822	; 0x5822 <ks0108Puts_P>
    7020:	6f e1       	ldi	r22, 0x1F	; 31
    7022:	85 e0       	ldi	r24, 0x05	; 5
    7024:	0e 94 da 25 	call	0x4bb4	; 0x4bb4 <ks0108GotoXY>
    7028:	8c ed       	ldi	r24, 0xDC	; 220
    702a:	94 e1       	ldi	r25, 0x14	; 20
    702c:	0e 94 11 2c 	call	0x5822	; 0x5822 <ks0108Puts_P>
    7030:	40 e0       	ldi	r20, 0x00	; 0
    7032:	62 e0       	ldi	r22, 0x02	; 2
    7034:	82 e0       	ldi	r24, 0x02	; 2
    7036:	0e 94 e6 3d 	call	0x7bcc	; 0x7bcc <dialogbox_sino>
    703a:	80 91 f1 07 	lds	r24, 0x07F1	; 0x8007f1 <thisps+0x2>
    703e:	81 30       	cpi	r24, 0x01	; 1
    7040:	e9 f5       	brne	.+122    	; 0x70bc <scene_handler+0x5b0>
    7042:	80 91 6a 06 	lds	r24, 0x066A	; 0x80066a <dialogbox_nb+0x3>
    7046:	87 fd       	sbrc	r24, 7
    7048:	39 c0       	rjmp	.+114    	; 0x70bc <scene_handler+0x5b0>
    704a:	80 91 6a 06 	lds	r24, 0x066A	; 0x80066a <dialogbox_nb+0x3>
    704e:	81 30       	cpi	r24, 0x01	; 1
    7050:	f9 f4       	brne	.+62     	; 0x7090 <scene_handler+0x584>
    7052:	4f e1       	ldi	r20, 0x1F	; 31
    7054:	6f e1       	ldi	r22, 0x1F	; 31
    7056:	8f e1       	ldi	r24, 0x1F	; 31
    7058:	0e 94 02 1c 	call	0x3804	; 0x3804 <ClearFromCenter_GrowingSymmetric>
    705c:	0e 94 61 32 	call	0x64c2	; 0x64c2 <_show_the_scene>
    7060:	80 91 28 08 	lds	r24, 0x0828	; 0x800828 <currentscene>
    7064:	8f 3f       	cpi	r24, 0xFF	; 255
    7066:	29 f0       	breq	.+10     	; 0x7072 <scene_handler+0x566>
    7068:	80 91 28 08 	lds	r24, 0x0828	; 0x800828 <currentscene>
    706c:	80 93 9c 01 	sts	0x019C, r24	; 0x80019c <previewscene>
    7070:	02 c0       	rjmp	.+4      	; 0x7076 <scene_handler+0x56a>
    7072:	10 92 9c 01 	sts	0x019C, r1	; 0x80019c <previewscene>
    7076:	10 92 ef 07 	sts	0x07EF, r1	; 0x8007ef <thisps>
    707a:	60 e0       	ldi	r22, 0x00	; 0
    707c:	83 e5       	ldi	r24, 0x53	; 83
    707e:	95 e0       	ldi	r25, 0x05	; 5
    7080:	0e 94 b8 24 	call	0x4970	; 0x4970 <change_operating_mode>
    7084:	8f ef       	ldi	r24, 0xFF	; 255
    7086:	80 93 f0 07 	sts	0x07F0, r24	; 0x8007f0 <thisps+0x1>
    708a:	10 92 f1 07 	sts	0x07F1, r1	; 0x8007f1 <thisps+0x2>
    708e:	14 c0       	rjmp	.+40     	; 0x70b8 <scene_handler+0x5ac>
    7090:	80 91 6a 06 	lds	r24, 0x066A	; 0x80066a <dialogbox_nb+0x3>
    7094:	88 23       	and	r24, r24
    7096:	21 f0       	breq	.+8      	; 0x70a0 <scene_handler+0x594>
    7098:	80 91 6a 06 	lds	r24, 0x066A	; 0x80066a <dialogbox_nb+0x3>
    709c:	83 30       	cpi	r24, 0x03	; 3
    709e:	71 f4       	brne	.+28     	; 0x70bc <scene_handler+0x5b0>
    70a0:	0e 94 78 31 	call	0x62f0	; 0x62f0 <_entering_to_preview_scene>
    70a4:	81 e0       	ldi	r24, 0x01	; 1
    70a6:	80 93 d6 09 	sts	0x09D6, r24	; 0x8009d6 <borrame_start>
    70aa:	10 92 f2 07 	sts	0x07F2, r1	; 0x8007f2 <borrame>
    70ae:	10 92 d7 09 	sts	0x09D7, r1	; 0x8009d7 <borrame_counter>
    70b2:	10 92 d5 09 	sts	0x09D5, r1	; 0x8009d5 <borrame_flag>
    70b6:	8f ef       	ldi	r24, 0xFF	; 255
    70b8:	80 93 6a 06 	sts	0x066A, r24	; 0x80066a <dialogbox_nb+0x3>
    70bc:	80 91 f0 07 	lds	r24, 0x07F0	; 0x8007f0 <thisps+0x1>
    70c0:	86 30       	cpi	r24, 0x06	; 6
    70c2:	e9 f5       	brne	.+122    	; 0x713e <scene_handler+0x632>
    70c4:	80 91 f1 07 	lds	r24, 0x07F1	; 0x8007f1 <thisps+0x2>
    70c8:	81 11       	cpse	r24, r1
    70ca:	1d c0       	rjmp	.+58     	; 0x7106 <scene_handler+0x5fa>
    70cc:	81 e0       	ldi	r24, 0x01	; 1
    70ce:	80 93 f1 07 	sts	0x07F1, r24	; 0x8007f1 <thisps+0x2>
    70d2:	4f e1       	ldi	r20, 0x1F	; 31
    70d4:	6f e1       	ldi	r22, 0x1F	; 31
    70d6:	8f e1       	ldi	r24, 0x1F	; 31
    70d8:	0e 94 02 1c 	call	0x3804	; 0x3804 <ClearFromCenter_GrowingSymmetric>
    70dc:	63 e1       	ldi	r22, 0x13	; 19
    70de:	88 e0       	ldi	r24, 0x08	; 8
    70e0:	0e 94 da 25 	call	0x4bb4	; 0x4bb4 <ks0108GotoXY>
    70e4:	83 ed       	ldi	r24, 0xD3	; 211
    70e6:	94 e1       	ldi	r25, 0x14	; 20
    70e8:	0e 94 11 2c 	call	0x5822	; 0x5822 <ks0108Puts_P>
    70ec:	6f e1       	ldi	r22, 0x1F	; 31
    70ee:	85 e0       	ldi	r24, 0x05	; 5
    70f0:	0e 94 da 25 	call	0x4bb4	; 0x4bb4 <ks0108GotoXY>
    70f4:	88 ec       	ldi	r24, 0xC8	; 200
    70f6:	94 e1       	ldi	r25, 0x14	; 20
    70f8:	0e 94 11 2c 	call	0x5822	; 0x5822 <ks0108Puts_P>
    70fc:	40 e0       	ldi	r20, 0x00	; 0
    70fe:	62 e0       	ldi	r22, 0x02	; 2
    7100:	82 e0       	ldi	r24, 0x02	; 2
    7102:	0e 94 e6 3d 	call	0x7bcc	; 0x7bcc <dialogbox_sino>
    7106:	80 91 f1 07 	lds	r24, 0x07F1	; 0x8007f1 <thisps+0x2>
    710a:	81 30       	cpi	r24, 0x01	; 1
    710c:	c1 f4       	brne	.+48     	; 0x713e <scene_handler+0x632>
    710e:	80 91 6a 06 	lds	r24, 0x066A	; 0x80066a <dialogbox_nb+0x3>
    7112:	87 fd       	sbrc	r24, 7
    7114:	14 c0       	rjmp	.+40     	; 0x713e <scene_handler+0x632>
    7116:	80 91 6a 06 	lds	r24, 0x066A	; 0x80066a <dialogbox_nb+0x3>
    711a:	81 30       	cpi	r24, 0x01	; 1
    711c:	19 f4       	brne	.+6      	; 0x7124 <scene_handler+0x618>
    711e:	0e 94 f2 32 	call	0x65e4	; 0x65e4 <_desynch_all>
    7122:	0a c0       	rjmp	.+20     	; 0x7138 <scene_handler+0x62c>
    7124:	80 91 6a 06 	lds	r24, 0x066A	; 0x80066a <dialogbox_nb+0x3>
    7128:	88 23       	and	r24, r24
    712a:	21 f0       	breq	.+8      	; 0x7134 <scene_handler+0x628>
    712c:	80 91 6a 06 	lds	r24, 0x066A	; 0x80066a <dialogbox_nb+0x3>
    7130:	83 30       	cpi	r24, 0x03	; 3
    7132:	29 f4       	brne	.+10     	; 0x713e <scene_handler+0x632>
    7134:	0e 94 31 33 	call	0x6662	; 0x6662 <_synch_all>
    7138:	8f ef       	ldi	r24, 0xFF	; 255
    713a:	80 93 6a 06 	sts	0x066A, r24	; 0x80066a <dialogbox_nb+0x3>
    713e:	63 e0       	ldi	r22, 0x03	; 3
    7140:	70 e0       	ldi	r23, 0x00	; 0
    7142:	85 ed       	ldi	r24, 0xD5	; 213
    7144:	95 e0       	ldi	r25, 0x05	; 5
    7146:	0e 94 62 46 	call	0x8cc4	; 0x8cc4 <timmer_nb__processing>
    714a:	80 91 d7 05 	lds	r24, 0x05D7	; 0x8005d7 <this_timmer_nb+0x2>
    714e:	88 23       	and	r24, r24
    7150:	31 f0       	breq	.+12     	; 0x715e <scene_handler+0x652>
    7152:	64 e3       	ldi	r22, 0x34	; 52
    7154:	86 e3       	ldi	r24, 0x36	; 54
    7156:	0e 94 7b 1e 	call	0x3cf6	; 0x3cf6 <_draw_triangle_rigth_solid_black>
    715a:	10 92 d7 05 	sts	0x05D7, r1	; 0x8005d7 <this_timmer_nb+0x2>
    715e:	80 91 db 05 	lds	r24, 0x05DB	; 0x8005db <this_timmer_nb+0x6>
    7162:	88 23       	and	r24, r24
    7164:	31 f0       	breq	.+12     	; 0x7172 <scene_handler+0x666>
    7166:	64 e3       	ldi	r22, 0x34	; 52
    7168:	89 e0       	ldi	r24, 0x09	; 9
    716a:	0e 94 54 1e 	call	0x3ca8	; 0x3ca8 <_draw_triangle_left_solid_black>
    716e:	10 92 db 05 	sts	0x05DB, r1	; 0x8005db <this_timmer_nb+0x6>
    7172:	80 91 ee 07 	lds	r24, 0x07EE	; 0x8007ee <ps_search_scene>
    7176:	88 23       	and	r24, r24
    7178:	09 f4       	brne	.+2      	; 0x717c <scene_handler+0x670>
    717a:	f1 c0       	rjmp	.+482    	; 0x735e <scene_handler+0x852>
    717c:	81 30       	cpi	r24, 0x01	; 1
    717e:	09 f0       	breq	.+2      	; 0x7182 <scene_handler+0x676>
    7180:	e1 c0       	rjmp	.+450    	; 0x7344 <scene_handler+0x838>
    7182:	80 91 df 05 	lds	r24, 0x05DF	; 0x8005df <this_timmer_nb+0xa>
    7186:	81 11       	cpse	r24, r1
    7188:	be c0       	rjmp	.+380    	; 0x7306 <scene_handler+0x7fa>
    718a:	80 91 df 05 	lds	r24, 0x05DF	; 0x8005df <this_timmer_nb+0xa>
    718e:	8f 5f       	subi	r24, 0xFF	; 255
    7190:	80 93 df 05 	sts	0x05DF, r24	; 0x8005df <this_timmer_nb+0xa>
    7194:	00 e0       	ldi	r16, 0x00	; 0
    7196:	2a e0       	ldi	r18, 0x0A	; 10
    7198:	4e e0       	ldi	r20, 0x0E	; 14
    719a:	6f e2       	ldi	r22, 0x2F	; 47
    719c:	89 e1       	ldi	r24, 0x19	; 25
    719e:	0e 94 61 28 	call	0x50c2	; 0x50c2 <ks0108FillRect>
    71a2:	6f e2       	ldi	r22, 0x2F	; 47
    71a4:	8a e1       	ldi	r24, 0x1A	; 26
    71a6:	0e 94 da 25 	call	0x4bb4	; 0x4bb4 <ks0108GotoXY>
    71aa:	8f e8       	ldi	r24, 0x8F	; 143
    71ac:	94 e1       	ldi	r25, 0x14	; 20
    71ae:	0e 94 11 2c 	call	0x5822	; 0x5822 <ks0108Puts_P>
    71b2:	2a e0       	ldi	r18, 0x0A	; 10
    71b4:	4e e0       	ldi	r20, 0x0E	; 14
    71b6:	6f e2       	ldi	r22, 0x2F	; 47
    71b8:	89 e1       	ldi	r24, 0x19	; 25
    71ba:	0e 94 57 29 	call	0x52ae	; 0x52ae <ks0108InvertRect>
    71be:	80 91 36 08 	lds	r24, 0x0836	; 0x800836 <ps_scene>
    71c2:	88 23       	and	r24, r24
    71c4:	09 f4       	brne	.+2      	; 0x71c8 <scene_handler+0x6bc>
    71c6:	be c0       	rjmp	.+380    	; 0x7344 <scene_handler+0x838>
    71c8:	80 e0       	ldi	r24, 0x00	; 0
    71ca:	90 e0       	ldi	r25, 0x00	; 0
    71cc:	fc 01       	movw	r30, r24
    71ce:	ee 0f       	add	r30, r30
    71d0:	ff 1f       	adc	r31, r31
    71d2:	e8 0f       	add	r30, r24
    71d4:	f9 1f       	adc	r31, r25
    71d6:	df 01       	movw	r26, r30
    71d8:	a0 5d       	subi	r26, 0xD0	; 208
    71da:	bd 4f       	sbci	r27, 0xFD	; 253
    71dc:	16 96       	adiw	r26, 0x06	; 6
    71de:	2c 91       	ld	r18, X
    71e0:	16 97       	sbiw	r26, 0x06	; 6
    71e2:	17 96       	adiw	r26, 0x07	; 7
    71e4:	2c 93       	st	X, r18
    71e6:	e8 5c       	subi	r30, 0xC8	; 200
    71e8:	fd 4f       	sbci	r31, 0xFD	; 253
    71ea:	20 81       	ld	r18, Z
    71ec:	21 60       	ori	r18, 0x01	; 1
    71ee:	20 83       	st	Z, r18
    71f0:	01 96       	adiw	r24, 0x01	; 1
    71f2:	86 30       	cpi	r24, 0x06	; 6
    71f4:	91 05       	cpc	r25, r1
    71f6:	51 f7       	brne	.-44     	; 0x71cc <scene_handler+0x6c0>
    71f8:	80 91 7b 0a 	lds	r24, 0x0A7B	; 0x800a7b <objzone+0x19>
    71fc:	82 60       	ori	r24, 0x02	; 2
    71fe:	80 93 7b 0a 	sts	0x0A7B, r24	; 0x800a7b <objzone+0x19>
    7202:	80 91 9f 0a 	lds	r24, 0x0A9F	; 0x800a9f <objzone+0x3d>
    7206:	82 60       	ori	r24, 0x02	; 2
    7208:	80 93 9f 0a 	sts	0x0A9F, r24	; 0x800a9f <objzone+0x3d>
    720c:	80 91 c3 0a 	lds	r24, 0x0AC3	; 0x800ac3 <objzone+0x61>
    7210:	82 60       	ori	r24, 0x02	; 2
    7212:	80 93 c3 0a 	sts	0x0AC3, r24	; 0x800ac3 <objzone+0x61>
    7216:	80 91 e7 0a 	lds	r24, 0x0AE7	; 0x800ae7 <objzone+0x85>
    721a:	82 60       	ori	r24, 0x02	; 2
    721c:	80 93 e7 0a 	sts	0x0AE7, r24	; 0x800ae7 <objzone+0x85>
    7220:	80 91 0b 0b 	lds	r24, 0x0B0B	; 0x800b0b <objzone+0xa9>
    7224:	82 60       	ori	r24, 0x02	; 2
    7226:	80 93 0b 0b 	sts	0x0B0B, r24	; 0x800b0b <objzone+0xa9>
    722a:	80 91 2f 0b 	lds	r24, 0x0B2F	; 0x800b2f <objzone+0xcd>
    722e:	82 60       	ori	r24, 0x02	; 2
    7230:	80 93 2f 0b 	sts	0x0B2F, r24	; 0x800b2f <objzone+0xcd>
    7234:	80 91 37 08 	lds	r24, 0x0837	; 0x800837 <ps_fading_inbk>
    7238:	84 60       	ori	r24, 0x04	; 4
    723a:	80 93 37 08 	sts	0x0837, r24	; 0x800837 <ps_fading_inbk>
    723e:	e0 91 ac 01 	lds	r30, 0x01AC	; 0x8001ac <previewscene+0x10>
    7242:	f0 91 ad 01 	lds	r31, 0x01AD	; 0x8001ad <previewscene+0x11>
    7246:	09 95       	icall
    7248:	80 91 6e 0a 	lds	r24, 0x0A6E	; 0x800a6e <objzone+0xc>
    724c:	8e 7f       	andi	r24, 0xFE	; 254
    724e:	80 93 6e 0a 	sts	0x0A6E, r24	; 0x800a6e <objzone+0xc>
    7252:	80 91 92 0a 	lds	r24, 0x0A92	; 0x800a92 <objzone+0x30>
    7256:	8e 7f       	andi	r24, 0xFE	; 254
    7258:	80 93 92 0a 	sts	0x0A92, r24	; 0x800a92 <objzone+0x30>
    725c:	80 91 b6 0a 	lds	r24, 0x0AB6	; 0x800ab6 <objzone+0x54>
    7260:	8e 7f       	andi	r24, 0xFE	; 254
    7262:	80 93 b6 0a 	sts	0x0AB6, r24	; 0x800ab6 <objzone+0x54>
    7266:	80 91 da 0a 	lds	r24, 0x0ADA	; 0x800ada <objzone+0x78>
    726a:	8e 7f       	andi	r24, 0xFE	; 254
    726c:	80 93 da 0a 	sts	0x0ADA, r24	; 0x800ada <objzone+0x78>
    7270:	80 91 fe 0a 	lds	r24, 0x0AFE	; 0x800afe <objzone+0x9c>
    7274:	8e 7f       	andi	r24, 0xFE	; 254
    7276:	80 93 fe 0a 	sts	0x0AFE, r24	; 0x800afe <objzone+0x9c>
    727a:	80 91 22 0b 	lds	r24, 0x0B22	; 0x800b22 <objzone+0xc0>
    727e:	8e 7f       	andi	r24, 0xFE	; 254
    7280:	80 93 22 0b 	sts	0x0B22, r24	; 0x800b22 <objzone+0xc0>
    7284:	20 e0       	ldi	r18, 0x00	; 0
    7286:	30 e0       	ldi	r19, 0x00	; 0
    7288:	44 e2       	ldi	r20, 0x24	; 36
    728a:	42 9f       	mul	r20, r18
    728c:	c0 01       	movw	r24, r0
    728e:	43 9f       	mul	r20, r19
    7290:	90 0d       	add	r25, r0
    7292:	11 24       	eor	r1, r1
    7294:	fc 01       	movw	r30, r24
    7296:	ee 59       	subi	r30, 0x9E	; 158
    7298:	f5 4f       	sbci	r31, 0xF5	; 245
    729a:	56 81       	ldd	r21, Z+6	; 0x06
    729c:	51 30       	cpi	r21, 0x01	; 1
    729e:	51 f4       	brne	.+20     	; 0x72b4 <scene_handler+0x7a8>
    72a0:	57 81       	ldd	r21, Z+7	; 0x07
    72a2:	51 30       	cpi	r21, 0x01	; 1
    72a4:	99 f4       	brne	.+38     	; 0x72cc <scene_handler+0x7c0>
    72a6:	fc 01       	movw	r30, r24
    72a8:	e6 58       	subi	r30, 0x86	; 134
    72aa:	f5 4f       	sbci	r31, 0xF5	; 245
    72ac:	50 81       	ld	r21, Z
    72ae:	50 fd       	sbrc	r21, 0
    72b0:	0d c0       	rjmp	.+26     	; 0x72cc <scene_handler+0x7c0>
    72b2:	06 c0       	rjmp	.+12     	; 0x72c0 <scene_handler+0x7b4>
    72b4:	56 81       	ldd	r21, Z+6	; 0x06
    72b6:	51 11       	cpse	r21, r1
    72b8:	09 c0       	rjmp	.+18     	; 0x72cc <scene_handler+0x7c0>
    72ba:	57 81       	ldd	r21, Z+7	; 0x07
    72bc:	51 11       	cpse	r21, r1
    72be:	06 c0       	rjmp	.+12     	; 0x72cc <scene_handler+0x7c0>
    72c0:	fc 01       	movw	r30, r24
    72c2:	e5 58       	subi	r30, 0x85	; 133
    72c4:	f5 4f       	sbci	r31, 0xF5	; 245
    72c6:	80 81       	ld	r24, Z
    72c8:	8d 7f       	andi	r24, 0xFD	; 253
    72ca:	80 83       	st	Z, r24
    72cc:	2f 5f       	subi	r18, 0xFF	; 255
    72ce:	3f 4f       	sbci	r19, 0xFF	; 255
    72d0:	26 30       	cpi	r18, 0x06	; 6
    72d2:	31 05       	cpc	r19, r1
    72d4:	d1 f6       	brne	.-76     	; 0x728a <scene_handler+0x77e>
    72d6:	80 91 9c 01 	lds	r24, 0x019C	; 0x80019c <previewscene>
    72da:	80 93 28 08 	sts	0x0828, r24	; 0x800828 <currentscene>
    72de:	80 e0       	ldi	r24, 0x00	; 0
    72e0:	90 e0       	ldi	r25, 0x00	; 0
    72e2:	01 96       	adiw	r24, 0x01	; 1
    72e4:	9c 01       	movw	r18, r24
    72e6:	22 0f       	add	r18, r18
    72e8:	33 1f       	adc	r19, r19
    72ea:	f9 01       	movw	r30, r18
    72ec:	e4 56       	subi	r30, 0x64	; 100
    72ee:	fe 4f       	sbci	r31, 0xFE	; 254
    72f0:	40 81       	ld	r20, Z
    72f2:	51 81       	ldd	r21, Z+1	; 0x01
    72f4:	f9 01       	movw	r30, r18
    72f6:	e8 5d       	subi	r30, 0xD8	; 216
    72f8:	f7 4f       	sbci	r31, 0xF7	; 247
    72fa:	51 83       	std	Z+1, r21	; 0x01
    72fc:	40 83       	st	Z, r20
    72fe:	86 30       	cpi	r24, 0x06	; 6
    7300:	91 05       	cpc	r25, r1
    7302:	79 f7       	brne	.-34     	; 0x72e2 <scene_handler+0x7d6>
    7304:	1f c0       	rjmp	.+62     	; 0x7344 <scene_handler+0x838>
    7306:	80 91 df 05 	lds	r24, 0x05DF	; 0x8005df <this_timmer_nb+0xa>
    730a:	82 30       	cpi	r24, 0x02	; 2
    730c:	41 f5       	brne	.+80     	; 0x735e <scene_handler+0x852>
    730e:	10 92 df 05 	sts	0x05DF, r1	; 0x8005df <this_timmer_nb+0xa>
    7312:	2a e0       	ldi	r18, 0x0A	; 10
    7314:	4e e0       	ldi	r20, 0x0E	; 14
    7316:	6f e2       	ldi	r22, 0x2F	; 47
    7318:	89 e1       	ldi	r24, 0x19	; 25
    731a:	0e 94 57 29 	call	0x52ae	; 0x52ae <ks0108InvertRect>
    731e:	00 e0       	ldi	r16, 0x00	; 0
    7320:	2d e3       	ldi	r18, 0x3D	; 61
    7322:	4d e3       	ldi	r20, 0x3D	; 61
    7324:	61 e0       	ldi	r22, 0x01	; 1
    7326:	81 e0       	ldi	r24, 0x01	; 1
    7328:	0e 94 61 28 	call	0x50c2	; 0x50c2 <ks0108FillRect>
    732c:	80 91 28 08 	lds	r24, 0x0828	; 0x800828 <currentscene>
    7330:	0e 94 64 16 	call	0x2cc8	; 0x2cc8 <_print_texts_scene>
    7334:	80 91 ee 07 	lds	r24, 0x07EE	; 0x8007ee <ps_search_scene>
    7338:	8f 5f       	subi	r24, 0xFF	; 255
    733a:	80 93 ee 07 	sts	0x07EE, r24	; 0x8007ee <ps_search_scene>
    733e:	83 e0       	ldi	r24, 0x03	; 3
    7340:	80 93 69 08 	sts	0x0869, r24	; 0x800869 <kbhandler_app>
    7344:	80 91 ee 07 	lds	r24, 0x07EE	; 0x8007ee <ps_search_scene>
    7348:	82 30       	cpi	r24, 0x02	; 2
    734a:	49 f4       	brne	.+18     	; 0x735e <scene_handler+0x852>
    734c:	10 92 ef 07 	sts	0x07EF, r1	; 0x8007ef <thisps>
    7350:	60 e0       	ldi	r22, 0x00	; 0
    7352:	83 e5       	ldi	r24, 0x53	; 83
    7354:	95 e0       	ldi	r25, 0x05	; 5
    7356:	0e 94 b8 24 	call	0x4970	; 0x4970 <change_operating_mode>
    735a:	10 92 ee 07 	sts	0x07EE, r1	; 0x8007ee <ps_search_scene>
    735e:	df 91       	pop	r29
    7360:	cf 91       	pop	r28
    7362:	1f 91       	pop	r17
    7364:	0f 91       	pop	r16
    7366:	0c 94 52 35 	jmp	0x6aa4	; 0x6aa4 <_borrame_timming>

0000736a <key4_1fmode1>:
    736a:	e0 91 73 06 	lds	r30, 0x0673	; 0x800673 <dialogbox_nb+0xc>
    736e:	f0 91 74 06 	lds	r31, 0x0674	; 0x800674 <dialogbox_nb+0xd>
    7372:	09 95       	icall
    7374:	60 e0       	ldi	r22, 0x00	; 0
    7376:	80 e0       	ldi	r24, 0x00	; 0
    7378:	0c 94 a1 3f 	jmp	0x7f42	; 0x7f42 <playsound>

0000737c <key2_1fmode1>:
    737c:	e0 91 6f 06 	lds	r30, 0x066F	; 0x80066f <dialogbox_nb+0x8>
    7380:	f0 91 70 06 	lds	r31, 0x0670	; 0x800670 <dialogbox_nb+0x9>
    7384:	09 95       	icall
    7386:	60 e0       	ldi	r22, 0x00	; 0
    7388:	80 e0       	ldi	r24, 0x00	; 0
    738a:	0c 94 a1 3f 	jmp	0x7f42	; 0x7f42 <playsound>

0000738e <key1_1fmode1>:
    738e:	e0 91 6d 06 	lds	r30, 0x066D	; 0x80066d <dialogbox_nb+0x6>
    7392:	f0 91 6e 06 	lds	r31, 0x066E	; 0x80066e <dialogbox_nb+0x7>
    7396:	09 95       	icall
    7398:	60 e0       	ldi	r22, 0x00	; 0
    739a:	80 e0       	ldi	r24, 0x00	; 0
    739c:	0c 94 a1 3f 	jmp	0x7f42	; 0x7f42 <playsound>

000073a0 <key4_1fmode0>:
    73a0:	e3 ef       	ldi	r30, 0xF3	; 243
    73a2:	f7 e0       	ldi	r31, 0x07	; 7
    73a4:	81 e0       	ldi	r24, 0x01	; 1
    73a6:	82 83       	std	Z+2, r24	; 0x02
    73a8:	13 82       	std	Z+3, r1	; 0x03
    73aa:	81 83       	std	Z+1, r24	; 0x01
    73ac:	61 e0       	ldi	r22, 0x01	; 1
    73ae:	81 ee       	ldi	r24, 0xE1	; 225
    73b0:	95 e0       	ldi	r25, 0x05	; 5
    73b2:	0e 94 b8 24 	call	0x4970	; 0x4970 <change_operating_mode>
    73b6:	60 e0       	ldi	r22, 0x00	; 0
    73b8:	80 e0       	ldi	r24, 0x00	; 0
    73ba:	0c 94 a1 3f 	jmp	0x7f42	; 0x7f42 <playsound>

000073be <key3_1fmode0>:
    73be:	e0 91 f3 07 	lds	r30, 0x07F3	; 0x8007f3 <thisps>
    73c2:	2e 2f       	mov	r18, r30
    73c4:	0e 2e       	mov	r0, r30
    73c6:	00 0c       	add	r0, r0
    73c8:	33 0b       	sbc	r19, r19
    73ca:	87 e0       	ldi	r24, 0x07	; 7
    73cc:	e8 02       	muls	r30, r24
    73ce:	f0 01       	movw	r30, r0
    73d0:	11 24       	eor	r1, r1
    73d2:	e8 52       	subi	r30, 0x28	; 40
    73d4:	f6 4f       	sbci	r31, 0xF6	; 246
    73d6:	84 81       	ldd	r24, Z+4	; 0x04
    73d8:	8f 5f       	subi	r24, 0xFF	; 255
    73da:	82 30       	cpi	r24, 0x02	; 2
    73dc:	14 f4       	brge	.+4      	; 0x73e2 <key3_1fmode0+0x24>
    73de:	84 83       	std	Z+4, r24	; 0x04
    73e0:	01 c0       	rjmp	.+2      	; 0x73e4 <key3_1fmode0+0x26>
    73e2:	14 82       	std	Z+4, r1	; 0x04
    73e4:	47 e0       	ldi	r20, 0x07	; 7
    73e6:	42 9f       	mul	r20, r18
    73e8:	c0 01       	movw	r24, r0
    73ea:	43 9f       	mul	r20, r19
    73ec:	90 0d       	add	r25, r0
    73ee:	11 24       	eor	r1, r1
    73f0:	88 52       	subi	r24, 0x28	; 40
    73f2:	96 4f       	sbci	r25, 0xF6	; 246
    73f4:	0e 94 40 3f 	call	0x7e80	; 0x7e80 <SetCheckedRadio>
    73f8:	60 e0       	ldi	r22, 0x00	; 0
    73fa:	80 e0       	ldi	r24, 0x00	; 0
    73fc:	0c 94 a1 3f 	jmp	0x7f42	; 0x7f42 <playsound>

00007400 <key3_1fmode0_aft>:
    7400:	0c 94 df 39 	jmp	0x73be	; 0x73be <key3_1fmode0>

00007404 <key2_1fmode0>:
    7404:	ef 92       	push	r14
    7406:	0f 93       	push	r16
    7408:	80 91 f3 07 	lds	r24, 0x07F3	; 0x8007f3 <thisps>
    740c:	9f ef       	ldi	r25, 0xFF	; 255
    740e:	98 0f       	add	r25, r24
    7410:	90 93 f3 07 	sts	0x07F3, r25	; 0x8007f3 <thisps>
    7414:	97 ff       	sbrs	r25, 7
    7416:	0c c0       	rjmp	.+24     	; 0x7430 <key2_1fmode0+0x2c>
    7418:	85 e0       	ldi	r24, 0x05	; 5
    741a:	80 93 f3 07 	sts	0x07F3, r24	; 0x8007f3 <thisps>
    741e:	80 e0       	ldi	r24, 0x00	; 0
    7420:	0e 94 f6 11 	call	0x23ec	; 0x23ec <blink_captionof_barzone_STOP>
    7424:	60 91 d9 09 	lds	r22, 0x09D9	; 0x8009d9 <ObjRadioGroup_SDNDL+0x1>
    7428:	67 50       	subi	r22, 0x07	; 7
    742a:	80 91 d8 09 	lds	r24, 0x09D8	; 0x8009d8 <ObjRadioGroup_SDNDL>
    742e:	13 c0       	rjmp	.+38     	; 0x7456 <key2_1fmode0+0x52>
    7430:	0e 94 f6 11 	call	0x23ec	; 0x23ec <blink_captionof_barzone_STOP>
    7434:	80 91 f3 07 	lds	r24, 0x07F3	; 0x8007f3 <thisps>
    7438:	08 2e       	mov	r0, r24
    743a:	00 0c       	add	r0, r0
    743c:	99 0b       	sbc	r25, r25
    743e:	01 96       	adiw	r24, 0x01	; 1
    7440:	27 e0       	ldi	r18, 0x07	; 7
    7442:	28 9f       	mul	r18, r24
    7444:	f0 01       	movw	r30, r0
    7446:	29 9f       	mul	r18, r25
    7448:	f0 0d       	add	r31, r0
    744a:	11 24       	eor	r1, r1
    744c:	e8 52       	subi	r30, 0x28	; 40
    744e:	f6 4f       	sbci	r31, 0xF6	; 246
    7450:	61 81       	ldd	r22, Z+1	; 0x01
    7452:	67 50       	subi	r22, 0x07	; 7
    7454:	80 81       	ld	r24, Z
    7456:	e1 2c       	mov	r14, r1
    7458:	03 e0       	ldi	r16, 0x03	; 3
    745a:	2f e1       	ldi	r18, 0x1F	; 31
    745c:	4e e0       	ldi	r20, 0x0E	; 14
    745e:	87 50       	subi	r24, 0x07	; 7
    7460:	0e 94 0e 2a 	call	0x541c	; 0x541c <ks0108DrawRoundRect>
    7464:	80 91 f3 07 	lds	r24, 0x07F3	; 0x8007f3 <thisps>
    7468:	08 2e       	mov	r0, r24
    746a:	00 0c       	add	r0, r0
    746c:	99 0b       	sbc	r25, r25
    746e:	fc 01       	movw	r30, r24
    7470:	ee 0f       	add	r30, r30
    7472:	ff 1f       	adc	r31, r31
    7474:	ee 0f       	add	r30, r30
    7476:	ff 1f       	adc	r31, r31
    7478:	ed 5e       	subi	r30, 0xED	; 237
    747a:	f7 4f       	sbci	r31, 0xF7	; 247
    747c:	20 81       	ld	r18, Z
    747e:	21 60       	ori	r18, 0x01	; 1
    7480:	20 83       	st	Z, r18
    7482:	27 e0       	ldi	r18, 0x07	; 7
    7484:	28 9f       	mul	r18, r24
    7486:	f0 01       	movw	r30, r0
    7488:	29 9f       	mul	r18, r25
    748a:	f0 0d       	add	r31, r0
    748c:	11 24       	eor	r1, r1
    748e:	e8 52       	subi	r30, 0x28	; 40
    7490:	f6 4f       	sbci	r31, 0xF6	; 246
    7492:	61 81       	ldd	r22, Z+1	; 0x01
    7494:	67 50       	subi	r22, 0x07	; 7
    7496:	80 81       	ld	r24, Z
    7498:	ee 24       	eor	r14, r14
    749a:	ea 94       	dec	r14
    749c:	03 e0       	ldi	r16, 0x03	; 3
    749e:	2f e1       	ldi	r18, 0x1F	; 31
    74a0:	4e e0       	ldi	r20, 0x0E	; 14
    74a2:	87 50       	subi	r24, 0x07	; 7
    74a4:	0e 94 0e 2a 	call	0x541c	; 0x541c <ks0108DrawRoundRect>
    74a8:	60 e0       	ldi	r22, 0x00	; 0
    74aa:	80 e0       	ldi	r24, 0x00	; 0
    74ac:	0f 91       	pop	r16
    74ae:	ef 90       	pop	r14
    74b0:	0c 94 a1 3f 	jmp	0x7f42	; 0x7f42 <playsound>

000074b4 <key1_1fmode0>:
    74b4:	ef 92       	push	r14
    74b6:	0f 93       	push	r16
    74b8:	80 91 f3 07 	lds	r24, 0x07F3	; 0x8007f3 <thisps>
    74bc:	91 e0       	ldi	r25, 0x01	; 1
    74be:	98 0f       	add	r25, r24
    74c0:	90 93 f3 07 	sts	0x07F3, r25	; 0x8007f3 <thisps>
    74c4:	96 30       	cpi	r25, 0x06	; 6
    74c6:	5c f0       	brlt	.+22     	; 0x74de <key1_1fmode0+0x2a>
    74c8:	10 92 f3 07 	sts	0x07F3, r1	; 0x8007f3 <thisps>
    74cc:	85 e0       	ldi	r24, 0x05	; 5
    74ce:	0e 94 f6 11 	call	0x23ec	; 0x23ec <blink_captionof_barzone_STOP>
    74d2:	60 91 fc 09 	lds	r22, 0x09FC	; 0x8009fc <ObjRadioGroup_SDNDL+0x24>
    74d6:	67 50       	subi	r22, 0x07	; 7
    74d8:	80 91 fb 09 	lds	r24, 0x09FB	; 0x8009fb <ObjRadioGroup_SDNDL+0x23>
    74dc:	13 c0       	rjmp	.+38     	; 0x7504 <key1_1fmode0+0x50>
    74de:	0e 94 f6 11 	call	0x23ec	; 0x23ec <blink_captionof_barzone_STOP>
    74e2:	80 91 f3 07 	lds	r24, 0x07F3	; 0x8007f3 <thisps>
    74e6:	08 2e       	mov	r0, r24
    74e8:	00 0c       	add	r0, r0
    74ea:	99 0b       	sbc	r25, r25
    74ec:	01 97       	sbiw	r24, 0x01	; 1
    74ee:	27 e0       	ldi	r18, 0x07	; 7
    74f0:	28 9f       	mul	r18, r24
    74f2:	f0 01       	movw	r30, r0
    74f4:	29 9f       	mul	r18, r25
    74f6:	f0 0d       	add	r31, r0
    74f8:	11 24       	eor	r1, r1
    74fa:	e8 52       	subi	r30, 0x28	; 40
    74fc:	f6 4f       	sbci	r31, 0xF6	; 246
    74fe:	61 81       	ldd	r22, Z+1	; 0x01
    7500:	67 50       	subi	r22, 0x07	; 7
    7502:	80 81       	ld	r24, Z
    7504:	e1 2c       	mov	r14, r1
    7506:	03 e0       	ldi	r16, 0x03	; 3
    7508:	2f e1       	ldi	r18, 0x1F	; 31
    750a:	4e e0       	ldi	r20, 0x0E	; 14
    750c:	87 50       	subi	r24, 0x07	; 7
    750e:	0e 94 0e 2a 	call	0x541c	; 0x541c <ks0108DrawRoundRect>
    7512:	80 91 f3 07 	lds	r24, 0x07F3	; 0x8007f3 <thisps>
    7516:	08 2e       	mov	r0, r24
    7518:	00 0c       	add	r0, r0
    751a:	99 0b       	sbc	r25, r25
    751c:	fc 01       	movw	r30, r24
    751e:	ee 0f       	add	r30, r30
    7520:	ff 1f       	adc	r31, r31
    7522:	ee 0f       	add	r30, r30
    7524:	ff 1f       	adc	r31, r31
    7526:	ed 5e       	subi	r30, 0xED	; 237
    7528:	f7 4f       	sbci	r31, 0xF7	; 247
    752a:	20 81       	ld	r18, Z
    752c:	21 60       	ori	r18, 0x01	; 1
    752e:	20 83       	st	Z, r18
    7530:	27 e0       	ldi	r18, 0x07	; 7
    7532:	28 9f       	mul	r18, r24
    7534:	f0 01       	movw	r30, r0
    7536:	29 9f       	mul	r18, r25
    7538:	f0 0d       	add	r31, r0
    753a:	11 24       	eor	r1, r1
    753c:	e8 52       	subi	r30, 0x28	; 40
    753e:	f6 4f       	sbci	r31, 0xF6	; 246
    7540:	61 81       	ldd	r22, Z+1	; 0x01
    7542:	67 50       	subi	r22, 0x07	; 7
    7544:	80 81       	ld	r24, Z
    7546:	ee 24       	eor	r14, r14
    7548:	ea 94       	dec	r14
    754a:	03 e0       	ldi	r16, 0x03	; 3
    754c:	2f e1       	ldi	r18, 0x1F	; 31
    754e:	4e e0       	ldi	r20, 0x0E	; 14
    7550:	87 50       	subi	r24, 0x07	; 7
    7552:	0e 94 0e 2a 	call	0x541c	; 0x541c <ks0108DrawRoundRect>
    7556:	60 e0       	ldi	r22, 0x00	; 0
    7558:	80 e0       	ldi	r24, 0x00	; 0
    755a:	0f 91       	pop	r16
    755c:	ef 90       	pop	r14
    755e:	0c 94 a1 3f 	jmp	0x7f42	; 0x7f42 <playsound>

00007562 <key3_1fmode1>:
    7562:	e0 91 71 06 	lds	r30, 0x0671	; 0x800671 <dialogbox_nb+0xa>
    7566:	f0 91 72 06 	lds	r31, 0x0672	; 0x800672 <dialogbox_nb+0xb>
    756a:	09 95       	icall
    756c:	80 91 69 06 	lds	r24, 0x0669	; 0x800669 <dialogbox_nb+0x2>
    7570:	81 11       	cpse	r24, r1
    7572:	02 c0       	rjmp	.+4      	; 0x7578 <key3_1fmode1+0x16>
    7574:	61 e0       	ldi	r22, 0x01	; 1
    7576:	06 c0       	rjmp	.+12     	; 0x7584 <key3_1fmode1+0x22>
    7578:	80 91 69 06 	lds	r24, 0x0669	; 0x800669 <dialogbox_nb+0x2>
    757c:	81 30       	cpi	r24, 0x01	; 1
    757e:	21 f4       	brne	.+8      	; 0x7588 <key3_1fmode1+0x26>
    7580:	60 e0       	ldi	r22, 0x00	; 0
    7582:	80 e0       	ldi	r24, 0x00	; 0
    7584:	0c 94 a1 3f 	jmp	0x7f42	; 0x7f42 <playsound>
    7588:	08 95       	ret

0000758a <key3_1fmode1_aft>:
    758a:	0c 94 b1 3a 	jmp	0x7562	; 0x7562 <key3_1fmode1>

0000758e <_return2shell>:
    758e:	80 91 f3 07 	lds	r24, 0x07F3	; 0x8007f3 <thisps>
    7592:	0e 94 f6 11 	call	0x23ec	; 0x23ec <blink_captionof_barzone_STOP>
    7596:	82 e0       	ldi	r24, 0x02	; 2
    7598:	80 93 10 0a 	sts	0x0A10, r24	; 0x800a10 <shell>
    759c:	10 92 f5 07 	sts	0x07F5, r1	; 0x8007f5 <thisps+0x2>
    75a0:	10 92 f6 07 	sts	0x07F6, r1	; 0x8007f6 <thisps+0x3>
    75a4:	80 91 f7 07 	lds	r24, 0x07F7	; 0x8007f7 <thisps+0x4>
    75a8:	81 11       	cpse	r24, r1
    75aa:	04 c0       	rjmp	.+8      	; 0x75b4 <_return2shell+0x26>
    75ac:	83 e0       	ldi	r24, 0x03	; 3
    75ae:	80 93 69 08 	sts	0x0869, r24	; 0x800869 <kbhandler_app>
    75b2:	08 95       	ret
    75b4:	82 30       	cpi	r24, 0x02	; 2
    75b6:	29 f4       	brne	.+10     	; 0x75c2 <_return2shell+0x34>
    75b8:	67 e6       	ldi	r22, 0x67	; 103
    75ba:	78 e0       	ldi	r23, 0x08	; 8
    75bc:	83 e0       	ldi	r24, 0x03	; 3
    75be:	0c 94 9f 23 	jmp	0x473e	; 0x473e <synch_change_layout_kb>
    75c2:	08 95       	ret

000075c4 <key3_2fmode0>:
    75c4:	61 e0       	ldi	r22, 0x01	; 1
    75c6:	80 e0       	ldi	r24, 0x00	; 0
    75c8:	0e 94 a1 3f 	call	0x7f42	; 0x7f42 <playsound>
    75cc:	0c 94 c7 3a 	jmp	0x758e	; 0x758e <_return2shell>

000075d0 <RG_SDNDL_Init_AllRadios>:
    75d0:	ff 92       	push	r15
    75d2:	0f 93       	push	r16
    75d4:	1f 93       	push	r17
    75d6:	cf 93       	push	r28
    75d8:	df 93       	push	r29
    75da:	c8 ed       	ldi	r28, 0xD8	; 216
    75dc:	d9 e0       	ldi	r29, 0x09	; 9
    75de:	1e e4       	ldi	r17, 0x4E	; 78
    75e0:	0f ef       	ldi	r16, 0xFF	; 255
    75e2:	82 e0       	ldi	r24, 0x02	; 2
    75e4:	f8 2e       	mov	r15, r24
    75e6:	28 e1       	ldi	r18, 0x18	; 24
    75e8:	41 2f       	mov	r20, r17
    75ea:	60 e0       	ldi	r22, 0x00	; 0
    75ec:	ce 01       	movw	r24, r28
    75ee:	0e 94 76 3f 	call	0x7eec	; 0x7eec <InitRadio_xy>
    75f2:	29 e2       	ldi	r18, 0x29	; 41
    75f4:	41 2f       	mov	r20, r17
    75f6:	61 e0       	ldi	r22, 0x01	; 1
    75f8:	ce 01       	movw	r24, r28
    75fa:	0e 94 76 3f 	call	0x7eec	; 0x7eec <InitRadio_xy>
    75fe:	0c 83       	std	Y+4, r16	; 0x04
    7600:	0d 83       	std	Y+5, r16	; 0x05
    7602:	fe 82       	std	Y+6, r15	; 0x06
    7604:	27 96       	adiw	r28, 0x07	; 7
    7606:	1c 5e       	subi	r17, 0xEC	; 236
    7608:	16 3c       	cpi	r17, 0xC6	; 198
    760a:	69 f7       	brne	.-38     	; 0x75e6 <RG_SDNDL_Init_AllRadios+0x16>
    760c:	df 91       	pop	r29
    760e:	cf 91       	pop	r28
    7610:	1f 91       	pop	r17
    7612:	0f 91       	pop	r16
    7614:	ff 90       	pop	r15
    7616:	08 95       	ret

00007618 <RG_SDNDL_DrawOuter_AllRadios>:
    7618:	cf 93       	push	r28
    761a:	df 93       	push	r29
    761c:	c8 ed       	ldi	r28, 0xD8	; 216
    761e:	d9 e0       	ldi	r29, 0x09	; 9
    7620:	ce 01       	movw	r24, r28
    7622:	0e 94 7e 3f 	call	0x7efc	; 0x7efc <DrawOuterRadioButtonThisGroup>
    7626:	27 96       	adiw	r28, 0x07	; 7
    7628:	8a e0       	ldi	r24, 0x0A	; 10
    762a:	c2 30       	cpi	r28, 0x02	; 2
    762c:	d8 07       	cpc	r29, r24
    762e:	c1 f7       	brne	.-16     	; 0x7620 <RG_SDNDL_DrawOuter_AllRadios+0x8>
    7630:	df 91       	pop	r29
    7632:	cf 91       	pop	r28
    7634:	08 95       	ret

00007636 <RG_SDNDL_Menu_Texts>:
    7636:	4f ef       	ldi	r20, 0xFF	; 255
    7638:	64 e4       	ldi	r22, 0x44	; 68
    763a:	75 e2       	ldi	r23, 0x25	; 37
    763c:	86 e0       	ldi	r24, 0x06	; 6
    763e:	90 e1       	ldi	r25, 0x10	; 16
    7640:	0e 94 47 25 	call	0x4a8e	; 0x4a8e <ks0108SelectFont>
    7644:	61 e1       	ldi	r22, 0x11	; 17
    7646:	88 e0       	ldi	r24, 0x08	; 8
    7648:	0e 94 da 25 	call	0x4bb4	; 0x4bb4 <ks0108GotoXY>
    764c:	85 e6       	ldi	r24, 0x65	; 101
    764e:	95 e1       	ldi	r25, 0x15	; 21
    7650:	0e 94 11 2c 	call	0x5822	; 0x5822 <ks0108Puts_P>
    7654:	63 e2       	ldi	r22, 0x23	; 35
    7656:	88 e0       	ldi	r24, 0x08	; 8
    7658:	0e 94 da 25 	call	0x4bb4	; 0x4bb4 <ks0108GotoXY>
    765c:	8c e5       	ldi	r24, 0x5C	; 92
    765e:	95 e1       	ldi	r25, 0x15	; 21
    7660:	0e 94 11 2c 	call	0x5822	; 0x5822 <ks0108Puts_P>
    7664:	63 e0       	ldi	r22, 0x03	; 3
    7666:	8a e0       	ldi	r24, 0x0A	; 10
    7668:	0e 94 da 25 	call	0x4bb4	; 0x4bb4 <ks0108GotoXY>
    766c:	85 e5       	ldi	r24, 0x55	; 85
    766e:	95 e1       	ldi	r25, 0x15	; 21
    7670:	0e 94 11 2c 	call	0x5822	; 0x5822 <ks0108Puts_P>
    7674:	2c e0       	ldi	r18, 0x0C	; 12
    7676:	4c e3       	ldi	r20, 0x3C	; 60
    7678:	62 e0       	ldi	r22, 0x02	; 2
    767a:	82 e0       	ldi	r24, 0x02	; 2
    767c:	0c 94 57 29 	jmp	0x52ae	; 0x52ae <ks0108InvertRect>

00007680 <RG_SDNDL_Menu>:
    7680:	7f 92       	push	r7
    7682:	8f 92       	push	r8
    7684:	9f 92       	push	r9
    7686:	af 92       	push	r10
    7688:	bf 92       	push	r11
    768a:	cf 92       	push	r12
    768c:	df 92       	push	r13
    768e:	ef 92       	push	r14
    7690:	ff 92       	push	r15
    7692:	0f 93       	push	r16
    7694:	1f 93       	push	r17
    7696:	cf 93       	push	r28
    7698:	df 93       	push	r29
    769a:	80 91 f5 07 	lds	r24, 0x07F5	; 0x8007f5 <thisps+0x2>
    769e:	81 11       	cpse	r24, r1
    76a0:	76 c0       	rjmp	.+236    	; 0x778e <RG_SDNDL_Menu+0x10e>
    76a2:	80 91 f6 07 	lds	r24, 0x07F6	; 0x8007f6 <thisps+0x3>
    76a6:	81 11       	cpse	r24, r1
    76a8:	65 c0       	rjmp	.+202    	; 0x7774 <RG_SDNDL_Menu+0xf4>
    76aa:	81 e0       	ldi	r24, 0x01	; 1
    76ac:	80 93 f6 07 	sts	0x07F6, r24	; 0x8007f6 <thisps+0x3>
    76b0:	00 e0       	ldi	r16, 0x00	; 0
    76b2:	2f e3       	ldi	r18, 0x3F	; 63
    76b4:	4f eb       	ldi	r20, 0xBF	; 191
    76b6:	60 e0       	ldi	r22, 0x00	; 0
    76b8:	80 e0       	ldi	r24, 0x00	; 0
    76ba:	0e 94 61 28 	call	0x50c2	; 0x50c2 <ks0108FillRect>
    76be:	0f ef       	ldi	r16, 0xFF	; 255
    76c0:	2f e3       	ldi	r18, 0x3F	; 63
    76c2:	4f eb       	ldi	r20, 0xBF	; 191
    76c4:	60 e0       	ldi	r22, 0x00	; 0
    76c6:	80 e0       	ldi	r24, 0x00	; 0
    76c8:	0e 94 f4 28 	call	0x51e8	; 0x51e8 <ks0108DrawRect>
    76cc:	0e 94 fc 1c 	call	0x39f8	; 0x39f8 <CaptionOfAllZones>
    76d0:	20 e0       	ldi	r18, 0x00	; 0
    76d2:	4e e7       	ldi	r20, 0x7E	; 126
    76d4:	6e e0       	ldi	r22, 0x0E	; 14
    76d6:	80 e4       	ldi	r24, 0x40	; 64
    76d8:	0e 94 61 28 	call	0x50c2	; 0x50c2 <ks0108FillRect>
    76dc:	2c e0       	ldi	r18, 0x0C	; 12
    76de:	40 e0       	ldi	r20, 0x00	; 0
    76e0:	61 e0       	ldi	r22, 0x01	; 1
    76e2:	80 e4       	ldi	r24, 0x40	; 64
    76e4:	0e 94 61 28 	call	0x50c2	; 0x50c2 <ks0108FillRect>
    76e8:	0e 94 1b 3b 	call	0x7636	; 0x7636 <RG_SDNDL_Menu_Texts>
    76ec:	0e 94 0c 3b 	call	0x7618	; 0x7618 <RG_SDNDL_DrawOuter_AllRadios>
    76f0:	08 ed       	ldi	r16, 0xD8	; 216
    76f2:	19 e0       	ldi	r17, 0x09	; 9
    76f4:	c0 e0       	ldi	r28, 0x00	; 0
    76f6:	d0 e0       	ldi	r29, 0x00	; 0
    76f8:	74 e2       	ldi	r23, 0x24	; 36
    76fa:	f7 2e       	mov	r15, r23
    76fc:	fc 9e       	mul	r15, r28
    76fe:	f0 01       	movw	r30, r0
    7700:	fd 9e       	mul	r15, r29
    7702:	f0 0d       	add	r31, r0
    7704:	11 24       	eor	r1, r1
    7706:	ee 59       	subi	r30, 0x9E	; 158
    7708:	f5 4f       	sbci	r31, 0xF5	; 245
    770a:	86 81       	ldd	r24, Z+6	; 0x06
    770c:	f8 01       	movw	r30, r16
    770e:	84 83       	std	Z+4, r24	; 0x04
    7710:	c8 01       	movw	r24, r16
    7712:	0e 94 40 3f 	call	0x7e80	; 0x7e80 <SetCheckedRadio>
    7716:	21 96       	adiw	r28, 0x01	; 1
    7718:	09 5f       	subi	r16, 0xF9	; 249
    771a:	1f 4f       	sbci	r17, 0xFF	; 255
    771c:	c6 30       	cpi	r28, 0x06	; 6
    771e:	d1 05       	cpc	r29, r1
    7720:	69 f7       	brne	.-38     	; 0x76fc <RG_SDNDL_Menu+0x7c>
    7722:	80 91 f3 07 	lds	r24, 0x07F3	; 0x8007f3 <thisps>
    7726:	08 2e       	mov	r0, r24
    7728:	00 0c       	add	r0, r0
    772a:	99 0b       	sbc	r25, r25
    772c:	fc 01       	movw	r30, r24
    772e:	ee 0f       	add	r30, r30
    7730:	ff 1f       	adc	r31, r31
    7732:	ee 0f       	add	r30, r30
    7734:	ff 1f       	adc	r31, r31
    7736:	ed 5e       	subi	r30, 0xED	; 237
    7738:	f7 4f       	sbci	r31, 0xF7	; 247
    773a:	20 81       	ld	r18, Z
    773c:	21 60       	ori	r18, 0x01	; 1
    773e:	20 83       	st	Z, r18
    7740:	27 e0       	ldi	r18, 0x07	; 7
    7742:	28 9f       	mul	r18, r24
    7744:	f0 01       	movw	r30, r0
    7746:	29 9f       	mul	r18, r25
    7748:	f0 0d       	add	r31, r0
    774a:	11 24       	eor	r1, r1
    774c:	e8 52       	subi	r30, 0x28	; 40
    774e:	f6 4f       	sbci	r31, 0xF6	; 246
    7750:	61 81       	ldd	r22, Z+1	; 0x01
    7752:	67 50       	subi	r22, 0x07	; 7
    7754:	80 81       	ld	r24, Z
    7756:	ee 24       	eor	r14, r14
    7758:	ea 94       	dec	r14
    775a:	03 e0       	ldi	r16, 0x03	; 3
    775c:	2f e1       	ldi	r18, 0x1F	; 31
    775e:	4e e0       	ldi	r20, 0x0E	; 14
    7760:	87 50       	subi	r24, 0x07	; 7
    7762:	0e 94 0e 2a 	call	0x541c	; 0x541c <ks0108DrawRoundRect>
    7766:	10 92 f4 07 	sts	0x07F4, r1	; 0x8007f4 <thisps+0x1>
    776a:	60 e0       	ldi	r22, 0x00	; 0
    776c:	81 ee       	ldi	r24, 0xE1	; 225
    776e:	95 e0       	ldi	r25, 0x05	; 5
    7770:	0e 94 b8 24 	call	0x4970	; 0x4970 <change_operating_mode>
    7774:	83 e6       	ldi	r24, 0x63	; 99
    7776:	96 e0       	ldi	r25, 0x06	; 6
    7778:	0e 94 7e 46 	call	0x8cfc	; 0x8cfc <timmer_nb__reset_counter>
    777c:	83 e6       	ldi	r24, 0x63	; 99
    777e:	96 e0       	ldi	r25, 0x06	; 6
    7780:	0e 94 81 46 	call	0x8d02	; 0x8d02 <timmer_nb__reset_sm_app>
    7784:	8f ef       	ldi	r24, 0xFF	; 255
    7786:	80 93 f5 07 	sts	0x07F5, r24	; 0x8007f5 <thisps+0x2>
    778a:	10 92 f6 07 	sts	0x07F6, r1	; 0x8007f6 <thisps+0x3>
    778e:	80 91 f5 07 	lds	r24, 0x07F5	; 0x8007f5 <thisps+0x2>
    7792:	81 30       	cpi	r24, 0x01	; 1
    7794:	09 f0       	breq	.+2      	; 0x7798 <RG_SDNDL_Menu+0x118>
    7796:	43 c1       	rjmp	.+646    	; 0x7a1e <RG_SDNDL_Menu+0x39e>
    7798:	90 91 f6 07 	lds	r25, 0x07F6	; 0x8007f6 <thisps+0x3>
    779c:	91 11       	cpse	r25, r1
    779e:	1c c0       	rjmp	.+56     	; 0x77d8 <RG_SDNDL_Menu+0x158>
    77a0:	80 93 f6 07 	sts	0x07F6, r24	; 0x8007f6 <thisps+0x3>
    77a4:	4f e1       	ldi	r20, 0x1F	; 31
    77a6:	6f e1       	ldi	r22, 0x1F	; 31
    77a8:	8f e1       	ldi	r24, 0x1F	; 31
    77aa:	0e 94 02 1c 	call	0x3804	; 0x3804 <ClearFromCenter_GrowingSymmetric>
    77ae:	63 e1       	ldi	r22, 0x13	; 19
    77b0:	8a e0       	ldi	r24, 0x0A	; 10
    77b2:	0e 94 da 25 	call	0x4bb4	; 0x4bb4 <ks0108GotoXY>
    77b6:	8d e4       	ldi	r24, 0x4D	; 77
    77b8:	95 e1       	ldi	r25, 0x15	; 21
    77ba:	0e 94 11 2c 	call	0x5822	; 0x5822 <ks0108Puts_P>
    77be:	6f e1       	ldi	r22, 0x1F	; 31
    77c0:	8a e0       	ldi	r24, 0x0A	; 10
    77c2:	0e 94 da 25 	call	0x4bb4	; 0x4bb4 <ks0108GotoXY>
    77c6:	84 e4       	ldi	r24, 0x44	; 68
    77c8:	95 e1       	ldi	r25, 0x15	; 21
    77ca:	0e 94 11 2c 	call	0x5822	; 0x5822 <ks0108Puts_P>
    77ce:	41 e0       	ldi	r20, 0x01	; 1
    77d0:	62 e0       	ldi	r22, 0x02	; 2
    77d2:	82 e0       	ldi	r24, 0x02	; 2
    77d4:	0e 94 e6 3d 	call	0x7bcc	; 0x7bcc <dialogbox_sino>
    77d8:	80 91 f6 07 	lds	r24, 0x07F6	; 0x8007f6 <thisps+0x3>
    77dc:	81 30       	cpi	r24, 0x01	; 1
    77de:	09 f0       	breq	.+2      	; 0x77e2 <RG_SDNDL_Menu+0x162>
    77e0:	1e c1       	rjmp	.+572    	; 0x7a1e <RG_SDNDL_Menu+0x39e>
    77e2:	80 91 6a 06 	lds	r24, 0x066A	; 0x80066a <dialogbox_nb+0x3>
    77e6:	87 fd       	sbrc	r24, 7
    77e8:	1a c1       	rjmp	.+564    	; 0x7a1e <RG_SDNDL_Menu+0x39e>
    77ea:	80 91 6a 06 	lds	r24, 0x066A	; 0x80066a <dialogbox_nb+0x3>
    77ee:	81 30       	cpi	r24, 0x01	; 1
    77f0:	09 f0       	breq	.+2      	; 0x77f4 <RG_SDNDL_Menu+0x174>
    77f2:	05 c1       	rjmp	.+522    	; 0x79fe <RG_SDNDL_Menu+0x37e>
    77f4:	80 91 65 06 	lds	r24, 0x0665	; 0x800665 <this_timmer_nb+0x2>
    77f8:	81 11       	cpse	r24, r1
    77fa:	f2 c0       	rjmp	.+484    	; 0x79e0 <RG_SDNDL_Menu+0x360>
    77fc:	38 ed       	ldi	r19, 0xD8	; 216
    77fe:	a3 2e       	mov	r10, r19
    7800:	39 e0       	ldi	r19, 0x09	; 9
    7802:	b3 2e       	mov	r11, r19
    7804:	46 e0       	ldi	r20, 0x06	; 6
    7806:	c4 2e       	mov	r12, r20
    7808:	44 e0       	ldi	r20, 0x04	; 4
    780a:	d4 2e       	mov	r13, r20
    780c:	c0 e0       	ldi	r28, 0x00	; 0
    780e:	d0 e0       	ldi	r29, 0x00	; 0
    7810:	54 e2       	ldi	r21, 0x24	; 36
    7812:	e5 2e       	mov	r14, r21
    7814:	7c 2e       	mov	r7, r28
    7816:	ec 9e       	mul	r14, r28
    7818:	80 01       	movw	r16, r0
    781a:	ed 9e       	mul	r14, r29
    781c:	10 0d       	add	r17, r0
    781e:	11 24       	eor	r1, r1
    7820:	d8 01       	movw	r26, r16
    7822:	ae 59       	subi	r26, 0x9E	; 158
    7824:	b5 4f       	sbci	r27, 0xF5	; 245
    7826:	16 96       	adiw	r26, 0x06	; 6
    7828:	8c 91       	ld	r24, X
    782a:	16 97       	sbiw	r26, 0x06	; 6
    782c:	f5 01       	movw	r30, r10
    782e:	24 81       	ldd	r18, Z+4	; 0x04
    7830:	90 e0       	ldi	r25, 0x00	; 0
    7832:	42 2f       	mov	r20, r18
    7834:	02 2e       	mov	r0, r18
    7836:	00 0c       	add	r0, r0
    7838:	55 0b       	sbc	r21, r21
    783a:	be 01       	movw	r22, r28
    783c:	6f 5f       	subi	r22, 0xFF	; 255
    783e:	7f 4f       	sbci	r23, 0xFF	; 255
    7840:	4b 01       	movw	r8, r22
    7842:	84 17       	cp	r24, r20
    7844:	95 07       	cpc	r25, r21
    7846:	09 f4       	brne	.+2      	; 0x784a <RG_SDNDL_Menu+0x1ca>
    7848:	97 c0       	rjmp	.+302    	; 0x7978 <RG_SDNDL_Menu+0x2f8>
    784a:	16 96       	adiw	r26, 0x06	; 6
    784c:	2c 93       	st	X, r18
    784e:	16 97       	sbiw	r26, 0x06	; 6
    7850:	16 96       	adiw	r26, 0x06	; 6
    7852:	8c 91       	ld	r24, X
    7854:	16 97       	sbiw	r26, 0x06	; 6
    7856:	81 11       	cpse	r24, r1
    7858:	77 c0       	rjmp	.+238    	; 0x7948 <RG_SDNDL_Menu+0x2c8>
    785a:	f8 01       	movw	r30, r16
    785c:	e6 58       	subi	r30, 0x86	; 134
    785e:	f5 4f       	sbci	r31, 0xF5	; 245
    7860:	80 81       	ld	r24, Z
    7862:	80 ff       	sbrs	r24, 0
    7864:	03 c0       	rjmp	.+6      	; 0x786c <RG_SDNDL_Menu+0x1ec>
    7866:	80 81       	ld	r24, Z
    7868:	8e 7f       	andi	r24, 0xFE	; 254
    786a:	80 83       	st	Z, r24
    786c:	87 2d       	mov	r24, r7
    786e:	0e 94 7c 0d 	call	0x1af8	; 0x1af8 <if_fadingactive_nextdc_else_dc>
    7872:	ec 9e       	mul	r14, r28
    7874:	f0 01       	movw	r30, r0
    7876:	ed 9e       	mul	r14, r29
    7878:	f0 0d       	add	r31, r0
    787a:	11 24       	eor	r1, r1
    787c:	ee 59       	subi	r30, 0x9E	; 158
    787e:	f5 4f       	sbci	r31, 0xF5	; 245
    7880:	25 8d       	ldd	r18, Z+29	; 0x1d
    7882:	36 8d       	ldd	r19, Z+30	; 0x1e
    7884:	28 17       	cp	r18, r24
    7886:	39 07       	cpc	r19, r25
    7888:	50 f4       	brcc	.+20     	; 0x789e <RG_SDNDL_Menu+0x21e>
    788a:	80 91 01 01 	lds	r24, 0x0101	; 0x800101 <NUM_ELEM_DENTRO_BAR>
    788e:	90 91 00 01 	lds	r25, 0x0100	; 0x800100 <__DATA_REGION_ORIGIN__>
    7892:	89 9f       	mul	r24, r25
    7894:	c0 01       	movw	r24, r0
    7896:	11 24       	eor	r1, r1
    7898:	91 87       	std	Z+9, r25	; 0x09
    789a:	80 87       	std	Z+8, r24	; 0x08
    789c:	02 c0       	rjmp	.+4      	; 0x78a2 <RG_SDNDL_Menu+0x222>
    789e:	11 86       	std	Z+9, r1	; 0x09
    78a0:	10 86       	std	Z+8, r1	; 0x08
    78a2:	ec 9e       	mul	r14, r28
    78a4:	80 01       	movw	r16, r0
    78a6:	ed 9e       	mul	r14, r29
    78a8:	10 0d       	add	r17, r0
    78aa:	11 24       	eor	r1, r1
    78ac:	0e 59       	subi	r16, 0x9E	; 158
    78ae:	15 4f       	sbci	r17, 0xF5	; 245
    78b0:	f8 01       	movw	r30, r16
    78b2:	60 85       	ldd	r22, Z+8	; 0x08
    78b4:	71 85       	ldd	r23, Z+9	; 0x09
    78b6:	87 2d       	mov	r24, r7
    78b8:	0e 94 97 0c 	call	0x192e	; 0x192e <updatedc>
    78bc:	f8 01       	movw	r30, r16
    78be:	80 85       	ldd	r24, Z+8	; 0x08
    78c0:	91 85       	ldd	r25, Z+9	; 0x09
    78c2:	f4 01       	movw	r30, r8
    78c4:	ee 0f       	add	r30, r30
    78c6:	ff 1f       	adc	r31, r31
    78c8:	e8 5d       	subi	r30, 0xD8	; 216
    78ca:	f7 4f       	sbci	r31, 0xF7	; 247
    78cc:	91 83       	std	Z+1, r25	; 0x01
    78ce:	80 83       	st	Z, r24
    78d0:	80 91 36 08 	lds	r24, 0x0836	; 0x800836 <ps_scene>
    78d4:	88 23       	and	r24, r24
    78d6:	f1 f0       	breq	.+60     	; 0x7914 <RG_SDNDL_Menu+0x294>
    78d8:	f1 2c       	mov	r15, r1
    78da:	03 5e       	subi	r16, 0xE3	; 227
    78dc:	1f 4f       	sbci	r17, 0xFF	; 255
    78de:	16 c0       	rjmp	.+44     	; 0x790c <RG_SDNDL_Menu+0x28c>
    78e0:	67 2d       	mov	r22, r7
    78e2:	8f 2d       	mov	r24, r15
    78e4:	0e 94 a1 15 	call	0x2b42	; 0x2b42 <get_dcofzone_ofscene_EEP>
    78e8:	f8 01       	movw	r30, r16
    78ea:	20 81       	ld	r18, Z
    78ec:	31 81       	ldd	r19, Z+1	; 0x01
    78ee:	28 17       	cp	r18, r24
    78f0:	39 07       	cpc	r19, r25
    78f2:	38 f5       	brcc	.+78     	; 0x7942 <RG_SDNDL_Menu+0x2c2>
    78f4:	80 91 01 01 	lds	r24, 0x0101	; 0x800101 <NUM_ELEM_DENTRO_BAR>
    78f8:	40 91 00 01 	lds	r20, 0x0100	; 0x800100 <__DATA_REGION_ORIGIN__>
    78fc:	84 9f       	mul	r24, r20
    78fe:	a0 01       	movw	r20, r0
    7900:	11 24       	eor	r1, r1
    7902:	67 2d       	mov	r22, r7
    7904:	8f 2d       	mov	r24, r15
    7906:	0e 94 af 15 	call	0x2b5e	; 0x2b5e <set_dcofzone_ofscene_EPP>
    790a:	f3 94       	inc	r15
    790c:	80 91 36 08 	lds	r24, 0x0836	; 0x800836 <ps_scene>
    7910:	f8 16       	cp	r15, r24
    7912:	30 f3       	brcs	.-52     	; 0x78e0 <RG_SDNDL_Menu+0x260>
    7914:	ec 9e       	mul	r14, r28
    7916:	f0 01       	movw	r30, r0
    7918:	ed 9e       	mul	r14, r29
    791a:	f0 0d       	add	r31, r0
    791c:	11 24       	eor	r1, r1
    791e:	df 01       	movw	r26, r30
    7920:	ae 59       	subi	r26, 0x9E	; 158
    7922:	b5 4f       	sbci	r27, 0xF5	; 245
    7924:	1b 96       	adiw	r26, 0x0b	; 11
    7926:	1c 92       	st	X, r1
    7928:	1e 92       	st	-X, r1
    792a:	1a 97       	sbiw	r26, 0x0a	; 10
    792c:	e2 59       	subi	r30, 0x92	; 146
    792e:	f5 4f       	sbci	r31, 0xF5	; 245
    7930:	80 81       	ld	r24, Z
    7932:	8e 7f       	andi	r24, 0xFE	; 254
    7934:	80 83       	st	Z, r24
    7936:	5a 96       	adiw	r26, 0x1a	; 26
    7938:	1c 92       	st	X, r1
    793a:	5a 97       	sbiw	r26, 0x1a	; 26
    793c:	17 96       	adiw	r26, 0x07	; 7
    793e:	1c 92       	st	X, r1
    7940:	0a c0       	rjmp	.+20     	; 0x7956 <RG_SDNDL_Menu+0x2d6>
    7942:	40 e0       	ldi	r20, 0x00	; 0
    7944:	50 e0       	ldi	r21, 0x00	; 0
    7946:	dd cf       	rjmp	.-70     	; 0x7902 <RG_SDNDL_Menu+0x282>
    7948:	16 96       	adiw	r26, 0x06	; 6
    794a:	8c 91       	ld	r24, X
    794c:	16 97       	sbiw	r26, 0x06	; 6
    794e:	81 30       	cpi	r24, 0x01	; 1
    7950:	11 f4       	brne	.+4      	; 0x7956 <RG_SDNDL_Menu+0x2d6>
    7952:	17 96       	adiw	r26, 0x07	; 7
    7954:	8c 93       	st	X, r24
    7956:	ec 9e       	mul	r14, r28
    7958:	c0 01       	movw	r24, r0
    795a:	ed 9e       	mul	r14, r29
    795c:	90 0d       	add	r25, r0
    795e:	11 24       	eor	r1, r1
    7960:	ec 01       	movw	r28, r24
    7962:	ce 59       	subi	r28, 0x9E	; 158
    7964:	d5 4f       	sbci	r29, 0xF5	; 245
    7966:	6e 81       	ldd	r22, Y+6	; 0x06
    7968:	c6 01       	movw	r24, r12
    796a:	0e 94 22 11 	call	0x2244	; 0x2244 <EEPROM_WriteByte>
    796e:	6f 81       	ldd	r22, Y+7	; 0x07
    7970:	c6 01       	movw	r24, r12
    7972:	01 96       	adiw	r24, 0x01	; 1
    7974:	0e 94 22 11 	call	0x2244	; 0x2244 <EEPROM_WriteByte>
    7978:	e4 01       	movw	r28, r8
    797a:	f7 e0       	ldi	r31, 0x07	; 7
    797c:	af 0e       	add	r10, r31
    797e:	b1 1c       	adc	r11, r1
    7980:	6a e0       	ldi	r22, 0x0A	; 10
    7982:	c6 0e       	add	r12, r22
    7984:	d1 1c       	adc	r13, r1
    7986:	c6 30       	cpi	r28, 0x06	; 6
    7988:	d1 05       	cpc	r29, r1
    798a:	09 f0       	breq	.+2      	; 0x798e <RG_SDNDL_Menu+0x30e>
    798c:	43 cf       	rjmp	.-378    	; 0x7814 <RG_SDNDL_Menu+0x194>
    798e:	00 e0       	ldi	r16, 0x00	; 0
    7990:	29 e2       	ldi	r18, 0x29	; 41
    7992:	45 e3       	ldi	r20, 0x35	; 53
    7994:	63 e1       	ldi	r22, 0x13	; 19
    7996:	86 e0       	ldi	r24, 0x06	; 6
    7998:	0e 94 61 28 	call	0x50c2	; 0x50c2 <ks0108FillRect>
    799c:	63 e1       	ldi	r22, 0x13	; 19
    799e:	8c e0       	ldi	r24, 0x0C	; 12
    79a0:	0e 94 da 25 	call	0x4bb4	; 0x4bb4 <ks0108GotoXY>
    79a4:	8d e3       	ldi	r24, 0x3D	; 61
    79a6:	95 e1       	ldi	r25, 0x15	; 21
    79a8:	0e 94 11 2c 	call	0x5822	; 0x5822 <ks0108Puts_P>
    79ac:	6d e1       	ldi	r22, 0x1D	; 29
    79ae:	87 e0       	ldi	r24, 0x07	; 7
    79b0:	0e 94 da 25 	call	0x4bb4	; 0x4bb4 <ks0108GotoXY>
    79b4:	83 e3       	ldi	r24, 0x33	; 51
    79b6:	95 e1       	ldi	r25, 0x15	; 21
    79b8:	0e 94 11 2c 	call	0x5822	; 0x5822 <ks0108Puts_P>
    79bc:	27 e1       	ldi	r18, 0x17	; 23
    79be:	42 e3       	ldi	r20, 0x32	; 50
    79c0:	63 e1       	ldi	r22, 0x13	; 19
    79c2:	86 e0       	ldi	r24, 0x06	; 6
    79c4:	0e 94 57 29 	call	0x52ae	; 0x52ae <ks0108InvertRect>
    79c8:	80 91 65 06 	lds	r24, 0x0665	; 0x800665 <this_timmer_nb+0x2>
    79cc:	8f 5f       	subi	r24, 0xFF	; 255
    79ce:	80 93 65 06 	sts	0x0665, r24	; 0x800665 <this_timmer_nb+0x2>
    79d2:	81 e0       	ldi	r24, 0x01	; 1
    79d4:	80 93 66 06 	sts	0x0666, r24	; 0x800666 <this_timmer_nb+0x3>
    79d8:	8f ef       	ldi	r24, 0xFF	; 255
    79da:	80 93 69 08 	sts	0x0869, r24	; 0x800869 <kbhandler_app>
    79de:	1f c0       	rjmp	.+62     	; 0x7a1e <RG_SDNDL_Menu+0x39e>
    79e0:	80 91 65 06 	lds	r24, 0x0665	; 0x800665 <this_timmer_nb+0x2>
    79e4:	82 30       	cpi	r24, 0x02	; 2
    79e6:	d9 f4       	brne	.+54     	; 0x7a1e <RG_SDNDL_Menu+0x39e>
    79e8:	83 e6       	ldi	r24, 0x63	; 99
    79ea:	96 e0       	ldi	r25, 0x06	; 6
    79ec:	0e 94 81 46 	call	0x8d02	; 0x8d02 <timmer_nb__reset_sm_app>
    79f0:	60 e0       	ldi	r22, 0x00	; 0
    79f2:	80 e0       	ldi	r24, 0x00	; 0
    79f4:	0e 94 a1 3f 	call	0x7f42	; 0x7f42 <playsound>
    79f8:	0e 94 c7 3a 	call	0x758e	; 0x758e <_return2shell>
    79fc:	0d c0       	rjmp	.+26     	; 0x7a18 <RG_SDNDL_Menu+0x398>
    79fe:	80 91 6a 06 	lds	r24, 0x066A	; 0x80066a <dialogbox_nb+0x3>
    7a02:	88 23       	and	r24, r24
    7a04:	21 f0       	breq	.+8      	; 0x7a0e <RG_SDNDL_Menu+0x38e>
    7a06:	80 91 6a 06 	lds	r24, 0x066A	; 0x80066a <dialogbox_nb+0x3>
    7a0a:	83 30       	cpi	r24, 0x03	; 3
    7a0c:	41 f4       	brne	.+16     	; 0x7a1e <RG_SDNDL_Menu+0x39e>
    7a0e:	82 e0       	ldi	r24, 0x02	; 2
    7a10:	80 93 f5 07 	sts	0x07F5, r24	; 0x8007f5 <thisps+0x2>
    7a14:	10 92 f6 07 	sts	0x07F6, r1	; 0x8007f6 <thisps+0x3>
    7a18:	8f ef       	ldi	r24, 0xFF	; 255
    7a1a:	80 93 6a 06 	sts	0x066A, r24	; 0x80066a <dialogbox_nb+0x3>
    7a1e:	80 91 f5 07 	lds	r24, 0x07F5	; 0x8007f5 <thisps+0x2>
    7a22:	82 30       	cpi	r24, 0x02	; 2
    7a24:	09 f0       	breq	.+2      	; 0x7a28 <RG_SDNDL_Menu+0x3a8>
    7a26:	4c c0       	rjmp	.+152    	; 0x7ac0 <RG_SDNDL_Menu+0x440>
    7a28:	80 91 f6 07 	lds	r24, 0x07F6	; 0x8007f6 <thisps+0x3>
    7a2c:	81 11       	cpse	r24, r1
    7a2e:	15 c0       	rjmp	.+42     	; 0x7a5a <RG_SDNDL_Menu+0x3da>
    7a30:	81 e0       	ldi	r24, 0x01	; 1
    7a32:	80 93 f6 07 	sts	0x07F6, r24	; 0x8007f6 <thisps+0x3>
    7a36:	4f e1       	ldi	r20, 0x1F	; 31
    7a38:	6f e1       	ldi	r22, 0x1F	; 31
    7a3a:	8f e1       	ldi	r24, 0x1F	; 31
    7a3c:	0e 94 02 1c 	call	0x3804	; 0x3804 <ClearFromCenter_GrowingSymmetric>
    7a40:	69 e1       	ldi	r22, 0x19	; 25
    7a42:	81 e1       	ldi	r24, 0x11	; 17
    7a44:	0e 94 da 25 	call	0x4bb4	; 0x4bb4 <ks0108GotoXY>
    7a48:	8c e2       	ldi	r24, 0x2C	; 44
    7a4a:	95 e1       	ldi	r25, 0x15	; 21
    7a4c:	0e 94 11 2c 	call	0x5822	; 0x5822 <ks0108Puts_P>
    7a50:	40 e0       	ldi	r20, 0x00	; 0
    7a52:	62 e0       	ldi	r22, 0x02	; 2
    7a54:	82 e0       	ldi	r24, 0x02	; 2
    7a56:	0e 94 e6 3d 	call	0x7bcc	; 0x7bcc <dialogbox_sino>
    7a5a:	80 91 f6 07 	lds	r24, 0x07F6	; 0x8007f6 <thisps+0x3>
    7a5e:	81 30       	cpi	r24, 0x01	; 1
    7a60:	79 f5       	brne	.+94     	; 0x7ac0 <RG_SDNDL_Menu+0x440>
    7a62:	80 91 6a 06 	lds	r24, 0x066A	; 0x80066a <dialogbox_nb+0x3>
    7a66:	87 fd       	sbrc	r24, 7
    7a68:	2b c0       	rjmp	.+86     	; 0x7ac0 <RG_SDNDL_Menu+0x440>
    7a6a:	80 91 6a 06 	lds	r24, 0x066A	; 0x80066a <dialogbox_nb+0x3>
    7a6e:	81 30       	cpi	r24, 0x01	; 1
    7a70:	19 f4       	brne	.+6      	; 0x7a78 <RG_SDNDL_Menu+0x3f8>
    7a72:	0e 94 c7 3a 	call	0x758e	; 0x758e <_return2shell>
    7a76:	21 c0       	rjmp	.+66     	; 0x7aba <RG_SDNDL_Menu+0x43a>
    7a78:	80 91 6a 06 	lds	r24, 0x066A	; 0x80066a <dialogbox_nb+0x3>
    7a7c:	88 23       	and	r24, r24
    7a7e:	21 f0       	breq	.+8      	; 0x7a88 <RG_SDNDL_Menu+0x408>
    7a80:	80 91 6a 06 	lds	r24, 0x066A	; 0x80066a <dialogbox_nb+0x3>
    7a84:	83 30       	cpi	r24, 0x03	; 3
    7a86:	e1 f4       	brne	.+56     	; 0x7ac0 <RG_SDNDL_Menu+0x440>
    7a88:	4f e1       	ldi	r20, 0x1F	; 31
    7a8a:	6f e1       	ldi	r22, 0x1F	; 31
    7a8c:	8f e1       	ldi	r24, 0x1F	; 31
    7a8e:	0e 94 02 1c 	call	0x3804	; 0x3804 <ClearFromCenter_GrowingSymmetric>
    7a92:	0e 94 1b 3b 	call	0x7636	; 0x7636 <RG_SDNDL_Menu_Texts>
    7a96:	e0 91 f3 07 	lds	r30, 0x07F3	; 0x8007f3 <thisps>
    7a9a:	74 e0       	ldi	r23, 0x04	; 4
    7a9c:	e7 02       	muls	r30, r23
    7a9e:	f0 01       	movw	r30, r0
    7aa0:	11 24       	eor	r1, r1
    7aa2:	ed 5e       	subi	r30, 0xED	; 237
    7aa4:	f7 4f       	sbci	r31, 0xF7	; 247
    7aa6:	80 81       	ld	r24, Z
    7aa8:	81 60       	ori	r24, 0x01	; 1
    7aaa:	80 83       	st	Z, r24
    7aac:	10 92 f4 07 	sts	0x07F4, r1	; 0x8007f4 <thisps+0x1>
    7ab0:	60 e0       	ldi	r22, 0x00	; 0
    7ab2:	81 ee       	ldi	r24, 0xE1	; 225
    7ab4:	95 e0       	ldi	r25, 0x05	; 5
    7ab6:	0e 94 b8 24 	call	0x4970	; 0x4970 <change_operating_mode>
    7aba:	8f ef       	ldi	r24, 0xFF	; 255
    7abc:	80 93 6a 06 	sts	0x066A, r24	; 0x80066a <dialogbox_nb+0x3>
    7ac0:	61 e0       	ldi	r22, 0x01	; 1
    7ac2:	70 e0       	ldi	r23, 0x00	; 0
    7ac4:	83 e6       	ldi	r24, 0x63	; 99
    7ac6:	96 e0       	ldi	r25, 0x06	; 6
    7ac8:	df 91       	pop	r29
    7aca:	cf 91       	pop	r28
    7acc:	1f 91       	pop	r17
    7ace:	0f 91       	pop	r16
    7ad0:	ff 90       	pop	r15
    7ad2:	ef 90       	pop	r14
    7ad4:	df 90       	pop	r13
    7ad6:	cf 90       	pop	r12
    7ad8:	bf 90       	pop	r11
    7ada:	af 90       	pop	r10
    7adc:	9f 90       	pop	r9
    7ade:	8f 90       	pop	r8
    7ae0:	7f 90       	pop	r7
    7ae2:	0c 94 62 46 	jmp	0x8cc4	; 0x8cc4 <timmer_nb__processing>

00007ae6 <_dialogbox_sino_ESC>:
    7ae6:	83 e0       	ldi	r24, 0x03	; 3
    7ae8:	80 93 6a 06 	sts	0x066A, r24	; 0x80066a <dialogbox_nb+0x3>
    7aec:	08 95       	ret

00007aee <_dialogbox_sino_UP>:
    7aee:	60 91 6c 06 	lds	r22, 0x066C	; 0x80066c <dialogbox_nb+0x5>
    7af2:	90 91 6b 06 	lds	r25, 0x066B	; 0x80066b <dialogbox_nb+0x4>
    7af6:	e0 91 69 06 	lds	r30, 0x0669	; 0x800669 <dialogbox_nb+0x2>
    7afa:	0e 2e       	mov	r0, r30
    7afc:	00 0c       	add	r0, r0
    7afe:	ff 0b       	sbc	r31, r31
    7b00:	e9 59       	subi	r30, 0x99	; 153
    7b02:	f9 4f       	sbci	r31, 0xF9	; 249
    7b04:	80 81       	ld	r24, Z
    7b06:	64 5d       	subi	r22, 0xD4	; 212
    7b08:	2a e0       	ldi	r18, 0x0A	; 10
    7b0a:	4f e0       	ldi	r20, 0x0F	; 15
    7b0c:	89 0f       	add	r24, r25
    7b0e:	0e 94 57 29 	call	0x52ae	; 0x52ae <ks0108InvertRect>
    7b12:	80 91 69 06 	lds	r24, 0x0669	; 0x800669 <dialogbox_nb+0x2>
    7b16:	8f 5f       	subi	r24, 0xFF	; 255
    7b18:	80 93 69 06 	sts	0x0669, r24	; 0x800669 <dialogbox_nb+0x2>
    7b1c:	82 30       	cpi	r24, 0x02	; 2
    7b1e:	14 f0       	brlt	.+4      	; 0x7b24 <_dialogbox_sino_UP+0x36>
    7b20:	10 92 69 06 	sts	0x0669, r1	; 0x800669 <dialogbox_nb+0x2>
    7b24:	60 91 6c 06 	lds	r22, 0x066C	; 0x80066c <dialogbox_nb+0x5>
    7b28:	90 91 6b 06 	lds	r25, 0x066B	; 0x80066b <dialogbox_nb+0x4>
    7b2c:	e0 91 69 06 	lds	r30, 0x0669	; 0x800669 <dialogbox_nb+0x2>
    7b30:	0e 2e       	mov	r0, r30
    7b32:	00 0c       	add	r0, r0
    7b34:	ff 0b       	sbc	r31, r31
    7b36:	e9 59       	subi	r30, 0x99	; 153
    7b38:	f9 4f       	sbci	r31, 0xF9	; 249
    7b3a:	80 81       	ld	r24, Z
    7b3c:	64 5d       	subi	r22, 0xD4	; 212
    7b3e:	2a e0       	ldi	r18, 0x0A	; 10
    7b40:	4f e0       	ldi	r20, 0x0F	; 15
    7b42:	89 0f       	add	r24, r25
    7b44:	0c 94 57 29 	jmp	0x52ae	; 0x52ae <ks0108InvertRect>

00007b48 <_dialogbox_sino_DN>:
    7b48:	60 91 6c 06 	lds	r22, 0x066C	; 0x80066c <dialogbox_nb+0x5>
    7b4c:	90 91 6b 06 	lds	r25, 0x066B	; 0x80066b <dialogbox_nb+0x4>
    7b50:	e0 91 69 06 	lds	r30, 0x0669	; 0x800669 <dialogbox_nb+0x2>
    7b54:	0e 2e       	mov	r0, r30
    7b56:	00 0c       	add	r0, r0
    7b58:	ff 0b       	sbc	r31, r31
    7b5a:	e9 59       	subi	r30, 0x99	; 153
    7b5c:	f9 4f       	sbci	r31, 0xF9	; 249
    7b5e:	80 81       	ld	r24, Z
    7b60:	64 5d       	subi	r22, 0xD4	; 212
    7b62:	2a e0       	ldi	r18, 0x0A	; 10
    7b64:	4f e0       	ldi	r20, 0x0F	; 15
    7b66:	89 0f       	add	r24, r25
    7b68:	0e 94 57 29 	call	0x52ae	; 0x52ae <ks0108InvertRect>
    7b6c:	80 91 69 06 	lds	r24, 0x0669	; 0x800669 <dialogbox_nb+0x2>
    7b70:	81 50       	subi	r24, 0x01	; 1
    7b72:	80 93 69 06 	sts	0x0669, r24	; 0x800669 <dialogbox_nb+0x2>
    7b76:	87 ff       	sbrs	r24, 7
    7b78:	03 c0       	rjmp	.+6      	; 0x7b80 <_dialogbox_sino_DN+0x38>
    7b7a:	81 e0       	ldi	r24, 0x01	; 1
    7b7c:	80 93 69 06 	sts	0x0669, r24	; 0x800669 <dialogbox_nb+0x2>
    7b80:	60 91 6c 06 	lds	r22, 0x066C	; 0x80066c <dialogbox_nb+0x5>
    7b84:	90 91 6b 06 	lds	r25, 0x066B	; 0x80066b <dialogbox_nb+0x4>
    7b88:	e0 91 69 06 	lds	r30, 0x0669	; 0x800669 <dialogbox_nb+0x2>
    7b8c:	0e 2e       	mov	r0, r30
    7b8e:	00 0c       	add	r0, r0
    7b90:	ff 0b       	sbc	r31, r31
    7b92:	e9 59       	subi	r30, 0x99	; 153
    7b94:	f9 4f       	sbci	r31, 0xF9	; 249
    7b96:	80 81       	ld	r24, Z
    7b98:	64 5d       	subi	r22, 0xD4	; 212
    7b9a:	2a e0       	ldi	r18, 0x0A	; 10
    7b9c:	4f e0       	ldi	r20, 0x0F	; 15
    7b9e:	89 0f       	add	r24, r25
    7ba0:	0c 94 57 29 	jmp	0x52ae	; 0x52ae <ks0108InvertRect>

00007ba4 <_dialogbox_sino_SEL>:
    7ba4:	80 91 69 06 	lds	r24, 0x0669	; 0x800669 <dialogbox_nb+0x2>
    7ba8:	81 11       	cpse	r24, r1
    7baa:	05 c0       	rjmp	.+10     	; 0x7bb6 <_dialogbox_sino_SEL+0x12>
    7bac:	81 e0       	ldi	r24, 0x01	; 1
    7bae:	80 93 6a 06 	sts	0x066A, r24	; 0x80066a <dialogbox_nb+0x3>
    7bb2:	61 e0       	ldi	r22, 0x01	; 1
    7bb4:	07 c0       	rjmp	.+14     	; 0x7bc4 <_dialogbox_sino_SEL+0x20>
    7bb6:	80 91 69 06 	lds	r24, 0x0669	; 0x800669 <dialogbox_nb+0x2>
    7bba:	81 30       	cpi	r24, 0x01	; 1
    7bbc:	31 f4       	brne	.+12     	; 0x7bca <_dialogbox_sino_SEL+0x26>
    7bbe:	10 92 6a 06 	sts	0x066A, r1	; 0x80066a <dialogbox_nb+0x3>
    7bc2:	60 e0       	ldi	r22, 0x00	; 0
    7bc4:	80 e0       	ldi	r24, 0x00	; 0
    7bc6:	0c 94 a1 3f 	jmp	0x7f42	; 0x7f42 <playsound>
    7bca:	08 95       	ret

00007bcc <dialogbox_sino>:
    7bcc:	ef 92       	push	r14
    7bce:	ff 92       	push	r15
    7bd0:	0f 93       	push	r16
    7bd2:	1f 93       	push	r17
    7bd4:	cf 93       	push	r28
    7bd6:	df 93       	push	r29
    7bd8:	c8 2f       	mov	r28, r24
    7bda:	d6 2f       	mov	r29, r22
    7bdc:	e4 2e       	mov	r14, r20
    7bde:	0e 94 33 1d 	call	0x3a66	; 0x3a66 <window_Aviso>
    7be2:	1b e2       	ldi	r17, 0x2B	; 43
    7be4:	1d 0f       	add	r17, r29
    7be6:	61 2f       	mov	r22, r17
    7be8:	84 e0       	ldi	r24, 0x04	; 4
    7bea:	8c 0f       	add	r24, r28
    7bec:	0e 94 da 25 	call	0x4bb4	; 0x4bb4 <ks0108GotoXY>
    7bf0:	89 e7       	ldi	r24, 0x79	; 121
    7bf2:	95 e1       	ldi	r25, 0x15	; 21
    7bf4:	0e 94 11 2c 	call	0x5822	; 0x5822 <ks0108Puts_P>
    7bf8:	8c e2       	ldi	r24, 0x2C	; 44
    7bfa:	f8 2e       	mov	r15, r24
    7bfc:	fd 0e       	add	r15, r29
    7bfe:	6f 2d       	mov	r22, r15
    7c00:	8b e0       	ldi	r24, 0x0B	; 11
    7c02:	8c 0f       	add	r24, r28
    7c04:	0e 94 da 25 	call	0x4bb4	; 0x4bb4 <ks0108GotoXY>
    7c08:	86 e7       	ldi	r24, 0x76	; 118
    7c0a:	95 e1       	ldi	r25, 0x15	; 21
    7c0c:	0e 94 11 2c 	call	0x5822	; 0x5822 <ks0108Puts_P>
    7c10:	61 2f       	mov	r22, r17
    7c12:	89 e1       	ldi	r24, 0x19	; 25
    7c14:	8c 0f       	add	r24, r28
    7c16:	0e 94 da 25 	call	0x4bb4	; 0x4bb4 <ks0108GotoXY>
    7c1a:	84 e7       	ldi	r24, 0x74	; 116
    7c1c:	95 e1       	ldi	r25, 0x15	; 21
    7c1e:	0e 94 11 2c 	call	0x5822	; 0x5822 <ks0108Puts_P>
    7c22:	61 2f       	mov	r22, r17
    7c24:	81 e2       	ldi	r24, 0x21	; 33
    7c26:	8c 0f       	add	r24, r28
    7c28:	0e 94 da 25 	call	0x4bb4	; 0x4bb4 <ks0108GotoXY>
    7c2c:	82 e7       	ldi	r24, 0x72	; 114
    7c2e:	95 e1       	ldi	r25, 0x15	; 21
    7c30:	0e 94 11 2c 	call	0x5822	; 0x5822 <ks0108Puts_P>
    7c34:	6f 2d       	mov	r22, r15
    7c36:	86 e2       	ldi	r24, 0x26	; 38
    7c38:	8c 0f       	add	r24, r28
    7c3a:	0e 94 da 25 	call	0x4bb4	; 0x4bb4 <ks0108GotoXY>
    7c3e:	8f e6       	ldi	r24, 0x6F	; 111
    7c40:	95 e1       	ldi	r25, 0x15	; 21
    7c42:	0e 94 11 2c 	call	0x5822	; 0x5822 <ks0108Puts_P>
    7c46:	61 2f       	mov	r22, r17
    7c48:	86 e3       	ldi	r24, 0x36	; 54
    7c4a:	8c 0f       	add	r24, r28
    7c4c:	0e 94 da 25 	call	0x4bb4	; 0x4bb4 <ks0108GotoXY>
    7c50:	8d e6       	ldi	r24, 0x6D	; 109
    7c52:	95 e1       	ldi	r25, 0x15	; 21
    7c54:	0e 94 11 2c 	call	0x5822	; 0x5822 <ks0108Puts_P>
    7c58:	07 e6       	ldi	r16, 0x67	; 103
    7c5a:	16 e0       	ldi	r17, 0x06	; 6
    7c5c:	d8 01       	movw	r26, r16
    7c5e:	14 96       	adiw	r26, 0x04	; 4
    7c60:	cc 93       	st	X, r28
    7c62:	14 97       	sbiw	r26, 0x04	; 4
    7c64:	15 96       	adiw	r26, 0x05	; 5
    7c66:	dc 93       	st	X, r29
    7c68:	15 97       	sbiw	r26, 0x05	; 5
    7c6a:	12 96       	adiw	r26, 0x02	; 2
    7c6c:	ec 92       	st	X, r14
    7c6e:	12 97       	sbiw	r26, 0x02	; 2
    7c70:	12 96       	adiw	r26, 0x02	; 2
    7c72:	ec 91       	ld	r30, X
    7c74:	0e 2e       	mov	r0, r30
    7c76:	00 0c       	add	r0, r0
    7c78:	ff 0b       	sbc	r31, r31
    7c7a:	e9 59       	subi	r30, 0x99	; 153
    7c7c:	f9 4f       	sbci	r31, 0xF9	; 249
    7c7e:	80 81       	ld	r24, Z
    7c80:	2a e0       	ldi	r18, 0x0A	; 10
    7c82:	4f e0       	ldi	r20, 0x0F	; 15
    7c84:	6f 2d       	mov	r22, r15
    7c86:	8c 0f       	add	r24, r28
    7c88:	0e 94 57 29 	call	0x52ae	; 0x52ae <ks0108InvertRect>
    7c8c:	8f ef       	ldi	r24, 0xFF	; 255
    7c8e:	f8 01       	movw	r30, r16
    7c90:	83 83       	std	Z+3, r24	; 0x03
    7c92:	df 91       	pop	r29
    7c94:	cf 91       	pop	r28
    7c96:	1f 91       	pop	r17
    7c98:	0f 91       	pop	r16
    7c9a:	ff 90       	pop	r15
    7c9c:	ef 90       	pop	r14
    7c9e:	08 95       	ret

00007ca0 <ListBox_init_dimension>:
    7ca0:	cf 92       	push	r12
    7ca2:	ef 92       	push	r14
    7ca4:	ff 92       	push	r15
    7ca6:	0f 93       	push	r16
    7ca8:	fc 01       	movw	r30, r24
    7caa:	80 2f       	mov	r24, r16
    7cac:	60 83       	st	Z, r22
    7cae:	41 83       	std	Z+1, r20	; 0x01
    7cb0:	22 83       	std	Z+2, r18	; 0x02
    7cb2:	03 83       	std	Z+3, r16	; 0x03
    7cb4:	f5 82       	std	Z+5, r15	; 0x05
    7cb6:	e4 82       	std	Z+4, r14	; 0x04
    7cb8:	c6 82       	std	Z+6, r12	; 0x06
    7cba:	6c 2d       	mov	r22, r12
    7cbc:	0e 94 92 51 	call	0xa324	; 0xa324 <__udivmodqi4>
    7cc0:	87 83       	std	Z+7, r24	; 0x07
    7cc2:	0f 91       	pop	r16
    7cc4:	ff 90       	pop	r15
    7cc6:	ef 90       	pop	r14
    7cc8:	cf 90       	pop	r12
    7cca:	08 95       	ret

00007ccc <ListBox_create_box>:
    7ccc:	0f 93       	push	r16
    7cce:	fc 01       	movw	r30, r24
    7cd0:	0f ef       	ldi	r16, 0xFF	; 255
    7cd2:	23 81       	ldd	r18, Z+3	; 0x03
    7cd4:	42 81       	ldd	r20, Z+2	; 0x02
    7cd6:	61 81       	ldd	r22, Z+1	; 0x01
    7cd8:	80 81       	ld	r24, Z
    7cda:	0e 94 f4 28 	call	0x51e8	; 0x51e8 <ks0108DrawRect>
    7cde:	0f 91       	pop	r16
    7ce0:	08 95       	ret

00007ce2 <ListBox_LoadnewDB>:
    7ce2:	fc 01       	movw	r30, r24
    7ce4:	72 87       	std	Z+10, r23	; 0x0a
    7ce6:	61 87       	std	Z+9, r22	; 0x09
    7ce8:	43 87       	std	Z+11, r20	; 0x0b
    7cea:	24 87       	std	Z+12, r18	; 0x0c
    7cec:	15 86       	std	Z+13, r1	; 0x0d
    7cee:	10 86       	std	Z+8, r1	; 0x08
    7cf0:	80 e0       	ldi	r24, 0x00	; 0
    7cf2:	08 95       	ret

00007cf4 <MarkFieldPointed>:
    7cf4:	fc 01       	movw	r30, r24
    7cf6:	86 81       	ldd	r24, Z+6	; 0x06
    7cf8:	2f ef       	ldi	r18, 0xFF	; 255
    7cfa:	28 0f       	add	r18, r24
    7cfc:	42 81       	ldd	r20, Z+2	; 0x02
    7cfe:	42 50       	subi	r20, 0x02	; 2
    7d00:	90 85       	ldd	r25, Z+8	; 0x08
    7d02:	61 81       	ldd	r22, Z+1	; 0x01
    7d04:	6d 5f       	subi	r22, 0xFD	; 253
    7d06:	89 9f       	mul	r24, r25
    7d08:	60 0d       	add	r22, r0
    7d0a:	11 24       	eor	r1, r1
    7d0c:	80 81       	ld	r24, Z
    7d0e:	8f 5f       	subi	r24, 0xFF	; 255
    7d10:	0c 94 57 29 	jmp	0x52ae	; 0x52ae <ks0108InvertRect>

00007d14 <ClearInnerRegionListBox>:
    7d14:	0f 93       	push	r16
    7d16:	fc 01       	movw	r30, r24
    7d18:	86 81       	ldd	r24, Z+6	; 0x06
    7d1a:	27 81       	ldd	r18, Z+7	; 0x07
    7d1c:	82 9f       	mul	r24, r18
    7d1e:	20 2d       	mov	r18, r0
    7d20:	11 24       	eor	r1, r1
    7d22:	42 81       	ldd	r20, Z+2	; 0x02
    7d24:	42 50       	subi	r20, 0x02	; 2
    7d26:	61 81       	ldd	r22, Z+1	; 0x01
    7d28:	6d 5f       	subi	r22, 0xFD	; 253
    7d2a:	80 81       	ld	r24, Z
    7d2c:	00 e0       	ldi	r16, 0x00	; 0
    7d2e:	8f 5f       	subi	r24, 0xFF	; 255
    7d30:	0e 94 61 28 	call	0x50c2	; 0x50c2 <ks0108FillRect>
    7d34:	0f 91       	pop	r16
    7d36:	08 95       	ret

00007d38 <PrintNewFieldsFromThisDB>:
    7d38:	1f 93       	push	r17
    7d3a:	cf 93       	push	r28
    7d3c:	df 93       	push	r29
    7d3e:	ec 01       	movw	r28, r24
    7d40:	4f ef       	ldi	r20, 0xFF	; 255
    7d42:	64 e4       	ldi	r22, 0x44	; 68
    7d44:	75 e2       	ldi	r23, 0x25	; 37
    7d46:	8c 81       	ldd	r24, Y+4	; 0x04
    7d48:	9d 81       	ldd	r25, Y+5	; 0x05
    7d4a:	0e 94 47 25 	call	0x4a8e	; 0x4a8e <ks0108SelectFont>
    7d4e:	10 e0       	ldi	r17, 0x00	; 0
    7d50:	8f 81       	ldd	r24, Y+7	; 0x07
    7d52:	18 17       	cp	r17, r24
    7d54:	f8 f4       	brcc	.+62     	; 0x7d94 <PrintNewFieldsFromThisDB+0x5c>
    7d56:	8e 81       	ldd	r24, Y+6	; 0x06
    7d58:	69 81       	ldd	r22, Y+1	; 0x01
    7d5a:	6d 5f       	subi	r22, 0xFD	; 253
    7d5c:	18 9f       	mul	r17, r24
    7d5e:	60 0d       	add	r22, r0
    7d60:	11 24       	eor	r1, r1
    7d62:	88 81       	ld	r24, Y
    7d64:	8e 5f       	subi	r24, 0xFE	; 254
    7d66:	0e 94 da 25 	call	0x4bb4	; 0x4bb4 <ks0108GotoXY>
    7d6a:	8d 85       	ldd	r24, Y+13	; 0x0d
    7d6c:	21 2f       	mov	r18, r17
    7d6e:	30 e0       	ldi	r19, 0x00	; 0
    7d70:	28 0f       	add	r18, r24
    7d72:	31 1d       	adc	r19, r1
    7d74:	87 fd       	sbrc	r24, 7
    7d76:	3a 95       	dec	r19
    7d78:	4b 85       	ldd	r20, Y+11	; 0x0b
    7d7a:	42 9f       	mul	r20, r18
    7d7c:	c0 01       	movw	r24, r0
    7d7e:	43 9f       	mul	r20, r19
    7d80:	90 0d       	add	r25, r0
    7d82:	11 24       	eor	r1, r1
    7d84:	29 85       	ldd	r18, Y+9	; 0x09
    7d86:	3a 85       	ldd	r19, Y+10	; 0x0a
    7d88:	82 0f       	add	r24, r18
    7d8a:	93 1f       	adc	r25, r19
    7d8c:	0e 94 11 2c 	call	0x5822	; 0x5822 <ks0108Puts_P>
    7d90:	1f 5f       	subi	r17, 0xFF	; 255
    7d92:	de cf       	rjmp	.-68     	; 0x7d50 <PrintNewFieldsFromThisDB+0x18>
    7d94:	df 91       	pop	r29
    7d96:	cf 91       	pop	r28
    7d98:	1f 91       	pop	r17
    7d9a:	08 95       	ret

00007d9c <fill_listbox>:
    7d9c:	cf 93       	push	r28
    7d9e:	df 93       	push	r29
    7da0:	ec 01       	movw	r28, r24
    7da2:	0e 94 9c 3e 	call	0x7d38	; 0x7d38 <PrintNewFieldsFromThisDB>
    7da6:	ce 01       	movw	r24, r28
    7da8:	df 91       	pop	r29
    7daa:	cf 91       	pop	r28
    7dac:	0c 94 7a 3e 	jmp	0x7cf4	; 0x7cf4 <MarkFieldPointed>

00007db0 <ListBox_Ex>:
    7db0:	1f 93       	push	r17
    7db2:	cf 93       	push	r28
    7db4:	df 93       	push	r29
    7db6:	ec 01       	movw	r28, r24
    7db8:	16 2f       	mov	r17, r22
    7dba:	0e 94 7a 3e 	call	0x7cf4	; 0x7cf4 <MarkFieldPointed>
    7dbe:	88 85       	ldd	r24, Y+8	; 0x08
    7dc0:	11 11       	cpse	r17, r1
    7dc2:	21 c0       	rjmp	.+66     	; 0x7e06 <ListBox_Ex+0x56>
    7dc4:	8f 5f       	subi	r24, 0xFF	; 255
    7dc6:	88 87       	std	Y+8, r24	; 0x08
    7dc8:	08 2e       	mov	r0, r24
    7dca:	00 0c       	add	r0, r0
    7dcc:	99 0b       	sbc	r25, r25
    7dce:	2f 81       	ldd	r18, Y+7	; 0x07
    7dd0:	42 2f       	mov	r20, r18
    7dd2:	50 e0       	ldi	r21, 0x00	; 0
    7dd4:	84 17       	cp	r24, r20
    7dd6:	95 07       	cpc	r25, r21
    7dd8:	41 f5       	brne	.+80     	; 0x7e2a <ListBox_Ex+0x7a>
    7dda:	21 50       	subi	r18, 0x01	; 1
    7ddc:	28 87       	std	Y+8, r18	; 0x08
    7dde:	2d 85       	ldd	r18, Y+13	; 0x0d
    7de0:	2f 5f       	subi	r18, 0xFF	; 255
    7de2:	2d 87       	std	Y+13, r18	; 0x0d
    7de4:	02 2e       	mov	r0, r18
    7de6:	00 0c       	add	r0, r0
    7de8:	33 0b       	sbc	r19, r19
    7dea:	4c 85       	ldd	r20, Y+12	; 0x0c
    7dec:	50 e0       	ldi	r21, 0x00	; 0
    7dee:	ba 01       	movw	r22, r20
    7df0:	68 1b       	sub	r22, r24
    7df2:	79 0b       	sbc	r23, r25
    7df4:	62 17       	cp	r22, r18
    7df6:	73 07       	cpc	r23, r19
    7df8:	14 f4       	brge	.+4      	; 0x7dfe <ListBox_Ex+0x4e>
    7dfa:	1d 86       	std	Y+13, r1	; 0x0d
    7dfc:	18 86       	std	Y+8, r1	; 0x08
    7dfe:	ce 01       	movw	r24, r28
    7e00:	0e 94 8a 3e 	call	0x7d14	; 0x7d14 <ClearInnerRegionListBox>
    7e04:	12 c0       	rjmp	.+36     	; 0x7e2a <ListBox_Ex+0x7a>
    7e06:	81 50       	subi	r24, 0x01	; 1
    7e08:	87 fd       	sbrc	r24, 7
    7e0a:	02 c0       	rjmp	.+4      	; 0x7e10 <ListBox_Ex+0x60>
    7e0c:	88 87       	std	Y+8, r24	; 0x08
    7e0e:	0d c0       	rjmp	.+26     	; 0x7e2a <ListBox_Ex+0x7a>
    7e10:	18 86       	std	Y+8, r1	; 0x08
    7e12:	8d 85       	ldd	r24, Y+13	; 0x0d
    7e14:	81 50       	subi	r24, 0x01	; 1
    7e16:	8d 87       	std	Y+13, r24	; 0x0d
    7e18:	87 ff       	sbrs	r24, 7
    7e1a:	f1 cf       	rjmp	.-30     	; 0x7dfe <ListBox_Ex+0x4e>
    7e1c:	8f 81       	ldd	r24, Y+7	; 0x07
    7e1e:	9c 85       	ldd	r25, Y+12	; 0x0c
    7e20:	98 1b       	sub	r25, r24
    7e22:	9d 87       	std	Y+13, r25	; 0x0d
    7e24:	81 50       	subi	r24, 0x01	; 1
    7e26:	88 87       	std	Y+8, r24	; 0x08
    7e28:	ea cf       	rjmp	.-44     	; 0x7dfe <ListBox_Ex+0x4e>
    7e2a:	ce 01       	movw	r24, r28
    7e2c:	0e 94 ce 3e 	call	0x7d9c	; 0x7d9c <fill_listbox>
    7e30:	9d 85       	ldd	r25, Y+13	; 0x0d
    7e32:	88 85       	ldd	r24, Y+8	; 0x08
    7e34:	89 0f       	add	r24, r25
    7e36:	df 91       	pop	r29
    7e38:	cf 91       	pop	r28
    7e3a:	1f 91       	pop	r17
    7e3c:	08 95       	ret

00007e3e <ListBox_get_last_elementpointed>:
    7e3e:	fc 01       	movw	r30, r24
    7e40:	95 85       	ldd	r25, Z+13	; 0x0d
    7e42:	80 85       	ldd	r24, Z+8	; 0x08
    7e44:	89 0f       	add	r24, r25
    7e46:	08 95       	ret

00007e48 <CheckUncheckRadio>:
    7e48:	ef 92       	push	r14
    7e4a:	0f 93       	push	r16
    7e4c:	1f 93       	push	r17
    7e4e:	cf 93       	push	r28
    7e50:	df 93       	push	r29
    7e52:	c8 2f       	mov	r28, r24
    7e54:	d6 2f       	mov	r29, r22
    7e56:	14 2f       	mov	r17, r20
    7e58:	6f ef       	ldi	r22, 0xFF	; 255
    7e5a:	6d 0f       	add	r22, r29
    7e5c:	e4 2e       	mov	r14, r20
    7e5e:	01 e0       	ldi	r16, 0x01	; 1
    7e60:	22 e0       	ldi	r18, 0x02	; 2
    7e62:	42 e0       	ldi	r20, 0x02	; 2
    7e64:	8f ef       	ldi	r24, 0xFF	; 255
    7e66:	8c 0f       	add	r24, r28
    7e68:	0e 94 0e 2a 	call	0x541c	; 0x541c <ks0108DrawRoundRect>
    7e6c:	41 2f       	mov	r20, r17
    7e6e:	6d 2f       	mov	r22, r29
    7e70:	8c 2f       	mov	r24, r28
    7e72:	df 91       	pop	r29
    7e74:	cf 91       	pop	r28
    7e76:	1f 91       	pop	r17
    7e78:	0f 91       	pop	r16
    7e7a:	ef 90       	pop	r14
    7e7c:	0c 94 f0 29 	jmp	0x53e0	; 0x53e0 <ks0108SetDot>

00007e80 <SetCheckedRadio>:
    7e80:	0f 93       	push	r16
    7e82:	1f 93       	push	r17
    7e84:	cf 93       	push	r28
    7e86:	df 93       	push	r29
    7e88:	ec 01       	movw	r28, r24
    7e8a:	0c 81       	ldd	r16, Y+4	; 0x04
    7e8c:	07 ff       	sbrs	r16, 7
    7e8e:	02 c0       	rjmp	.+4      	; 0x7e94 <SetCheckedRadio+0x14>
    7e90:	10 e0       	ldi	r17, 0x00	; 0
    7e92:	17 c0       	rjmp	.+46     	; 0x7ec2 <SetCheckedRadio+0x42>
    7e94:	ed 81       	ldd	r30, Y+5	; 0x05
    7e96:	e7 fd       	sbrc	r30, 7
    7e98:	09 c0       	rjmp	.+18     	; 0x7eac <SetCheckedRadio+0x2c>
    7e9a:	ee 0f       	add	r30, r30
    7e9c:	ff 0b       	sbc	r31, r31
    7e9e:	e8 0f       	add	r30, r24
    7ea0:	f9 1f       	adc	r31, r25
    7ea2:	40 e0       	ldi	r20, 0x00	; 0
    7ea4:	61 81       	ldd	r22, Z+1	; 0x01
    7ea6:	80 81       	ld	r24, Z
    7ea8:	0e 94 24 3f 	call	0x7e48	; 0x7e48 <CheckUncheckRadio>
    7eac:	e0 2f       	mov	r30, r16
    7eae:	ee 0f       	add	r30, r30
    7eb0:	ff 0b       	sbc	r31, r31
    7eb2:	ec 0f       	add	r30, r28
    7eb4:	fd 1f       	adc	r31, r29
    7eb6:	4f ef       	ldi	r20, 0xFF	; 255
    7eb8:	61 81       	ldd	r22, Z+1	; 0x01
    7eba:	80 81       	ld	r24, Z
    7ebc:	0e 94 24 3f 	call	0x7e48	; 0x7e48 <CheckUncheckRadio>
    7ec0:	0f c0       	rjmp	.+30     	; 0x7ee0 <SetCheckedRadio+0x60>
    7ec2:	8e 81       	ldd	r24, Y+6	; 0x06
    7ec4:	18 17       	cp	r17, r24
    7ec6:	60 f4       	brcc	.+24     	; 0x7ee0 <SetCheckedRadio+0x60>
    7ec8:	fe 01       	movw	r30, r28
    7eca:	e1 0f       	add	r30, r17
    7ecc:	f1 1d       	adc	r31, r1
    7ece:	e1 0f       	add	r30, r17
    7ed0:	f1 1d       	adc	r31, r1
    7ed2:	40 e0       	ldi	r20, 0x00	; 0
    7ed4:	61 81       	ldd	r22, Z+1	; 0x01
    7ed6:	80 81       	ld	r24, Z
    7ed8:	0e 94 24 3f 	call	0x7e48	; 0x7e48 <CheckUncheckRadio>
    7edc:	1f 5f       	subi	r17, 0xFF	; 255
    7ede:	f1 cf       	rjmp	.-30     	; 0x7ec2 <SetCheckedRadio+0x42>
    7ee0:	0d 83       	std	Y+5, r16	; 0x05
    7ee2:	df 91       	pop	r29
    7ee4:	cf 91       	pop	r28
    7ee6:	1f 91       	pop	r17
    7ee8:	0f 91       	pop	r16
    7eea:	08 95       	ret

00007eec <InitRadio_xy>:
    7eec:	86 0f       	add	r24, r22
    7eee:	91 1d       	adc	r25, r1
    7ef0:	86 0f       	add	r24, r22
    7ef2:	91 1d       	adc	r25, r1
    7ef4:	fc 01       	movw	r30, r24
    7ef6:	40 83       	st	Z, r20
    7ef8:	21 83       	std	Z+1, r18	; 0x01
    7efa:	08 95       	ret

00007efc <DrawOuterRadioButtonThisGroup>:
    7efc:	cf 92       	push	r12
    7efe:	df 92       	push	r13
    7f00:	ef 92       	push	r14
    7f02:	0f 93       	push	r16
    7f04:	cf 93       	push	r28
    7f06:	6c 01       	movw	r12, r24
    7f08:	c0 e0       	ldi	r28, 0x00	; 0
    7f0a:	f6 01       	movw	r30, r12
    7f0c:	86 81       	ldd	r24, Z+6	; 0x06
    7f0e:	c8 17       	cp	r28, r24
    7f10:	90 f4       	brcc	.+36     	; 0x7f36 <DrawOuterRadioButtonThisGroup+0x3a>
    7f12:	f6 01       	movw	r30, r12
    7f14:	ec 0f       	add	r30, r28
    7f16:	f1 1d       	adc	r31, r1
    7f18:	ec 0f       	add	r30, r28
    7f1a:	f1 1d       	adc	r31, r1
    7f1c:	61 81       	ldd	r22, Z+1	; 0x01
    7f1e:	63 50       	subi	r22, 0x03	; 3
    7f20:	80 81       	ld	r24, Z
    7f22:	ee 24       	eor	r14, r14
    7f24:	ea 94       	dec	r14
    7f26:	03 e0       	ldi	r16, 0x03	; 3
    7f28:	26 e0       	ldi	r18, 0x06	; 6
    7f2a:	46 e0       	ldi	r20, 0x06	; 6
    7f2c:	83 50       	subi	r24, 0x03	; 3
    7f2e:	0e 94 0e 2a 	call	0x541c	; 0x541c <ks0108DrawRoundRect>
    7f32:	cf 5f       	subi	r28, 0xFF	; 255
    7f34:	ea cf       	rjmp	.-44     	; 0x7f0a <DrawOuterRadioButtonThisGroup+0xe>
    7f36:	cf 91       	pop	r28
    7f38:	0f 91       	pop	r16
    7f3a:	ef 90       	pop	r14
    7f3c:	df 90       	pop	r13
    7f3e:	cf 90       	pop	r12
    7f40:	08 95       	ret

00007f42 <playsound>:
    7f42:	81 11       	cpse	r24, r1
    7f44:	13 c0       	rjmp	.+38     	; 0x7f6c <playsound+0x2a>
    7f46:	80 91 04 08 	lds	r24, 0x0804	; 0x800804 <Buzzer+0x5>
    7f4a:	80 ff       	sbrs	r24, 0
    7f4c:	0f c0       	rjmp	.+30     	; 0x7f6c <playsound+0x2a>
    7f4e:	80 91 04 08 	lds	r24, 0x0804	; 0x800804 <Buzzer+0x5>
    7f52:	82 60       	ori	r24, 0x02	; 2
    7f54:	80 93 04 08 	sts	0x0804, r24	; 0x800804 <Buzzer+0x5>
    7f58:	81 e0       	ldi	r24, 0x01	; 1
    7f5a:	90 e0       	ldi	r25, 0x00	; 0
    7f5c:	01 c0       	rjmp	.+2      	; 0x7f60 <playsound+0x1e>
    7f5e:	88 0f       	add	r24, r24
    7f60:	6a 95       	dec	r22
    7f62:	ea f7       	brpl	.-6      	; 0x7f5e <playsound+0x1c>
    7f64:	80 93 05 08 	sts	0x0805, r24	; 0x800805 <Buzzer+0x6>
    7f68:	10 92 ff 07 	sts	0x07FF, r1	; 0x8007ff <Buzzer>
    7f6c:	08 95       	ret

00007f6e <InitPWM>:
    7f6e:	8f ef       	ldi	r24, 0xFF	; 255
    7f70:	93 e0       	ldi	r25, 0x03	; 3
    7f72:	90 93 83 00 	sts	0x0083, r25	; 0x800083 <__TEXT_REGION_LENGTH__+0x7e0083>
    7f76:	80 93 82 00 	sts	0x0082, r24	; 0x800082 <__TEXT_REGION_LENGTH__+0x7e0082>
    7f7a:	90 93 85 00 	sts	0x0085, r25	; 0x800085 <__TEXT_REGION_LENGTH__+0x7e0085>
    7f7e:	80 93 84 00 	sts	0x0084, r24	; 0x800084 <__TEXT_REGION_LENGTH__+0x7e0084>
    7f82:	90 93 87 00 	sts	0x0087, r25	; 0x800087 <__TEXT_REGION_LENGTH__+0x7e0087>
    7f86:	80 93 86 00 	sts	0x0086, r24	; 0x800086 <__TEXT_REGION_LENGTH__+0x7e0086>
    7f8a:	90 93 79 00 	sts	0x0079, r25	; 0x800079 <__TEXT_REGION_LENGTH__+0x7e0079>
    7f8e:	80 93 78 00 	sts	0x0078, r24	; 0x800078 <__TEXT_REGION_LENGTH__+0x7e0078>
    7f92:	99 bd       	out	0x29, r25	; 41
    7f94:	88 bd       	out	0x28, r24	; 40
    7f96:	9b bd       	out	0x2b, r25	; 43
    7f98:	8a bd       	out	0x2a, r24	; 42
    7f9a:	1d bc       	out	0x2d, r1	; 45
    7f9c:	1c bc       	out	0x2c, r1	; 44
    7f9e:	10 92 89 00 	sts	0x0089, r1	; 0x800089 <__TEXT_REGION_LENGTH__+0x7e0089>
    7fa2:	10 92 88 00 	sts	0x0088, r1	; 0x800088 <__TEXT_REGION_LENGTH__+0x7e0088>
    7fa6:	8b ea       	ldi	r24, 0xAB	; 171
    7fa8:	8f bd       	out	0x2f, r24	; 47
    7faa:	80 93 8b 00 	sts	0x008B, r24	; 0x80008b <__TEXT_REGION_LENGTH__+0x7e008b>
    7fae:	89 e0       	ldi	r24, 0x09	; 9
    7fb0:	8e bd       	out	0x2e, r24	; 46
    7fb2:	80 93 8a 00 	sts	0x008A, r24	; 0x80008a <__TEXT_REGION_LENGTH__+0x7e008a>
    7fb6:	80 ee       	ldi	r24, 0xE0	; 224
    7fb8:	80 93 7a 00 	sts	0x007A, r24	; 0x80007a <__TEXT_REGION_LENGTH__+0x7e007a>
    7fbc:	80 93 8c 00 	sts	0x008C, r24	; 0x80008c <__TEXT_REGION_LENGTH__+0x7e008c>
    7fc0:	bd 9a       	sbi	0x17, 5	; 23
    7fc2:	be 9a       	sbi	0x17, 6	; 23
    7fc4:	bf 9a       	sbi	0x17, 7	; 23
    7fc6:	13 9a       	sbi	0x02, 3	; 2
    7fc8:	14 9a       	sbi	0x02, 4	; 2
    7fca:	15 9a       	sbi	0x02, 5	; 2
    7fcc:	08 95       	ret

00007fce <InitRS845_0>:
    7fce:	e4 e6       	ldi	r30, 0x64	; 100
    7fd0:	f0 e0       	ldi	r31, 0x00	; 0
    7fd2:	80 81       	ld	r24, Z
    7fd4:	88 60       	ori	r24, 0x08	; 8
    7fd6:	80 83       	st	Z, r24
    7fd8:	e5 e6       	ldi	r30, 0x65	; 101
    7fda:	f0 e0       	ldi	r31, 0x00	; 0
    7fdc:	80 81       	ld	r24, Z
    7fde:	88 60       	ori	r24, 0x08	; 8
    7fe0:	80 83       	st	Z, r24
    7fe2:	08 95       	ret

00007fe4 <key4_1fmode0>:
    7fe4:	08 95       	ret

00007fe6 <key3_1fmode0>:
    7fe6:	81 e0       	ldi	r24, 0x01	; 1
    7fe8:	80 93 11 0a 	sts	0x0A11, r24	; 0x800a11 <shell+0x1>
    7fec:	61 e0       	ldi	r22, 0x01	; 1
    7fee:	80 e0       	ldi	r24, 0x00	; 0
    7ff0:	0c 94 a1 3f 	jmp	0x7f42	; 0x7f42 <playsound>

00007ff4 <key3_1fmode0_aft>:
    7ff4:	0c 94 f3 3f 	jmp	0x7fe6	; 0x7fe6 <key3_1fmode0>

00007ff8 <key2_1fmode0>:
    7ff8:	80 91 de 02 	lds	r24, 0x02DE	; 0x8002de <menu_operational>
    7ffc:	90 91 df 02 	lds	r25, 0x02DF	; 0x8002df <menu_operational+0x1>
    8000:	0e 94 c4 2d 	call	0x5b88	; 0x5b88 <_back_option>
    8004:	60 e0       	ldi	r22, 0x00	; 0
    8006:	80 e0       	ldi	r24, 0x00	; 0
    8008:	0c 94 a1 3f 	jmp	0x7f42	; 0x7f42 <playsound>

0000800c <key1_1fmode0>:
    800c:	80 91 de 02 	lds	r24, 0x02DE	; 0x8002de <menu_operational>
    8010:	90 91 df 02 	lds	r25, 0x02DF	; 0x8002df <menu_operational+0x1>
    8014:	0e 94 ab 2d 	call	0x5b56	; 0x5b56 <_forward_option>
    8018:	60 e0       	ldi	r22, 0x00	; 0
    801a:	80 e0       	ldi	r24, 0x00	; 0
    801c:	0c 94 a1 3f 	jmp	0x7f42	; 0x7f42 <playsound>

00008020 <service__blinkcaption>:
    8020:	80 91 07 08 	lds	r24, 0x0807	; 0x800807 <bfCommonProcess0>
    8024:	80 ff       	sbrs	r24, 0
    8026:	0b c0       	rjmp	.+22     	; 0x803e <service__blinkcaption+0x1e>
    8028:	80 91 07 08 	lds	r24, 0x0807	; 0x800807 <bfCommonProcess0>
    802c:	81 ff       	sbrs	r24, 1
    802e:	07 c0       	rjmp	.+14     	; 0x803e <service__blinkcaption+0x1e>
    8030:	80 91 07 08 	lds	r24, 0x0807	; 0x800807 <bfCommonProcess0>
    8034:	8d 7f       	andi	r24, 0xFD	; 253
    8036:	80 93 07 08 	sts	0x0807, r24	; 0x800807 <bfCommonProcess0>
    803a:	0c 94 67 11 	jmp	0x22ce	; 0x22ce <ObjBlink_Timming_CaptionOfBarZone>
    803e:	08 95       	ret

00008040 <service__fadingprocess>:
    8040:	cf 92       	push	r12
    8042:	df 92       	push	r13
    8044:	ff 92       	push	r15
    8046:	0f 93       	push	r16
    8048:	1f 93       	push	r17
    804a:	cf 93       	push	r28
    804c:	df 93       	push	r29
    804e:	80 91 37 08 	lds	r24, 0x0837	; 0x800837 <ps_fading_inbk>
    8052:	81 ff       	sbrs	r24, 1
    8054:	45 c0       	rjmp	.+138    	; 0x80e0 <service__fadingprocess+0xa0>
    8056:	80 91 37 08 	lds	r24, 0x0837	; 0x800837 <ps_fading_inbk>
    805a:	8d 7f       	andi	r24, 0xFD	; 253
    805c:	80 93 37 08 	sts	0x0837, r24	; 0x800837 <ps_fading_inbk>
    8060:	c0 e0       	ldi	r28, 0x00	; 0
    8062:	d0 e0       	ldi	r29, 0x00	; 0
    8064:	84 e2       	ldi	r24, 0x24	; 36
    8066:	f8 2e       	mov	r15, r24
    8068:	fc 9e       	mul	r15, r28
    806a:	80 01       	movw	r16, r0
    806c:	fd 9e       	mul	r15, r29
    806e:	10 0d       	add	r17, r0
    8070:	11 24       	eor	r1, r1
    8072:	c8 01       	movw	r24, r16
    8074:	8e 59       	subi	r24, 0x9E	; 158
    8076:	95 4f       	sbci	r25, 0xF5	; 245
    8078:	6c 01       	movw	r12, r24
    807a:	fc 01       	movw	r30, r24
    807c:	86 81       	ldd	r24, Z+6	; 0x06
    807e:	81 30       	cpi	r24, 0x01	; 1
    8080:	59 f5       	brne	.+86     	; 0x80d8 <service__fadingprocess+0x98>
    8082:	06 58       	subi	r16, 0x86	; 134
    8084:	15 4f       	sbci	r17, 0xF5	; 245
    8086:	f8 01       	movw	r30, r16
    8088:	80 81       	ld	r24, Z
    808a:	80 ff       	sbrs	r24, 0
    808c:	25 c0       	rjmp	.+74     	; 0x80d8 <service__fadingprocess+0x98>
    808e:	8c 2f       	mov	r24, r28
    8090:	0e 94 70 1b 	call	0x36e0	; 0x36e0 <fadingprocess_inzone>
    8094:	f8 01       	movw	r30, r16
    8096:	80 81       	ld	r24, Z
    8098:	80 fd       	sbrc	r24, 0
    809a:	1e c0       	rjmp	.+60     	; 0x80d8 <service__fadingprocess+0x98>
    809c:	e0 91 34 02 	lds	r30, 0x0234	; 0x800234 <graphbarlevel+0x4>
    80a0:	f0 91 35 02 	lds	r31, 0x0235	; 0x800235 <graphbarlevel+0x5>
    80a4:	8c 2f       	mov	r24, r28
    80a6:	09 95       	icall
    80a8:	80 91 37 08 	lds	r24, 0x0837	; 0x800837 <ps_fading_inbk>
    80ac:	82 ff       	sbrs	r24, 2
    80ae:	07 c0       	rjmp	.+14     	; 0x80be <service__fadingprocess+0x7e>
    80b0:	f6 01       	movw	r30, r12
    80b2:	60 85       	ldd	r22, Z+8	; 0x08
    80b4:	71 85       	ldd	r23, Z+9	; 0x09
    80b6:	4f ef       	ldi	r20, 0xFF	; 255
    80b8:	8c 2f       	mov	r24, r28
    80ba:	0e 94 57 1f 	call	0x3eae	; 0x3eae <direct_fillclear_barlevel>
    80be:	fc 9e       	mul	r15, r28
    80c0:	f0 01       	movw	r30, r0
    80c2:	fd 9e       	mul	r15, r29
    80c4:	f0 0d       	add	r31, r0
    80c6:	11 24       	eor	r1, r1
    80c8:	e5 58       	subi	r30, 0x85	; 133
    80ca:	f5 4f       	sbci	r31, 0xF5	; 245
    80cc:	80 81       	ld	r24, Z
    80ce:	81 ff       	sbrs	r24, 1
    80d0:	03 c0       	rjmp	.+6      	; 0x80d8 <service__fadingprocess+0x98>
    80d2:	80 81       	ld	r24, Z
    80d4:	8d 7f       	andi	r24, 0xFD	; 253
    80d6:	80 83       	st	Z, r24
    80d8:	21 96       	adiw	r28, 0x01	; 1
    80da:	c6 30       	cpi	r28, 0x06	; 6
    80dc:	d1 05       	cpc	r29, r1
    80de:	21 f6       	brne	.-120    	; 0x8068 <service__fadingprocess+0x28>
    80e0:	df 91       	pop	r29
    80e2:	cf 91       	pop	r28
    80e4:	1f 91       	pop	r17
    80e6:	0f 91       	pop	r16
    80e8:	ff 90       	pop	r15
    80ea:	df 90       	pop	r13
    80ec:	cf 90       	pop	r12
    80ee:	08 95       	ret

000080f0 <services>:
    80f0:	0e 94 10 40 	call	0x8020	; 0x8020 <service__blinkcaption>
    80f4:	0c 94 20 40 	jmp	0x8040	; 0x8040 <service__fadingprocess>

000080f8 <Shell_main>:
    80f8:	60 e0       	ldi	r22, 0x00	; 0
    80fa:	85 e7       	ldi	r24, 0x75	; 117
    80fc:	96 e0       	ldi	r25, 0x06	; 6
    80fe:	0e 94 b8 24 	call	0x4970	; 0x4970 <change_operating_mode>
    8102:	80 91 07 08 	lds	r24, 0x0807	; 0x800807 <bfCommonProcess0>
    8106:	81 60       	ori	r24, 0x01	; 1
    8108:	80 93 07 08 	sts	0x0807, r24	; 0x800807 <bfCommonProcess0>
    810c:	0e 94 c3 2c 	call	0x5986	; 0x5986 <menu_main_background_panel0>
    8110:	80 91 de 02 	lds	r24, 0x02DE	; 0x8002de <menu_operational>
    8114:	90 91 df 02 	lds	r25, 0x02DF	; 0x8002df <menu_operational+0x1>
    8118:	0e 94 44 2e 	call	0x5c88	; 0x5c88 <_show_options_by_numpage>
    811c:	81 e0       	ldi	r24, 0x01	; 1
    811e:	80 93 35 0a 	sts	0x0A35, r24	; 0x800a35 <time_printdisp+0x13>
    8122:	80 93 5d 0a 	sts	0x0A5D, r24	; 0x800a5d <date_printdisp+0x16>
    8126:	c1 e0       	ldi	r28, 0x01	; 1
    8128:	16 e1       	ldi	r17, 0x16	; 22
    812a:	0e 94 e8 43 	call	0x87d0	; 0x87d0 <time_driver__d>
    812e:	0e 94 66 44 	call	0x88cc	; 0x88cc <time_printdisp__d>
    8132:	0e 94 98 44 	call	0x8930	; 0x8930 <date_driver__d>
    8136:	0e 94 37 45 	call	0x8a6e	; 0x8a6e <date_printdisp__d>
    813a:	0e 94 a8 23 	call	0x4750	; 0x4750 <kb_handler0>
    813e:	80 91 10 0a 	lds	r24, 0x0A10	; 0x800a10 <shell>
    8142:	88 23       	and	r24, r24
    8144:	81 f1       	breq	.+96     	; 0x81a6 <Shell_main+0xae>
    8146:	80 91 37 08 	lds	r24, 0x0837	; 0x800837 <ps_fading_inbk>
    814a:	8b 7f       	andi	r24, 0xFB	; 251
    814c:	80 93 37 08 	sts	0x0837, r24	; 0x800837 <ps_fading_inbk>
    8150:	0e 94 3c 25 	call	0x4a78	; 0x4a78 <pop_address_fx>
    8154:	d0 91 10 0a 	lds	r29, 0x0A10	; 0x800a10 <shell>
    8158:	d1 30       	cpi	r29, 0x01	; 1
    815a:	29 f4       	brne	.+10     	; 0x8166 <Shell_main+0x6e>
    815c:	0e 94 70 2d 	call	0x5ae0	; 0x5ae0 <control_of_traffic>
    8160:	d0 93 11 0a 	sts	0x0A11, r29	; 0x800a11 <shell+0x1>
    8164:	1e c0       	rjmp	.+60     	; 0x81a2 <Shell_main+0xaa>
    8166:	d2 30       	cpi	r29, 0x02	; 2
    8168:	a1 f4       	brne	.+40     	; 0x8192 <Shell_main+0x9a>
    816a:	00 e0       	ldi	r16, 0x00	; 0
    816c:	2f e3       	ldi	r18, 0x3F	; 63
    816e:	4f eb       	ldi	r20, 0xBF	; 191
    8170:	60 e0       	ldi	r22, 0x00	; 0
    8172:	80 e0       	ldi	r24, 0x00	; 0
    8174:	0e 94 61 28 	call	0x50c2	; 0x50c2 <ks0108FillRect>
    8178:	c0 93 35 0a 	sts	0x0A35, r28	; 0x800a35 <time_printdisp+0x13>
    817c:	c0 93 5d 0a 	sts	0x0A5D, r28	; 0x800a5d <date_printdisp+0x16>
    8180:	0e 94 c3 2c 	call	0x5986	; 0x5986 <menu_main_background_panel0>
    8184:	80 91 de 02 	lds	r24, 0x02DE	; 0x8002de <menu_operational>
    8188:	90 91 df 02 	lds	r25, 0x02DF	; 0x8002df <menu_operational+0x1>
    818c:	0e 94 44 2e 	call	0x5c88	; 0x5c88 <_show_options_by_numpage>
    8190:	06 c0       	rjmp	.+12     	; 0x819e <Shell_main+0xa6>
    8192:	d3 30       	cpi	r29, 0x03	; 3
    8194:	31 f4       	brne	.+12     	; 0x81a2 <Shell_main+0xaa>
    8196:	c0 93 35 0a 	sts	0x0A35, r28	; 0x800a35 <time_printdisp+0x13>
    819a:	c0 93 5d 0a 	sts	0x0A5D, r28	; 0x800a5d <date_printdisp+0x16>
    819e:	10 92 11 0a 	sts	0x0A11, r1	; 0x800a11 <shell+0x1>
    81a2:	10 92 10 0a 	sts	0x0A10, r1	; 0x800a10 <shell>
    81a6:	80 91 11 0a 	lds	r24, 0x0A11	; 0x800a11 <shell+0x1>
    81aa:	88 23       	and	r24, r24
    81ac:	11 f1       	breq	.+68     	; 0x81f2 <Shell_main+0xfa>
    81ae:	10 92 35 0a 	sts	0x0A35, r1	; 0x800a35 <time_printdisp+0x13>
    81b2:	10 92 5d 0a 	sts	0x0A5D, r1	; 0x800a5d <date_printdisp+0x16>
    81b6:	81 30       	cpi	r24, 0x01	; 1
    81b8:	39 f4       	brne	.+14     	; 0x81c8 <Shell_main+0xd0>
    81ba:	0e 94 2f 25 	call	0x4a5e	; 0x4a5e <push_address_fx>
    81be:	80 91 11 0a 	lds	r24, 0x0A11	; 0x800a11 <shell+0x1>
    81c2:	8f 5f       	subi	r24, 0xFF	; 255
    81c4:	80 93 11 0a 	sts	0x0A11, r24	; 0x800a11 <shell+0x1>
    81c8:	80 91 11 0a 	lds	r24, 0x0A11	; 0x800a11 <shell+0x1>
    81cc:	82 30       	cpi	r24, 0x02	; 2
    81ce:	89 f4       	brne	.+34     	; 0x81f2 <Shell_main+0xfa>
    81d0:	e0 91 de 02 	lds	r30, 0x02DE	; 0x8002de <menu_operational>
    81d4:	f0 91 df 02 	lds	r31, 0x02DF	; 0x8002df <menu_operational+0x1>
    81d8:	df 01       	movw	r26, r30
    81da:	a2 51       	subi	r26, 0x12	; 18
    81dc:	bf 4f       	sbci	r27, 0xFF	; 255
    81de:	2c 91       	ld	r18, X
    81e0:	21 03       	mulsu	r18, r17
    81e2:	c0 01       	movw	r24, r0
    81e4:	11 24       	eor	r1, r1
    81e6:	e8 0f       	add	r30, r24
    81e8:	f9 1f       	adc	r31, r25
    81ea:	01 8c       	ldd	r0, Z+25	; 0x19
    81ec:	f2 8d       	ldd	r31, Z+26	; 0x1a
    81ee:	e0 2d       	mov	r30, r0
    81f0:	09 95       	icall
    81f2:	0e 94 78 40 	call	0x80f0	; 0x80f0 <services>
    81f6:	99 cf       	rjmp	.-206    	; 0x812a <Shell_main+0x32>

000081f8 <InitTCNT0>:
    81f8:	81 e0       	ldi	r24, 0x01	; 1
    81fa:	81 bf       	out	0x31, r24	; 49
    81fc:	8f e0       	ldi	r24, 0x0F	; 15
    81fe:	83 bf       	out	0x33, r24	; 51
    8200:	08 95       	ret

00008202 <__vector_15>:
    8202:	1f 92       	push	r1
    8204:	0f 92       	push	r0
    8206:	0f b6       	in	r0, 0x3f	; 63
    8208:	0f 92       	push	r0
    820a:	11 24       	eor	r1, r1
    820c:	0b b6       	in	r0, 0x3b	; 59
    820e:	0f 92       	push	r0
    8210:	2f 93       	push	r18
    8212:	3f 93       	push	r19
    8214:	4f 93       	push	r20
    8216:	5f 93       	push	r21
    8218:	6f 93       	push	r22
    821a:	7f 93       	push	r23
    821c:	8f 93       	push	r24
    821e:	9f 93       	push	r25
    8220:	af 93       	push	r26
    8222:	bf 93       	push	r27
    8224:	ef 93       	push	r30
    8226:	ff 93       	push	r31
    8228:	80 91 f9 07 	lds	r24, 0x07F9	; 0x8007f9 <__CounterAccess1__.3407>
    822c:	8f 5f       	subi	r24, 0xFF	; 255
    822e:	80 93 f9 07 	sts	0x07F9, r24	; 0x8007f9 <__CounterAccess1__.3407>
    8232:	88 32       	cpi	r24, 0x28	; 40
    8234:	08 f4       	brcc	.+2      	; 0x8238 <__vector_15+0x36>
    8236:	53 c0       	rjmp	.+166    	; 0x82de <__vector_15+0xdc>
    8238:	10 92 f9 07 	sts	0x07F9, r1	; 0x8007f9 <__CounterAccess1__.3407>
    823c:	0e 94 ea 20 	call	0x41d4	; 0x41d4 <KB_KeyboardProcess>
    8240:	80 91 04 08 	lds	r24, 0x0804	; 0x800804 <Buzzer+0x5>
    8244:	80 fd       	sbrc	r24, 0
    8246:	0e 94 04 0c 	call	0x1808	; 0x1808 <BuzzerScheduler>
    824a:	80 91 07 08 	lds	r24, 0x0807	; 0x800807 <bfCommonProcess0>
    824e:	80 fd       	sbrc	r24, 0
    8250:	0e 94 1d 0c 	call	0x183a	; 0x183a <TimmingHandler_BlinkCaption>
    8254:	0e 94 13 0c 	call	0x1826	; 0x1826 <TIMER0_IsActiveFading>
    8258:	0e 94 42 35 	call	0x6a84	; 0x6a84 <Timmer_TimmingToBackScene>
    825c:	0e 94 23 0c 	call	0x1846	; 0x1846 <ScheduleTimmerKeepAlive_BLGLCD>
    8260:	80 91 f8 07 	lds	r24, 0x07F8	; 0x8007f8 <__CounterAccess2__.3408>
    8264:	8f 5f       	subi	r24, 0xFF	; 255
    8266:	80 93 f8 07 	sts	0x07F8, r24	; 0x8007f8 <__CounterAccess2__.3408>
    826a:	84 30       	cpi	r24, 0x04	; 4
    826c:	c0 f1       	brcs	.+112    	; 0x82de <__vector_15+0xdc>
    826e:	10 92 f8 07 	sts	0x07F8, r1	; 0x8007f8 <__CounterAccess2__.3408>
    8272:	e0 91 61 06 	lds	r30, 0x0661	; 0x800661 <p0_this_timmer_nb>
    8276:	f0 91 62 06 	lds	r31, 0x0662	; 0x800662 <p0_this_timmer_nb+0x1>
    827a:	83 81       	ldd	r24, Z+3	; 0x03
    827c:	81 30       	cpi	r24, 0x01	; 1
    827e:	19 f4       	brne	.+6      	; 0x8286 <__vector_15+0x84>
    8280:	80 81       	ld	r24, Z
    8282:	8f 5f       	subi	r24, 0xFF	; 255
    8284:	80 83       	st	Z, r24
    8286:	e0 91 d3 05 	lds	r30, 0x05D3	; 0x8005d3 <p1_this_timmer_nb>
    828a:	f0 91 d4 05 	lds	r31, 0x05D4	; 0x8005d4 <p1_this_timmer_nb+0x1>
    828e:	83 81       	ldd	r24, Z+3	; 0x03
    8290:	81 30       	cpi	r24, 0x01	; 1
    8292:	19 f4       	brne	.+6      	; 0x829a <__vector_15+0x98>
    8294:	80 81       	ld	r24, Z
    8296:	8f 5f       	subi	r24, 0xFF	; 255
    8298:	80 83       	st	Z, r24
    829a:	87 81       	ldd	r24, Z+7	; 0x07
    829c:	81 30       	cpi	r24, 0x01	; 1
    829e:	19 f4       	brne	.+6      	; 0x82a6 <__vector_15+0xa4>
    82a0:	84 81       	ldd	r24, Z+4	; 0x04
    82a2:	8f 5f       	subi	r24, 0xFF	; 255
    82a4:	84 83       	std	Z+4, r24	; 0x04
    82a6:	83 85       	ldd	r24, Z+11	; 0x0b
    82a8:	81 30       	cpi	r24, 0x01	; 1
    82aa:	19 f4       	brne	.+6      	; 0x82b2 <__vector_15+0xb0>
    82ac:	80 85       	ldd	r24, Z+8	; 0x08
    82ae:	8f 5f       	subi	r24, 0xFF	; 255
    82b0:	80 87       	std	Z+8, r24	; 0x08
    82b2:	e0 91 8e 01 	lds	r30, 0x018E	; 0x80018e <p2_this_timmer_nb>
    82b6:	f0 91 8f 01 	lds	r31, 0x018F	; 0x80018f <p2_this_timmer_nb+0x1>
    82ba:	83 81       	ldd	r24, Z+3	; 0x03
    82bc:	81 30       	cpi	r24, 0x01	; 1
    82be:	19 f4       	brne	.+6      	; 0x82c6 <__vector_15+0xc4>
    82c0:	80 81       	ld	r24, Z
    82c2:	8f 5f       	subi	r24, 0xFF	; 255
    82c4:	80 83       	st	Z, r24
    82c6:	87 81       	ldd	r24, Z+7	; 0x07
    82c8:	81 30       	cpi	r24, 0x01	; 1
    82ca:	19 f4       	brne	.+6      	; 0x82d2 <__vector_15+0xd0>
    82cc:	84 81       	ldd	r24, Z+4	; 0x04
    82ce:	8f 5f       	subi	r24, 0xFF	; 255
    82d0:	84 83       	std	Z+4, r24	; 0x04
    82d2:	83 85       	ldd	r24, Z+11	; 0x0b
    82d4:	81 30       	cpi	r24, 0x01	; 1
    82d6:	19 f4       	brne	.+6      	; 0x82de <__vector_15+0xdc>
    82d8:	80 85       	ldd	r24, Z+8	; 0x08
    82da:	8f 5f       	subi	r24, 0xFF	; 255
    82dc:	80 87       	std	Z+8, r24	; 0x08
    82de:	0e 94 63 0c 	call	0x18c6	; 0x18c6 <SchedulerEvent_PWM_BLGLCD>
    82e2:	ff 91       	pop	r31
    82e4:	ef 91       	pop	r30
    82e6:	bf 91       	pop	r27
    82e8:	af 91       	pop	r26
    82ea:	9f 91       	pop	r25
    82ec:	8f 91       	pop	r24
    82ee:	7f 91       	pop	r23
    82f0:	6f 91       	pop	r22
    82f2:	5f 91       	pop	r21
    82f4:	4f 91       	pop	r20
    82f6:	3f 91       	pop	r19
    82f8:	2f 91       	pop	r18
    82fa:	0f 90       	pop	r0
    82fc:	0b be       	out	0x3b, r0	; 59
    82fe:	0f 90       	pop	r0
    8300:	0f be       	out	0x3f, r0	; 63
    8302:	0f 90       	pop	r0
    8304:	1f 90       	pop	r1
    8306:	18 95       	reti

00008308 <time_printdisp__write_hour_H>:
    8308:	0f 93       	push	r16
    830a:	cf 93       	push	r28
    830c:	df 93       	push	r29
    830e:	c2 e2       	ldi	r28, 0x22	; 34
    8310:	da e0       	ldi	r29, 0x0A	; 10
    8312:	6a 81       	ldd	r22, Y+2	; 0x02
    8314:	89 81       	ldd	r24, Y+1	; 0x01
    8316:	00 e0       	ldi	r16, 0x00	; 0
    8318:	2e e0       	ldi	r18, 0x0E	; 14
    831a:	47 e0       	ldi	r20, 0x07	; 7
    831c:	0e 94 61 28 	call	0x50c2	; 0x50c2 <ks0108FillRect>
    8320:	6a 81       	ldd	r22, Y+2	; 0x02
    8322:	89 81       	ldd	r24, Y+1	; 0x01
    8324:	0e 94 da 25 	call	0x4bb4	; 0x4bb4 <ks0108GotoXY>
    8328:	80 91 13 0a 	lds	r24, 0x0A13	; 0x800a13 <time+0x1>
    832c:	80 5d       	subi	r24, 0xD0	; 208
    832e:	df 91       	pop	r29
    8330:	cf 91       	pop	r28
    8332:	0f 91       	pop	r16
    8334:	0c 94 ea 2a 	jmp	0x55d4	; 0x55d4 <ks0108PutChar>

00008338 <time_printdisp__write_min_M10>:
    8338:	0f 93       	push	r16
    833a:	cf 93       	push	r28
    833c:	df 93       	push	r29
    833e:	c2 e2       	ldi	r28, 0x22	; 34
    8340:	da e0       	ldi	r29, 0x0A	; 10
    8342:	68 85       	ldd	r22, Y+8	; 0x08
    8344:	8e 81       	ldd	r24, Y+6	; 0x06
    8346:	00 e0       	ldi	r16, 0x00	; 0
    8348:	2e e0       	ldi	r18, 0x0E	; 14
    834a:	47 e0       	ldi	r20, 0x07	; 7
    834c:	0e 94 61 28 	call	0x50c2	; 0x50c2 <ks0108FillRect>
    8350:	68 85       	ldd	r22, Y+8	; 0x08
    8352:	8e 81       	ldd	r24, Y+6	; 0x06
    8354:	0e 94 da 25 	call	0x4bb4	; 0x4bb4 <ks0108GotoXY>
    8358:	80 91 17 0a 	lds	r24, 0x0A17	; 0x800a17 <time+0x5>
    835c:	80 5d       	subi	r24, 0xD0	; 208
    835e:	df 91       	pop	r29
    8360:	cf 91       	pop	r28
    8362:	0f 91       	pop	r16
    8364:	0c 94 ea 2a 	jmp	0x55d4	; 0x55d4 <ks0108PutChar>

00008368 <time_printdisp__write_min_M>:
    8368:	0f 93       	push	r16
    836a:	cf 93       	push	r28
    836c:	df 93       	push	r29
    836e:	c2 e2       	ldi	r28, 0x22	; 34
    8370:	da e0       	ldi	r29, 0x0A	; 10
    8372:	68 85       	ldd	r22, Y+8	; 0x08
    8374:	8f 81       	ldd	r24, Y+7	; 0x07
    8376:	00 e0       	ldi	r16, 0x00	; 0
    8378:	2e e0       	ldi	r18, 0x0E	; 14
    837a:	47 e0       	ldi	r20, 0x07	; 7
    837c:	0e 94 61 28 	call	0x50c2	; 0x50c2 <ks0108FillRect>
    8380:	68 85       	ldd	r22, Y+8	; 0x08
    8382:	8f 81       	ldd	r24, Y+7	; 0x07
    8384:	0e 94 da 25 	call	0x4bb4	; 0x4bb4 <ks0108GotoXY>
    8388:	80 91 18 0a 	lds	r24, 0x0A18	; 0x800a18 <time+0x6>
    838c:	80 5d       	subi	r24, 0xD0	; 208
    838e:	df 91       	pop	r29
    8390:	cf 91       	pop	r28
    8392:	0f 91       	pop	r16
    8394:	0c 94 ea 2a 	jmp	0x55d4	; 0x55d4 <ks0108PutChar>

00008398 <time_printdisp__write_ampm_AP>:
    8398:	0f 93       	push	r16
    839a:	60 91 34 0a 	lds	r22, 0x0A34	; 0x800a34 <time_printdisp+0x12>
    839e:	80 91 32 0a 	lds	r24, 0x0A32	; 0x800a32 <time_printdisp+0x10>
    83a2:	00 e0       	ldi	r16, 0x00	; 0
    83a4:	2e e0       	ldi	r18, 0x0E	; 14
    83a6:	47 e0       	ldi	r20, 0x07	; 7
    83a8:	0e 94 61 28 	call	0x50c2	; 0x50c2 <ks0108FillRect>
    83ac:	60 91 34 0a 	lds	r22, 0x0A34	; 0x800a34 <time_printdisp+0x12>
    83b0:	80 91 32 0a 	lds	r24, 0x0A32	; 0x800a32 <time_printdisp+0x10>
    83b4:	0e 94 da 25 	call	0x4bb4	; 0x4bb4 <ks0108GotoXY>
    83b8:	80 91 21 0a 	lds	r24, 0x0A21	; 0x800a21 <time+0xf>
    83bc:	80 fd       	sbrc	r24, 0
    83be:	02 c0       	rjmp	.+4      	; 0x83c4 <time_printdisp__write_ampm_AP+0x2c>
    83c0:	81 e6       	ldi	r24, 0x61	; 97
    83c2:	01 c0       	rjmp	.+2      	; 0x83c6 <time_printdisp__write_ampm_AP+0x2e>
    83c4:	80 e7       	ldi	r24, 0x70	; 112
    83c6:	0f 91       	pop	r16
    83c8:	0c 94 ea 2a 	jmp	0x55d4	; 0x55d4 <ks0108PutChar>

000083cc <date_printdisp__write_date_D>:
    83cc:	0f 93       	push	r16
    83ce:	cf 93       	push	r28
    83d0:	df 93       	push	r29
    83d2:	c7 e4       	ldi	r28, 0x47	; 71
    83d4:	da e0       	ldi	r29, 0x0A	; 10
    83d6:	6d 81       	ldd	r22, Y+5	; 0x05
    83d8:	8c 81       	ldd	r24, Y+4	; 0x04
    83da:	00 e0       	ldi	r16, 0x00	; 0
    83dc:	2d e0       	ldi	r18, 0x0D	; 13
    83de:	45 e0       	ldi	r20, 0x05	; 5
    83e0:	0e 94 61 28 	call	0x50c2	; 0x50c2 <ks0108FillRect>
    83e4:	6d 81       	ldd	r22, Y+5	; 0x05
    83e6:	8c 81       	ldd	r24, Y+4	; 0x04
    83e8:	0e 94 da 25 	call	0x4bb4	; 0x4bb4 <ks0108GotoXY>
    83ec:	80 91 39 0a 	lds	r24, 0x0A39	; 0x800a39 <date+0x2>
    83f0:	80 5d       	subi	r24, 0xD0	; 208
    83f2:	df 91       	pop	r29
    83f4:	cf 91       	pop	r28
    83f6:	0f 91       	pop	r16
    83f8:	0c 94 ea 2a 	jmp	0x55d4	; 0x55d4 <ks0108PutChar>

000083fc <date_printdisp__write_month_M>:
    83fc:	0f 93       	push	r16
    83fe:	cf 93       	push	r28
    8400:	df 93       	push	r29
    8402:	c7 e4       	ldi	r28, 0x47	; 71
    8404:	da e0       	ldi	r29, 0x0A	; 10
    8406:	6b 85       	ldd	r22, Y+11	; 0x0b
    8408:	8a 85       	ldd	r24, Y+10	; 0x0a
    840a:	00 e0       	ldi	r16, 0x00	; 0
    840c:	2d e0       	ldi	r18, 0x0D	; 13
    840e:	45 e0       	ldi	r20, 0x05	; 5
    8410:	0e 94 61 28 	call	0x50c2	; 0x50c2 <ks0108FillRect>
    8414:	6b 85       	ldd	r22, Y+11	; 0x0b
    8416:	8a 85       	ldd	r24, Y+10	; 0x0a
    8418:	0e 94 da 25 	call	0x4bb4	; 0x4bb4 <ks0108GotoXY>
    841c:	80 91 3e 0a 	lds	r24, 0x0A3E	; 0x800a3e <date+0x7>
    8420:	80 5d       	subi	r24, 0xD0	; 208
    8422:	df 91       	pop	r29
    8424:	cf 91       	pop	r28
    8426:	0f 91       	pop	r16
    8428:	0c 94 ea 2a 	jmp	0x55d4	; 0x55d4 <ks0108PutChar>

0000842c <date_printdisp__write_year_Y10>:
    842c:	0f 93       	push	r16
    842e:	cf 93       	push	r28
    8430:	df 93       	push	r29
    8432:	c7 e4       	ldi	r28, 0x47	; 71
    8434:	da e0       	ldi	r29, 0x0A	; 10
    8436:	6b 89       	ldd	r22, Y+19	; 0x13
    8438:	89 89       	ldd	r24, Y+17	; 0x11
    843a:	00 e0       	ldi	r16, 0x00	; 0
    843c:	2d e0       	ldi	r18, 0x0D	; 13
    843e:	45 e0       	ldi	r20, 0x05	; 5
    8440:	0e 94 61 28 	call	0x50c2	; 0x50c2 <ks0108FillRect>
    8444:	6b 89       	ldd	r22, Y+19	; 0x13
    8446:	89 89       	ldd	r24, Y+17	; 0x11
    8448:	0e 94 da 25 	call	0x4bb4	; 0x4bb4 <ks0108GotoXY>
    844c:	80 91 42 0a 	lds	r24, 0x0A42	; 0x800a42 <date+0xb>
    8450:	80 5d       	subi	r24, 0xD0	; 208
    8452:	df 91       	pop	r29
    8454:	cf 91       	pop	r28
    8456:	0f 91       	pop	r16
    8458:	0c 94 ea 2a 	jmp	0x55d4	; 0x55d4 <ks0108PutChar>

0000845c <date_printdisp__write_year_Y>:
    845c:	0f 93       	push	r16
    845e:	cf 93       	push	r28
    8460:	df 93       	push	r29
    8462:	c7 e4       	ldi	r28, 0x47	; 71
    8464:	da e0       	ldi	r29, 0x0A	; 10
    8466:	6b 89       	ldd	r22, Y+19	; 0x13
    8468:	8a 89       	ldd	r24, Y+18	; 0x12
    846a:	00 e0       	ldi	r16, 0x00	; 0
    846c:	2d e0       	ldi	r18, 0x0D	; 13
    846e:	45 e0       	ldi	r20, 0x05	; 5
    8470:	0e 94 61 28 	call	0x50c2	; 0x50c2 <ks0108FillRect>
    8474:	6b 89       	ldd	r22, Y+19	; 0x13
    8476:	8a 89       	ldd	r24, Y+18	; 0x12
    8478:	0e 94 da 25 	call	0x4bb4	; 0x4bb4 <ks0108GotoXY>
    847c:	80 91 43 0a 	lds	r24, 0x0A43	; 0x800a43 <date+0xc>
    8480:	80 5d       	subi	r24, 0xD0	; 208
    8482:	df 91       	pop	r29
    8484:	cf 91       	pop	r28
    8486:	0f 91       	pop	r16
    8488:	0c 94 ea 2a 	jmp	0x55d4	; 0x55d4 <ks0108PutChar>

0000848c <date_printdisp__write_string_day>:
    848c:	0f 93       	push	r16
    848e:	cf 93       	push	r28
    8490:	df 93       	push	r29
    8492:	c7 e4       	ldi	r28, 0x47	; 71
    8494:	da e0       	ldi	r29, 0x0A	; 10
    8496:	69 81       	ldd	r22, Y+1	; 0x01
    8498:	88 81       	ld	r24, Y
    849a:	00 e0       	ldi	r16, 0x00	; 0
    849c:	2d e0       	ldi	r18, 0x0D	; 13
    849e:	47 e1       	ldi	r20, 0x17	; 23
    84a0:	0e 94 61 28 	call	0x50c2	; 0x50c2 <ks0108FillRect>
    84a4:	69 81       	ldd	r22, Y+1	; 0x01
    84a6:	88 81       	ld	r24, Y
    84a8:	0e 94 da 25 	call	0x4bb4	; 0x4bb4 <ks0108GotoXY>
    84ac:	8a 81       	ldd	r24, Y+2	; 0x02
    84ae:	24 e0       	ldi	r18, 0x04	; 4
    84b0:	82 9f       	mul	r24, r18
    84b2:	c0 01       	movw	r24, r0
    84b4:	11 24       	eor	r1, r1
    84b6:	89 55       	subi	r24, 0x59	; 89
    84b8:	9a 4e       	sbci	r25, 0xEA	; 234
    84ba:	df 91       	pop	r29
    84bc:	cf 91       	pop	r28
    84be:	0f 91       	pop	r16
    84c0:	0c 94 11 2c 	jmp	0x5822	; 0x5822 <ks0108Puts_P>

000084c4 <date_printdisp__write_string_month>:
    84c4:	0f 93       	push	r16
    84c6:	cf 93       	push	r28
    84c8:	df 93       	push	r29
    84ca:	c7 e4       	ldi	r28, 0x47	; 71
    84cc:	da e0       	ldi	r29, 0x0A	; 10
    84ce:	6d 85       	ldd	r22, Y+13	; 0x0d
    84d0:	8c 85       	ldd	r24, Y+12	; 0x0c
    84d2:	00 e0       	ldi	r16, 0x00	; 0
    84d4:	2d e0       	ldi	r18, 0x0D	; 13
    84d6:	48 e1       	ldi	r20, 0x18	; 24
    84d8:	0e 94 61 28 	call	0x50c2	; 0x50c2 <ks0108FillRect>
    84dc:	6d 85       	ldd	r22, Y+13	; 0x0d
    84de:	8c 85       	ldd	r24, Y+12	; 0x0c
    84e0:	0e 94 da 25 	call	0x4bb4	; 0x4bb4 <ks0108GotoXY>
    84e4:	80 91 41 0a 	lds	r24, 0x0A41	; 0x800a41 <date+0xa>
    84e8:	24 e0       	ldi	r18, 0x04	; 4
    84ea:	82 9f       	mul	r24, r18
    84ec:	c0 01       	movw	r24, r0
    84ee:	11 24       	eor	r1, r1
    84f0:	89 58       	subi	r24, 0x89	; 137
    84f2:	9a 4e       	sbci	r25, 0xEA	; 234
    84f4:	df 91       	pop	r29
    84f6:	cf 91       	pop	r28
    84f8:	0f 91       	pop	r16
    84fa:	0c 94 11 2c 	jmp	0x5822	; 0x5822 <ks0108Puts_P>

000084fe <time_printdisp__write_hour_H10>:
    84fe:	0f 93       	push	r16
    8500:	60 91 24 0a 	lds	r22, 0x0A24	; 0x800a24 <time_printdisp+0x2>
    8504:	80 91 22 0a 	lds	r24, 0x0A22	; 0x800a22 <time_printdisp>
    8508:	00 e0       	ldi	r16, 0x00	; 0
    850a:	2e e0       	ldi	r18, 0x0E	; 14
    850c:	47 e0       	ldi	r20, 0x07	; 7
    850e:	0e 94 61 28 	call	0x50c2	; 0x50c2 <ks0108FillRect>
    8512:	80 91 12 0a 	lds	r24, 0x0A12	; 0x800a12 <time>
    8516:	88 23       	and	r24, r24
    8518:	61 f0       	breq	.+24     	; 0x8532 <time_printdisp__write_hour_H10+0x34>
    851a:	60 91 24 0a 	lds	r22, 0x0A24	; 0x800a24 <time_printdisp+0x2>
    851e:	80 91 22 0a 	lds	r24, 0x0A22	; 0x800a22 <time_printdisp>
    8522:	0e 94 da 25 	call	0x4bb4	; 0x4bb4 <ks0108GotoXY>
    8526:	80 91 12 0a 	lds	r24, 0x0A12	; 0x800a12 <time>
    852a:	80 5d       	subi	r24, 0xD0	; 208
    852c:	0f 91       	pop	r16
    852e:	0c 94 ea 2a 	jmp	0x55d4	; 0x55d4 <ks0108PutChar>
    8532:	0f 91       	pop	r16
    8534:	08 95       	ret

00008536 <time_printdisp__write_update>:
    8536:	0f 93       	push	r16
    8538:	cf 93       	push	r28
    853a:	c8 2f       	mov	r28, r24
    853c:	4f ef       	ldi	r20, 0xFF	; 255
    853e:	64 e4       	ldi	r22, 0x44	; 68
    8540:	75 e2       	ldi	r23, 0x25	; 37
    8542:	82 ed       	ldi	r24, 0xD2	; 210
    8544:	9a e0       	ldi	r25, 0x0A	; 10
    8546:	0e 94 47 25 	call	0x4a8e	; 0x4a8e <ks0108SelectFont>
    854a:	80 91 35 0a 	lds	r24, 0x0A35	; 0x800a35 <time_printdisp+0x13>
    854e:	81 30       	cpi	r24, 0x01	; 1
    8550:	09 f0       	breq	.+2      	; 0x8554 <time_printdisp__write_update+0x1e>
    8552:	8d c0       	rjmp	.+282    	; 0x866e <time_printdisp__write_update+0x138>
    8554:	80 91 20 0a 	lds	r24, 0x0A20	; 0x800a20 <time+0xe>
    8558:	80 93 31 0a 	sts	0x0A31, r24	; 0x800a31 <time_printdisp+0xf>
    855c:	80 91 1b 0a 	lds	r24, 0x0A1B	; 0x800a1b <time+0x9>
    8560:	80 93 2b 0a 	sts	0x0A2B, r24	; 0x800a2b <time_printdisp+0x9>
    8564:	80 91 16 0a 	lds	r24, 0x0A16	; 0x800a16 <time+0x4>
    8568:	80 93 25 0a 	sts	0x0A25, r24	; 0x800a25 <time_printdisp+0x3>
    856c:	90 91 21 0a 	lds	r25, 0x0A21	; 0x800a21 <time+0xf>
    8570:	80 91 21 0a 	lds	r24, 0x0A21	; 0x800a21 <time+0xf>
    8574:	90 fb       	bst	r25, 0
    8576:	81 f9       	bld	r24, 1
    8578:	80 93 21 0a 	sts	0x0A21, r24	; 0x800a21 <time+0xf>
    857c:	80 91 12 0a 	lds	r24, 0x0A12	; 0x800a12 <time>
    8580:	80 93 14 0a 	sts	0x0A14, r24	; 0x800a14 <time+0x2>
    8584:	80 91 13 0a 	lds	r24, 0x0A13	; 0x800a13 <time+0x1>
    8588:	80 93 15 0a 	sts	0x0A15, r24	; 0x800a15 <time+0x3>
    858c:	80 91 17 0a 	lds	r24, 0x0A17	; 0x800a17 <time+0x5>
    8590:	80 93 19 0a 	sts	0x0A19, r24	; 0x800a19 <time+0x7>
    8594:	80 91 18 0a 	lds	r24, 0x0A18	; 0x800a18 <time+0x6>
    8598:	80 93 1a 0a 	sts	0x0A1A, r24	; 0x800a1a <time+0x8>
    859c:	80 91 1c 0a 	lds	r24, 0x0A1C	; 0x800a1c <time+0xa>
    85a0:	80 93 1e 0a 	sts	0x0A1E, r24	; 0x800a1e <time+0xc>
    85a4:	80 91 1d 0a 	lds	r24, 0x0A1D	; 0x800a1d <time+0xb>
    85a8:	80 93 1f 0a 	sts	0x0A1F, r24	; 0x800a1f <time+0xd>
    85ac:	0e 94 7f 42 	call	0x84fe	; 0x84fe <time_printdisp__write_hour_H10>
    85b0:	0e 94 84 41 	call	0x8308	; 0x8308 <time_printdisp__write_hour_H>
    85b4:	60 91 27 0a 	lds	r22, 0x0A27	; 0x800a27 <time_printdisp+0x5>
    85b8:	80 91 26 0a 	lds	r24, 0x0A26	; 0x800a26 <time_printdisp+0x4>
    85bc:	0e 94 da 25 	call	0x4bb4	; 0x4bb4 <ks0108GotoXY>
    85c0:	8a e3       	ldi	r24, 0x3A	; 58
    85c2:	0e 94 ea 2a 	call	0x55d4	; 0x55d4 <ks0108PutChar>
    85c6:	0e 94 9c 41 	call	0x8338	; 0x8338 <time_printdisp__write_min_M10>
    85ca:	0e 94 b4 41 	call	0x8368	; 0x8368 <time_printdisp__write_min_M>
    85ce:	80 91 36 0a 	lds	r24, 0x0A36	; 0x800a36 <time_printdisp+0x14>
    85d2:	80 ff       	sbrs	r24, 0
    85d4:	30 c0       	rjmp	.+96     	; 0x8636 <time_printdisp__write_update+0x100>
    85d6:	60 91 2d 0a 	lds	r22, 0x0A2D	; 0x800a2d <time_printdisp+0xb>
    85da:	80 91 2c 0a 	lds	r24, 0x0A2C	; 0x800a2c <time_printdisp+0xa>
    85de:	0e 94 da 25 	call	0x4bb4	; 0x4bb4 <ks0108GotoXY>
    85e2:	8a e3       	ldi	r24, 0x3A	; 58
    85e4:	0e 94 ea 2a 	call	0x55d4	; 0x55d4 <ks0108PutChar>
    85e8:	60 91 30 0a 	lds	r22, 0x0A30	; 0x800a30 <time_printdisp+0xe>
    85ec:	80 91 2e 0a 	lds	r24, 0x0A2E	; 0x800a2e <time_printdisp+0xc>
    85f0:	00 e0       	ldi	r16, 0x00	; 0
    85f2:	2e e0       	ldi	r18, 0x0E	; 14
    85f4:	47 e0       	ldi	r20, 0x07	; 7
    85f6:	0e 94 61 28 	call	0x50c2	; 0x50c2 <ks0108FillRect>
    85fa:	60 91 30 0a 	lds	r22, 0x0A30	; 0x800a30 <time_printdisp+0xe>
    85fe:	80 91 2e 0a 	lds	r24, 0x0A2E	; 0x800a2e <time_printdisp+0xc>
    8602:	0e 94 da 25 	call	0x4bb4	; 0x4bb4 <ks0108GotoXY>
    8606:	80 91 1c 0a 	lds	r24, 0x0A1C	; 0x800a1c <time+0xa>
    860a:	80 5d       	subi	r24, 0xD0	; 208
    860c:	0e 94 ea 2a 	call	0x55d4	; 0x55d4 <ks0108PutChar>
    8610:	60 91 30 0a 	lds	r22, 0x0A30	; 0x800a30 <time_printdisp+0xe>
    8614:	80 91 2f 0a 	lds	r24, 0x0A2F	; 0x800a2f <time_printdisp+0xd>
    8618:	2e e0       	ldi	r18, 0x0E	; 14
    861a:	47 e0       	ldi	r20, 0x07	; 7
    861c:	0e 94 61 28 	call	0x50c2	; 0x50c2 <ks0108FillRect>
    8620:	60 91 30 0a 	lds	r22, 0x0A30	; 0x800a30 <time_printdisp+0xe>
    8624:	80 91 2f 0a 	lds	r24, 0x0A2F	; 0x800a2f <time_printdisp+0xd>
    8628:	0e 94 da 25 	call	0x4bb4	; 0x4bb4 <ks0108GotoXY>
    862c:	80 91 1d 0a 	lds	r24, 0x0A1D	; 0x800a1d <time+0xb>
    8630:	80 5d       	subi	r24, 0xD0	; 208
    8632:	0e 94 ea 2a 	call	0x55d4	; 0x55d4 <ks0108PutChar>
    8636:	0e 94 cc 41 	call	0x8398	; 0x8398 <time_printdisp__write_ampm_AP>
    863a:	60 91 34 0a 	lds	r22, 0x0A34	; 0x800a34 <time_printdisp+0x12>
    863e:	80 91 33 0a 	lds	r24, 0x0A33	; 0x800a33 <time_printdisp+0x11>
    8642:	00 e0       	ldi	r16, 0x00	; 0
    8644:	2e e0       	ldi	r18, 0x0E	; 14
    8646:	47 e0       	ldi	r20, 0x07	; 7
    8648:	0e 94 61 28 	call	0x50c2	; 0x50c2 <ks0108FillRect>
    864c:	60 91 34 0a 	lds	r22, 0x0A34	; 0x800a34 <time_printdisp+0x12>
    8650:	80 91 33 0a 	lds	r24, 0x0A33	; 0x800a33 <time_printdisp+0x11>
    8654:	0e 94 da 25 	call	0x4bb4	; 0x4bb4 <ks0108GotoXY>
    8658:	8d e6       	ldi	r24, 0x6D	; 109
    865a:	0e 94 ea 2a 	call	0x55d4	; 0x55d4 <ks0108PutChar>
    865e:	80 91 35 0a 	lds	r24, 0x0A35	; 0x800a35 <time_printdisp+0x13>
    8662:	8f 5f       	subi	r24, 0xFF	; 255
    8664:	80 93 35 0a 	sts	0x0A35, r24	; 0x800a35 <time_printdisp+0x13>
    8668:	cf 91       	pop	r28
    866a:	0f 91       	pop	r16
    866c:	08 95       	ret
    866e:	80 91 35 0a 	lds	r24, 0x0A35	; 0x800a35 <time_printdisp+0x13>
    8672:	82 30       	cpi	r24, 0x02	; 2
    8674:	d1 f5       	brne	.+116    	; 0x86ea <time_printdisp__write_update+0x1b4>
    8676:	c2 30       	cpi	r28, 0x02	; 2
    8678:	c9 f4       	brne	.+50     	; 0x86ac <time_printdisp__write_update+0x176>
    867a:	90 91 19 0a 	lds	r25, 0x0A19	; 0x800a19 <time+0x7>
    867e:	80 91 17 0a 	lds	r24, 0x0A17	; 0x800a17 <time+0x5>
    8682:	98 17       	cp	r25, r24
    8684:	31 f0       	breq	.+12     	; 0x8692 <time_printdisp__write_update+0x15c>
    8686:	80 91 17 0a 	lds	r24, 0x0A17	; 0x800a17 <time+0x5>
    868a:	80 93 19 0a 	sts	0x0A19, r24	; 0x800a19 <time+0x7>
    868e:	0e 94 9c 41 	call	0x8338	; 0x8338 <time_printdisp__write_min_M10>
    8692:	90 91 1a 0a 	lds	r25, 0x0A1A	; 0x800a1a <time+0x8>
    8696:	80 91 18 0a 	lds	r24, 0x0A18	; 0x800a18 <time+0x6>
    869a:	98 17       	cp	r25, r24
    869c:	31 f1       	breq	.+76     	; 0x86ea <time_printdisp__write_update+0x1b4>
    869e:	80 91 18 0a 	lds	r24, 0x0A18	; 0x800a18 <time+0x6>
    86a2:	80 93 1a 0a 	sts	0x0A1A, r24	; 0x800a1a <time+0x8>
    86a6:	0e 94 b4 41 	call	0x8368	; 0x8368 <time_printdisp__write_min_M>
    86aa:	1f c0       	rjmp	.+62     	; 0x86ea <time_printdisp__write_update+0x1b4>
    86ac:	c3 30       	cpi	r28, 0x03	; 3
    86ae:	c9 f4       	brne	.+50     	; 0x86e2 <time_printdisp__write_update+0x1ac>
    86b0:	90 91 14 0a 	lds	r25, 0x0A14	; 0x800a14 <time+0x2>
    86b4:	80 91 12 0a 	lds	r24, 0x0A12	; 0x800a12 <time>
    86b8:	98 17       	cp	r25, r24
    86ba:	31 f0       	breq	.+12     	; 0x86c8 <time_printdisp__write_update+0x192>
    86bc:	80 91 12 0a 	lds	r24, 0x0A12	; 0x800a12 <time>
    86c0:	80 93 14 0a 	sts	0x0A14, r24	; 0x800a14 <time+0x2>
    86c4:	0e 94 7f 42 	call	0x84fe	; 0x84fe <time_printdisp__write_hour_H10>
    86c8:	90 91 15 0a 	lds	r25, 0x0A15	; 0x800a15 <time+0x3>
    86cc:	80 91 13 0a 	lds	r24, 0x0A13	; 0x800a13 <time+0x1>
    86d0:	98 17       	cp	r25, r24
    86d2:	59 f0       	breq	.+22     	; 0x86ea <time_printdisp__write_update+0x1b4>
    86d4:	80 91 13 0a 	lds	r24, 0x0A13	; 0x800a13 <time+0x1>
    86d8:	80 93 15 0a 	sts	0x0A15, r24	; 0x800a15 <time+0x3>
    86dc:	0e 94 84 41 	call	0x8308	; 0x8308 <time_printdisp__write_hour_H>
    86e0:	04 c0       	rjmp	.+8      	; 0x86ea <time_printdisp__write_update+0x1b4>
    86e2:	c4 30       	cpi	r28, 0x04	; 4
    86e4:	11 f4       	brne	.+4      	; 0x86ea <time_printdisp__write_update+0x1b4>
    86e6:	0e 94 cc 41 	call	0x8398	; 0x8398 <time_printdisp__write_ampm_AP>
    86ea:	4f ef       	ldi	r20, 0xFF	; 255
    86ec:	64 e4       	ldi	r22, 0x44	; 68
    86ee:	75 e2       	ldi	r23, 0x25	; 37
    86f0:	86 e0       	ldi	r24, 0x06	; 6
    86f2:	90 e1       	ldi	r25, 0x10	; 16
    86f4:	cf 91       	pop	r28
    86f6:	0f 91       	pop	r16
    86f8:	0c 94 47 25 	jmp	0x4a8e	; 0x4a8e <ks0108SelectFont>

000086fc <date_printdisp__write_date_D10>:
    86fc:	0f 93       	push	r16
    86fe:	60 91 4c 0a 	lds	r22, 0x0A4C	; 0x800a4c <date_printdisp+0x5>
    8702:	80 91 4a 0a 	lds	r24, 0x0A4A	; 0x800a4a <date_printdisp+0x3>
    8706:	00 e0       	ldi	r16, 0x00	; 0
    8708:	2d e0       	ldi	r18, 0x0D	; 13
    870a:	45 e0       	ldi	r20, 0x05	; 5
    870c:	0e 94 61 28 	call	0x50c2	; 0x50c2 <ks0108FillRect>
    8710:	80 91 38 0a 	lds	r24, 0x0A38	; 0x800a38 <date+0x1>
    8714:	88 23       	and	r24, r24
    8716:	61 f0       	breq	.+24     	; 0x8730 <date_printdisp__write_date_D10+0x34>
    8718:	60 91 4c 0a 	lds	r22, 0x0A4C	; 0x800a4c <date_printdisp+0x5>
    871c:	80 91 4a 0a 	lds	r24, 0x0A4A	; 0x800a4a <date_printdisp+0x3>
    8720:	0e 94 da 25 	call	0x4bb4	; 0x4bb4 <ks0108GotoXY>
    8724:	80 91 38 0a 	lds	r24, 0x0A38	; 0x800a38 <date+0x1>
    8728:	80 5d       	subi	r24, 0xD0	; 208
    872a:	0f 91       	pop	r16
    872c:	0c 94 ea 2a 	jmp	0x55d4	; 0x55d4 <ks0108PutChar>
    8730:	0f 91       	pop	r16
    8732:	08 95       	ret

00008734 <date_printdisp__write_update_date>:
    8734:	90 91 3a 0a 	lds	r25, 0x0A3A	; 0x800a3a <date+0x3>
    8738:	80 91 38 0a 	lds	r24, 0x0A38	; 0x800a38 <date+0x1>
    873c:	98 17       	cp	r25, r24
    873e:	31 f0       	breq	.+12     	; 0x874c <date_printdisp__write_update_date+0x18>
    8740:	80 91 38 0a 	lds	r24, 0x0A38	; 0x800a38 <date+0x1>
    8744:	80 93 3a 0a 	sts	0x0A3A, r24	; 0x800a3a <date+0x3>
    8748:	0e 94 7e 43 	call	0x86fc	; 0x86fc <date_printdisp__write_date_D10>
    874c:	90 91 3b 0a 	lds	r25, 0x0A3B	; 0x800a3b <date+0x4>
    8750:	80 91 39 0a 	lds	r24, 0x0A39	; 0x800a39 <date+0x2>
    8754:	98 17       	cp	r25, r24
    8756:	31 f0       	breq	.+12     	; 0x8764 <date_printdisp__write_update_date+0x30>
    8758:	80 91 39 0a 	lds	r24, 0x0A39	; 0x800a39 <date+0x2>
    875c:	80 93 3b 0a 	sts	0x0A3B, r24	; 0x800a3b <date+0x4>
    8760:	0c 94 e6 41 	jmp	0x83cc	; 0x83cc <date_printdisp__write_date_D>
    8764:	08 95       	ret

00008766 <date_printdisp__write_month_M10>:
    8766:	0f 93       	push	r16
    8768:	60 91 52 0a 	lds	r22, 0x0A52	; 0x800a52 <date_printdisp+0xb>
    876c:	80 91 50 0a 	lds	r24, 0x0A50	; 0x800a50 <date_printdisp+0x9>
    8770:	00 e0       	ldi	r16, 0x00	; 0
    8772:	2d e0       	ldi	r18, 0x0D	; 13
    8774:	45 e0       	ldi	r20, 0x05	; 5
    8776:	0e 94 61 28 	call	0x50c2	; 0x50c2 <ks0108FillRect>
    877a:	80 91 41 0a 	lds	r24, 0x0A41	; 0x800a41 <date+0xa>
    877e:	8a 30       	cpi	r24, 0x0A	; 10
    8780:	60 f0       	brcs	.+24     	; 0x879a <date_printdisp__write_month_M10+0x34>
    8782:	60 91 52 0a 	lds	r22, 0x0A52	; 0x800a52 <date_printdisp+0xb>
    8786:	80 91 50 0a 	lds	r24, 0x0A50	; 0x800a50 <date_printdisp+0x9>
    878a:	0e 94 da 25 	call	0x4bb4	; 0x4bb4 <ks0108GotoXY>
    878e:	80 91 3d 0a 	lds	r24, 0x0A3D	; 0x800a3d <date+0x6>
    8792:	80 5d       	subi	r24, 0xD0	; 208
    8794:	0f 91       	pop	r16
    8796:	0c 94 ea 2a 	jmp	0x55d4	; 0x55d4 <ks0108PutChar>
    879a:	0f 91       	pop	r16
    879c:	08 95       	ret

0000879e <date_printdisp__write_update_year>:
    879e:	90 91 44 0a 	lds	r25, 0x0A44	; 0x800a44 <date+0xd>
    87a2:	80 91 42 0a 	lds	r24, 0x0A42	; 0x800a42 <date+0xb>
    87a6:	98 17       	cp	r25, r24
    87a8:	31 f0       	breq	.+12     	; 0x87b6 <date_printdisp__write_update_year+0x18>
    87aa:	80 91 42 0a 	lds	r24, 0x0A42	; 0x800a42 <date+0xb>
    87ae:	80 93 44 0a 	sts	0x0A44, r24	; 0x800a44 <date+0xd>
    87b2:	0e 94 16 42 	call	0x842c	; 0x842c <date_printdisp__write_year_Y10>
    87b6:	90 91 45 0a 	lds	r25, 0x0A45	; 0x800a45 <date+0xe>
    87ba:	80 91 43 0a 	lds	r24, 0x0A43	; 0x800a43 <date+0xc>
    87be:	98 17       	cp	r25, r24
    87c0:	31 f0       	breq	.+12     	; 0x87ce <date_printdisp__write_update_year+0x30>
    87c2:	80 91 43 0a 	lds	r24, 0x0A43	; 0x800a43 <date+0xc>
    87c6:	80 93 45 0a 	sts	0x0A45, r24	; 0x800a45 <date+0xe>
    87ca:	0c 94 2e 42 	jmp	0x845c	; 0x845c <date_printdisp__write_year_Y>
    87ce:	08 95       	ret

000087d0 <time_driver__d>:
    87d0:	23 e0       	ldi	r18, 0x03	; 3
    87d2:	48 e3       	ldi	r20, 0x38	; 56
    87d4:	58 e0       	ldi	r21, 0x08	; 8
    87d6:	60 e0       	ldi	r22, 0x00	; 0
    87d8:	80 ed       	ldi	r24, 0xD0	; 208
    87da:	0e 94 c8 1f 	call	0x3f90	; 0x3f90 <I2Ccfx_ReadRegistersAtAddress>
    87de:	a8 e3       	ldi	r26, 0x38	; 56
    87e0:	b8 e0       	ldi	r27, 0x08	; 8
    87e2:	8c 91       	ld	r24, X
    87e4:	82 95       	swap	r24
    87e6:	8f 70       	andi	r24, 0x0F	; 15
    87e8:	e2 e1       	ldi	r30, 0x12	; 18
    87ea:	fa e0       	ldi	r31, 0x0A	; 10
    87ec:	82 87       	std	Z+10, r24	; 0x0a
    87ee:	8c 91       	ld	r24, X
    87f0:	8f 70       	andi	r24, 0x0F	; 15
    87f2:	83 87       	std	Z+11, r24	; 0x0b
    87f4:	92 85       	ldd	r25, Z+10	; 0x0a
    87f6:	83 85       	ldd	r24, Z+11	; 0x0b
    87f8:	2a e0       	ldi	r18, 0x0A	; 10
    87fa:	92 9f       	mul	r25, r18
    87fc:	80 0d       	add	r24, r0
    87fe:	11 24       	eor	r1, r1
    8800:	86 87       	std	Z+14, r24	; 0x0e
    8802:	11 96       	adiw	r26, 0x01	; 1
    8804:	8c 91       	ld	r24, X
    8806:	11 97       	sbiw	r26, 0x01	; 1
    8808:	82 95       	swap	r24
    880a:	8f 70       	andi	r24, 0x0F	; 15
    880c:	85 83       	std	Z+5, r24	; 0x05
    880e:	11 96       	adiw	r26, 0x01	; 1
    8810:	8c 91       	ld	r24, X
    8812:	11 97       	sbiw	r26, 0x01	; 1
    8814:	8f 70       	andi	r24, 0x0F	; 15
    8816:	86 83       	std	Z+6, r24	; 0x06
    8818:	95 81       	ldd	r25, Z+5	; 0x05
    881a:	86 81       	ldd	r24, Z+6	; 0x06
    881c:	2a e0       	ldi	r18, 0x0A	; 10
    881e:	92 9f       	mul	r25, r18
    8820:	80 0d       	add	r24, r0
    8822:	11 24       	eor	r1, r1
    8824:	81 87       	std	Z+9, r24	; 0x09
    8826:	12 96       	adiw	r26, 0x02	; 2
    8828:	8c 91       	ld	r24, X
    882a:	12 97       	sbiw	r26, 0x02	; 2
    882c:	82 95       	swap	r24
    882e:	81 70       	andi	r24, 0x01	; 1
    8830:	80 83       	st	Z, r24
    8832:	12 96       	adiw	r26, 0x02	; 2
    8834:	8c 91       	ld	r24, X
    8836:	12 97       	sbiw	r26, 0x02	; 2
    8838:	8f 70       	andi	r24, 0x0F	; 15
    883a:	81 83       	std	Z+1, r24	; 0x01
    883c:	90 81       	ld	r25, Z
    883e:	81 81       	ldd	r24, Z+1	; 0x01
    8840:	2a e0       	ldi	r18, 0x0A	; 10
    8842:	92 9f       	mul	r25, r18
    8844:	80 0d       	add	r24, r0
    8846:	11 24       	eor	r1, r1
    8848:	84 83       	std	Z+4, r24	; 0x04
    884a:	12 96       	adiw	r26, 0x02	; 2
    884c:	8c 91       	ld	r24, X
    884e:	85 fb       	bst	r24, 5
    8850:	88 27       	eor	r24, r24
    8852:	80 f9       	bld	r24, 0
    8854:	e1 e2       	ldi	r30, 0x21	; 33
    8856:	fa e0       	ldi	r31, 0x0A	; 10
    8858:	90 81       	ld	r25, Z
    885a:	80 fb       	bst	r24, 0
    885c:	90 f9       	bld	r25, 0
    885e:	90 83       	st	Z, r25
    8860:	08 95       	ret

00008862 <time_printdisp__set_xy>:
    8862:	82 e0       	ldi	r24, 0x02	; 2
    8864:	80 93 22 0a 	sts	0x0A22, r24	; 0x800a22 <time_printdisp>
    8868:	8a e0       	ldi	r24, 0x0A	; 10
    886a:	80 93 23 0a 	sts	0x0A23, r24	; 0x800a23 <time_printdisp+0x1>
    886e:	8e e1       	ldi	r24, 0x1E	; 30
    8870:	80 93 24 0a 	sts	0x0A24, r24	; 0x800a24 <time_printdisp+0x2>
    8874:	92 e1       	ldi	r25, 0x12	; 18
    8876:	90 93 26 0a 	sts	0x0A26, r25	; 0x800a26 <time_printdisp+0x4>
    887a:	80 93 27 0a 	sts	0x0A27, r24	; 0x800a27 <time_printdisp+0x5>
    887e:	95 e1       	ldi	r25, 0x15	; 21
    8880:	90 93 28 0a 	sts	0x0A28, r25	; 0x800a28 <time_printdisp+0x6>
    8884:	9d e1       	ldi	r25, 0x1D	; 29
    8886:	90 93 29 0a 	sts	0x0A29, r25	; 0x800a29 <time_printdisp+0x7>
    888a:	80 93 2a 0a 	sts	0x0A2A, r24	; 0x800a2a <time_printdisp+0x8>
    888e:	90 91 36 0a 	lds	r25, 0x0A36	; 0x800a36 <time_printdisp+0x14>
    8892:	90 ff       	sbrs	r25, 0
    8894:	12 c0       	rjmp	.+36     	; 0x88ba <time_printdisp__set_xy+0x58>
    8896:	95 e2       	ldi	r25, 0x25	; 37
    8898:	90 93 2c 0a 	sts	0x0A2C, r25	; 0x800a2c <time_printdisp+0xa>
    889c:	80 93 2d 0a 	sts	0x0A2D, r24	; 0x800a2d <time_printdisp+0xb>
    88a0:	98 e2       	ldi	r25, 0x28	; 40
    88a2:	90 93 2e 0a 	sts	0x0A2E, r25	; 0x800a2e <time_printdisp+0xc>
    88a6:	90 e3       	ldi	r25, 0x30	; 48
    88a8:	90 93 2f 0a 	sts	0x0A2F, r25	; 0x800a2f <time_printdisp+0xd>
    88ac:	80 93 30 0a 	sts	0x0A30, r24	; 0x800a30 <time_printdisp+0xe>
    88b0:	98 e3       	ldi	r25, 0x38	; 56
    88b2:	90 93 32 0a 	sts	0x0A32, r25	; 0x800a32 <time_printdisp+0x10>
    88b6:	90 e4       	ldi	r25, 0x40	; 64
    88b8:	04 c0       	rjmp	.+8      	; 0x88c2 <time_printdisp__set_xy+0x60>
    88ba:	97 e2       	ldi	r25, 0x27	; 39
    88bc:	90 93 32 0a 	sts	0x0A32, r25	; 0x800a32 <time_printdisp+0x10>
    88c0:	9f e2       	ldi	r25, 0x2F	; 47
    88c2:	90 93 33 0a 	sts	0x0A33, r25	; 0x800a33 <time_printdisp+0x11>
    88c6:	80 93 34 0a 	sts	0x0A34, r24	; 0x800a34 <time_printdisp+0x12>
    88ca:	08 95       	ret

000088cc <time_printdisp__d>:
    88cc:	80 e0       	ldi	r24, 0x00	; 0
    88ce:	0e 94 9b 42 	call	0x8536	; 0x8536 <time_printdisp__write_update>
    88d2:	90 91 2b 0a 	lds	r25, 0x0A2B	; 0x800a2b <time_printdisp+0x9>
    88d6:	80 91 1b 0a 	lds	r24, 0x0A1B	; 0x800a1b <time+0x9>
    88da:	98 17       	cp	r25, r24
    88dc:	39 f0       	breq	.+14     	; 0x88ec <time_printdisp__d+0x20>
    88de:	80 91 1b 0a 	lds	r24, 0x0A1B	; 0x800a1b <time+0x9>
    88e2:	80 93 2b 0a 	sts	0x0A2B, r24	; 0x800a2b <time_printdisp+0x9>
    88e6:	82 e0       	ldi	r24, 0x02	; 2
    88e8:	0e 94 9b 42 	call	0x8536	; 0x8536 <time_printdisp__write_update>
    88ec:	90 91 25 0a 	lds	r25, 0x0A25	; 0x800a25 <time_printdisp+0x3>
    88f0:	80 91 16 0a 	lds	r24, 0x0A16	; 0x800a16 <time+0x4>
    88f4:	98 17       	cp	r25, r24
    88f6:	39 f0       	breq	.+14     	; 0x8906 <time_printdisp__d+0x3a>
    88f8:	80 91 16 0a 	lds	r24, 0x0A16	; 0x800a16 <time+0x4>
    88fc:	80 93 25 0a 	sts	0x0A25, r24	; 0x800a25 <time_printdisp+0x3>
    8900:	83 e0       	ldi	r24, 0x03	; 3
    8902:	0e 94 9b 42 	call	0x8536	; 0x8536 <time_printdisp__write_update>
    8906:	90 91 21 0a 	lds	r25, 0x0A21	; 0x800a21 <time+0xf>
    890a:	96 95       	lsr	r25
    890c:	91 70       	andi	r25, 0x01	; 1
    890e:	80 91 21 0a 	lds	r24, 0x0A21	; 0x800a21 <time+0xf>
    8912:	81 70       	andi	r24, 0x01	; 1
    8914:	98 17       	cp	r25, r24
    8916:	59 f0       	breq	.+22     	; 0x892e <time_printdisp__d+0x62>
    8918:	90 91 21 0a 	lds	r25, 0x0A21	; 0x800a21 <time+0xf>
    891c:	80 91 21 0a 	lds	r24, 0x0A21	; 0x800a21 <time+0xf>
    8920:	90 fb       	bst	r25, 0
    8922:	81 f9       	bld	r24, 1
    8924:	80 93 21 0a 	sts	0x0A21, r24	; 0x800a21 <time+0xf>
    8928:	84 e0       	ldi	r24, 0x04	; 4
    892a:	0c 94 9b 42 	jmp	0x8536	; 0x8536 <time_printdisp__write_update>
    892e:	08 95       	ret

00008930 <date_driver__d>:
    8930:	24 e0       	ldi	r18, 0x04	; 4
    8932:	48 e3       	ldi	r20, 0x38	; 56
    8934:	58 e0       	ldi	r21, 0x08	; 8
    8936:	63 e0       	ldi	r22, 0x03	; 3
    8938:	80 ed       	ldi	r24, 0xD0	; 208
    893a:	0e 94 c8 1f 	call	0x3f90	; 0x3f90 <I2Ccfx_ReadRegistersAtAddress>
    893e:	a8 e3       	ldi	r26, 0x38	; 56
    8940:	b8 e0       	ldi	r27, 0x08	; 8
    8942:	8c 91       	ld	r24, X
    8944:	e7 e3       	ldi	r30, 0x37	; 55
    8946:	fa e0       	ldi	r31, 0x0A	; 10
    8948:	80 83       	st	Z, r24
    894a:	11 96       	adiw	r26, 0x01	; 1
    894c:	8c 91       	ld	r24, X
    894e:	11 97       	sbiw	r26, 0x01	; 1
    8950:	82 95       	swap	r24
    8952:	8f 70       	andi	r24, 0x0F	; 15
    8954:	81 83       	std	Z+1, r24	; 0x01
    8956:	11 96       	adiw	r26, 0x01	; 1
    8958:	8c 91       	ld	r24, X
    895a:	11 97       	sbiw	r26, 0x01	; 1
    895c:	8f 70       	andi	r24, 0x0F	; 15
    895e:	82 83       	std	Z+2, r24	; 0x02
    8960:	92 81       	ldd	r25, Z+2	; 0x02
    8962:	82 81       	ldd	r24, Z+2	; 0x02
    8964:	2a e0       	ldi	r18, 0x0A	; 10
    8966:	92 9f       	mul	r25, r18
    8968:	80 0d       	add	r24, r0
    896a:	11 24       	eor	r1, r1
    896c:	85 83       	std	Z+5, r24	; 0x05
    896e:	12 96       	adiw	r26, 0x02	; 2
    8970:	8c 91       	ld	r24, X
    8972:	12 97       	sbiw	r26, 0x02	; 2
    8974:	82 95       	swap	r24
    8976:	81 70       	andi	r24, 0x01	; 1
    8978:	86 83       	std	Z+6, r24	; 0x06
    897a:	12 96       	adiw	r26, 0x02	; 2
    897c:	8c 91       	ld	r24, X
    897e:	12 97       	sbiw	r26, 0x02	; 2
    8980:	8f 70       	andi	r24, 0x0F	; 15
    8982:	87 83       	std	Z+7, r24	; 0x07
    8984:	96 81       	ldd	r25, Z+6	; 0x06
    8986:	87 81       	ldd	r24, Z+7	; 0x07
    8988:	2a e0       	ldi	r18, 0x0A	; 10
    898a:	92 9f       	mul	r25, r18
    898c:	80 0d       	add	r24, r0
    898e:	11 24       	eor	r1, r1
    8990:	82 87       	std	Z+10, r24	; 0x0a
    8992:	13 96       	adiw	r26, 0x03	; 3
    8994:	8c 91       	ld	r24, X
    8996:	13 97       	sbiw	r26, 0x03	; 3
    8998:	82 95       	swap	r24
    899a:	81 70       	andi	r24, 0x01	; 1
    899c:	83 87       	std	Z+11, r24	; 0x0b
    899e:	13 96       	adiw	r26, 0x03	; 3
    89a0:	8c 91       	ld	r24, X
    89a2:	8f 70       	andi	r24, 0x0F	; 15
    89a4:	84 87       	std	Z+12, r24	; 0x0c
    89a6:	94 85       	ldd	r25, Z+12	; 0x0c
    89a8:	84 85       	ldd	r24, Z+12	; 0x0c
    89aa:	2a e0       	ldi	r18, 0x0A	; 10
    89ac:	92 9f       	mul	r25, r18
    89ae:	80 0d       	add	r24, r0
    89b0:	11 24       	eor	r1, r1
    89b2:	87 87       	std	Z+15, r24	; 0x0f
    89b4:	08 95       	ret

000089b6 <date_printdisp__set_xy>:
    89b6:	80 91 5c 0a 	lds	r24, 0x0A5C	; 0x800a5c <date_printdisp+0x15>
    89ba:	81 30       	cpi	r24, 0x01	; 1
    89bc:	c1 f4       	brne	.+48     	; 0x89ee <date_printdisp__set_xy+0x38>
    89be:	82 e0       	ldi	r24, 0x02	; 2
    89c0:	80 93 47 0a 	sts	0x0A47, r24	; 0x800a47 <date_printdisp>
    89c4:	8f e2       	ldi	r24, 0x2F	; 47
    89c6:	80 93 48 0a 	sts	0x0A48, r24	; 0x800a48 <date_printdisp+0x1>
    89ca:	9b e1       	ldi	r25, 0x1B	; 27
    89cc:	90 93 4a 0a 	sts	0x0A4A, r25	; 0x800a4a <date_printdisp+0x3>
    89d0:	91 e2       	ldi	r25, 0x21	; 33
    89d2:	90 93 4b 0a 	sts	0x0A4B, r25	; 0x800a4b <date_printdisp+0x4>
    89d6:	80 93 4c 0a 	sts	0x0A4C, r24	; 0x800a4c <date_printdisp+0x5>
    89da:	99 e2       	ldi	r25, 0x29	; 41
    89dc:	90 93 53 0a 	sts	0x0A53, r25	; 0x800a53 <date_printdisp+0xc>
    89e0:	80 93 54 0a 	sts	0x0A54, r24	; 0x800a54 <date_printdisp+0xd>
    89e4:	94 e4       	ldi	r25, 0x44	; 68
    89e6:	90 93 58 0a 	sts	0x0A58, r25	; 0x800a58 <date_printdisp+0x11>
    89ea:	9a e4       	ldi	r25, 0x4A	; 74
    89ec:	3b c0       	rjmp	.+118    	; 0x8a64 <date_printdisp__set_xy+0xae>
    89ee:	80 91 5c 0a 	lds	r24, 0x0A5C	; 0x800a5c <date_printdisp+0x15>
    89f2:	81 11       	cpse	r24, r1
    89f4:	14 c0       	rjmp	.+40     	; 0x8a1e <date_printdisp__set_xy+0x68>
    89f6:	82 e0       	ldi	r24, 0x02	; 2
    89f8:	80 93 47 0a 	sts	0x0A47, r24	; 0x800a47 <date_printdisp>
    89fc:	8f e2       	ldi	r24, 0x2F	; 47
    89fe:	80 93 48 0a 	sts	0x0A48, r24	; 0x800a48 <date_printdisp+0x1>
    8a02:	9b e1       	ldi	r25, 0x1B	; 27
    8a04:	90 93 4a 0a 	sts	0x0A4A, r25	; 0x800a4a <date_printdisp+0x3>
    8a08:	91 e2       	ldi	r25, 0x21	; 33
    8a0a:	90 93 4b 0a 	sts	0x0A4B, r25	; 0x800a4b <date_printdisp+0x4>
    8a0e:	80 93 4c 0a 	sts	0x0A4C, r24	; 0x800a4c <date_printdisp+0x5>
    8a12:	99 e2       	ldi	r25, 0x29	; 41
    8a14:	90 93 53 0a 	sts	0x0A53, r25	; 0x800a53 <date_printdisp+0xc>
    8a18:	80 93 54 0a 	sts	0x0A54, r24	; 0x800a54 <date_printdisp+0xd>
    8a1c:	08 95       	ret
    8a1e:	80 91 5c 0a 	lds	r24, 0x0A5C	; 0x800a5c <date_printdisp+0x15>
    8a22:	85 30       	cpi	r24, 0x05	; 5
    8a24:	19 f5       	brne	.+70     	; 0x8a6c <date_printdisp__set_xy+0xb6>
    8a26:	82 e0       	ldi	r24, 0x02	; 2
    8a28:	80 93 4a 0a 	sts	0x0A4A, r24	; 0x800a4a <date_printdisp+0x3>
    8a2c:	88 e0       	ldi	r24, 0x08	; 8
    8a2e:	80 93 4b 0a 	sts	0x0A4B, r24	; 0x800a4b <date_printdisp+0x4>
    8a32:	8f e2       	ldi	r24, 0x2F	; 47
    8a34:	80 93 4c 0a 	sts	0x0A4C, r24	; 0x800a4c <date_printdisp+0x5>
    8a38:	9f e0       	ldi	r25, 0x0F	; 15
    8a3a:	90 93 4e 0a 	sts	0x0A4E, r25	; 0x800a4e <date_printdisp+0x7>
    8a3e:	80 93 4f 0a 	sts	0x0A4F, r24	; 0x800a4f <date_printdisp+0x8>
    8a42:	93 e1       	ldi	r25, 0x13	; 19
    8a44:	90 93 50 0a 	sts	0x0A50, r25	; 0x800a50 <date_printdisp+0x9>
    8a48:	99 e1       	ldi	r25, 0x19	; 25
    8a4a:	90 93 51 0a 	sts	0x0A51, r25	; 0x800a51 <date_printdisp+0xa>
    8a4e:	80 93 52 0a 	sts	0x0A52, r24	; 0x800a52 <date_printdisp+0xb>
    8a52:	90 e2       	ldi	r25, 0x20	; 32
    8a54:	90 93 56 0a 	sts	0x0A56, r25	; 0x800a56 <date_printdisp+0xf>
    8a58:	80 93 57 0a 	sts	0x0A57, r24	; 0x800a57 <date_printdisp+0x10>
    8a5c:	95 e2       	ldi	r25, 0x25	; 37
    8a5e:	90 93 58 0a 	sts	0x0A58, r25	; 0x800a58 <date_printdisp+0x11>
    8a62:	9b e2       	ldi	r25, 0x2B	; 43
    8a64:	90 93 59 0a 	sts	0x0A59, r25	; 0x800a59 <date_printdisp+0x12>
    8a68:	80 93 5a 0a 	sts	0x0A5A, r24	; 0x800a5a <date_printdisp+0x13>
    8a6c:	08 95       	ret

00008a6e <date_printdisp__d>:
    8a6e:	4f ef       	ldi	r20, 0xFF	; 255
    8a70:	64 e4       	ldi	r22, 0x44	; 68
    8a72:	75 e2       	ldi	r23, 0x25	; 37
    8a74:	86 e0       	ldi	r24, 0x06	; 6
    8a76:	90 e1       	ldi	r25, 0x10	; 16
    8a78:	0e 94 47 25 	call	0x4a8e	; 0x4a8e <ks0108SelectFont>
    8a7c:	80 91 5d 0a 	lds	r24, 0x0A5D	; 0x800a5d <date_printdisp+0x16>
    8a80:	81 30       	cpi	r24, 0x01	; 1
    8a82:	09 f0       	breq	.+2      	; 0x8a86 <date_printdisp__d+0x18>
    8a84:	88 c0       	rjmp	.+272    	; 0x8b96 <date_printdisp__d+0x128>
    8a86:	80 91 37 0a 	lds	r24, 0x0A37	; 0x800a37 <date>
    8a8a:	80 93 49 0a 	sts	0x0A49, r24	; 0x800a49 <date_printdisp+0x2>
    8a8e:	80 91 3c 0a 	lds	r24, 0x0A3C	; 0x800a3c <date+0x5>
    8a92:	80 93 4d 0a 	sts	0x0A4D, r24	; 0x800a4d <date_printdisp+0x6>
    8a96:	80 91 41 0a 	lds	r24, 0x0A41	; 0x800a41 <date+0xa>
    8a9a:	80 93 55 0a 	sts	0x0A55, r24	; 0x800a55 <date_printdisp+0xe>
    8a9e:	80 91 46 0a 	lds	r24, 0x0A46	; 0x800a46 <date+0xf>
    8aa2:	80 93 5b 0a 	sts	0x0A5B, r24	; 0x800a5b <date_printdisp+0x14>
    8aa6:	80 91 5c 0a 	lds	r24, 0x0A5C	; 0x800a5c <date_printdisp+0x15>
    8aaa:	81 30       	cpi	r24, 0x01	; 1
    8aac:	49 f4       	brne	.+18     	; 0x8ac0 <date_printdisp__d+0x52>
    8aae:	80 91 38 0a 	lds	r24, 0x0A38	; 0x800a38 <date+0x1>
    8ab2:	80 93 3a 0a 	sts	0x0A3A, r24	; 0x800a3a <date+0x3>
    8ab6:	80 91 39 0a 	lds	r24, 0x0A39	; 0x800a39 <date+0x2>
    8aba:	80 93 3b 0a 	sts	0x0A3B, r24	; 0x800a3b <date+0x4>
    8abe:	21 c0       	rjmp	.+66     	; 0x8b02 <date_printdisp__d+0x94>
    8ac0:	80 91 5c 0a 	lds	r24, 0x0A5C	; 0x800a5c <date_printdisp+0x15>
    8ac4:	81 11       	cpse	r24, r1
    8ac6:	09 c0       	rjmp	.+18     	; 0x8ada <date_printdisp__d+0x6c>
    8ac8:	80 91 38 0a 	lds	r24, 0x0A38	; 0x800a38 <date+0x1>
    8acc:	80 93 3a 0a 	sts	0x0A3A, r24	; 0x800a3a <date+0x3>
    8ad0:	80 91 39 0a 	lds	r24, 0x0A39	; 0x800a39 <date+0x2>
    8ad4:	80 93 3b 0a 	sts	0x0A3B, r24	; 0x800a3b <date+0x4>
    8ad8:	1c c0       	rjmp	.+56     	; 0x8b12 <date_printdisp__d+0xa4>
    8ada:	80 91 5c 0a 	lds	r24, 0x0A5C	; 0x800a5c <date_printdisp+0x15>
    8ade:	85 30       	cpi	r24, 0x05	; 5
    8ae0:	c1 f4       	brne	.+48     	; 0x8b12 <date_printdisp__d+0xa4>
    8ae2:	80 91 38 0a 	lds	r24, 0x0A38	; 0x800a38 <date+0x1>
    8ae6:	80 93 3a 0a 	sts	0x0A3A, r24	; 0x800a3a <date+0x3>
    8aea:	80 91 39 0a 	lds	r24, 0x0A39	; 0x800a39 <date+0x2>
    8aee:	80 93 3b 0a 	sts	0x0A3B, r24	; 0x800a3b <date+0x4>
    8af2:	80 91 3d 0a 	lds	r24, 0x0A3D	; 0x800a3d <date+0x6>
    8af6:	80 93 3f 0a 	sts	0x0A3F, r24	; 0x800a3f <date+0x8>
    8afa:	80 91 3e 0a 	lds	r24, 0x0A3E	; 0x800a3e <date+0x7>
    8afe:	80 93 40 0a 	sts	0x0A40, r24	; 0x800a40 <date+0x9>
    8b02:	80 91 42 0a 	lds	r24, 0x0A42	; 0x800a42 <date+0xb>
    8b06:	80 93 44 0a 	sts	0x0A44, r24	; 0x800a44 <date+0xd>
    8b0a:	80 91 43 0a 	lds	r24, 0x0A43	; 0x800a43 <date+0xc>
    8b0e:	80 93 45 0a 	sts	0x0A45, r24	; 0x800a45 <date+0xe>
    8b12:	80 91 5c 0a 	lds	r24, 0x0A5C	; 0x800a5c <date_printdisp+0x15>
    8b16:	81 30       	cpi	r24, 0x01	; 1
    8b18:	49 f4       	brne	.+18     	; 0x8b2c <date_printdisp__d+0xbe>
    8b1a:	0e 94 46 42 	call	0x848c	; 0x848c <date_printdisp__write_string_day>
    8b1e:	0e 94 7e 43 	call	0x86fc	; 0x86fc <date_printdisp__write_date_D10>
    8b22:	0e 94 e6 41 	call	0x83cc	; 0x83cc <date_printdisp__write_date_D>
    8b26:	0e 94 62 42 	call	0x84c4	; 0x84c4 <date_printdisp__write_string_month>
    8b2a:	2b c0       	rjmp	.+86     	; 0x8b82 <date_printdisp__d+0x114>
    8b2c:	80 91 5c 0a 	lds	r24, 0x0A5C	; 0x800a5c <date_printdisp+0x15>
    8b30:	81 11       	cpse	r24, r1
    8b32:	09 c0       	rjmp	.+18     	; 0x8b46 <date_printdisp__d+0xd8>
    8b34:	0e 94 46 42 	call	0x848c	; 0x848c <date_printdisp__write_string_day>
    8b38:	0e 94 7e 43 	call	0x86fc	; 0x86fc <date_printdisp__write_date_D10>
    8b3c:	0e 94 e6 41 	call	0x83cc	; 0x83cc <date_printdisp__write_date_D>
    8b40:	0e 94 62 42 	call	0x84c4	; 0x84c4 <date_printdisp__write_string_month>
    8b44:	22 c0       	rjmp	.+68     	; 0x8b8a <date_printdisp__d+0x11c>
    8b46:	80 91 5c 0a 	lds	r24, 0x0A5C	; 0x800a5c <date_printdisp+0x15>
    8b4a:	85 30       	cpi	r24, 0x05	; 5
    8b4c:	f1 f4       	brne	.+60     	; 0x8b8a <date_printdisp__d+0x11c>
    8b4e:	0e 94 7e 43 	call	0x86fc	; 0x86fc <date_printdisp__write_date_D10>
    8b52:	0e 94 e6 41 	call	0x83cc	; 0x83cc <date_printdisp__write_date_D>
    8b56:	60 91 4f 0a 	lds	r22, 0x0A4F	; 0x800a4f <date_printdisp+0x8>
    8b5a:	80 91 4e 0a 	lds	r24, 0x0A4E	; 0x800a4e <date_printdisp+0x7>
    8b5e:	0e 94 da 25 	call	0x4bb4	; 0x4bb4 <ks0108GotoXY>
    8b62:	8f e2       	ldi	r24, 0x2F	; 47
    8b64:	0e 94 ea 2a 	call	0x55d4	; 0x55d4 <ks0108PutChar>
    8b68:	0e 94 b3 43 	call	0x8766	; 0x8766 <date_printdisp__write_month_M10>
    8b6c:	0e 94 fe 41 	call	0x83fc	; 0x83fc <date_printdisp__write_month_M>
    8b70:	60 91 57 0a 	lds	r22, 0x0A57	; 0x800a57 <date_printdisp+0x10>
    8b74:	80 91 56 0a 	lds	r24, 0x0A56	; 0x800a56 <date_printdisp+0xf>
    8b78:	0e 94 da 25 	call	0x4bb4	; 0x4bb4 <ks0108GotoXY>
    8b7c:	8f e2       	ldi	r24, 0x2F	; 47
    8b7e:	0e 94 ea 2a 	call	0x55d4	; 0x55d4 <ks0108PutChar>
    8b82:	0e 94 16 42 	call	0x842c	; 0x842c <date_printdisp__write_year_Y10>
    8b86:	0e 94 2e 42 	call	0x845c	; 0x845c <date_printdisp__write_year_Y>
    8b8a:	80 91 5d 0a 	lds	r24, 0x0A5D	; 0x800a5d <date_printdisp+0x16>
    8b8e:	8f 5f       	subi	r24, 0xFF	; 255
    8b90:	80 93 5d 0a 	sts	0x0A5D, r24	; 0x800a5d <date_printdisp+0x16>
    8b94:	08 95       	ret
    8b96:	80 91 5d 0a 	lds	r24, 0x0A5D	; 0x800a5d <date_printdisp+0x16>
    8b9a:	82 30       	cpi	r24, 0x02	; 2
    8b9c:	09 f0       	breq	.+2      	; 0x8ba0 <date_printdisp__d+0x132>
    8b9e:	91 c0       	rjmp	.+290    	; 0x8cc2 <date_printdisp__d+0x254>
    8ba0:	80 91 5c 0a 	lds	r24, 0x0A5C	; 0x800a5c <date_printdisp+0x15>
    8ba4:	81 30       	cpi	r24, 0x01	; 1
    8ba6:	31 f5       	brne	.+76     	; 0x8bf4 <date_printdisp__d+0x186>
    8ba8:	90 91 49 0a 	lds	r25, 0x0A49	; 0x800a49 <date_printdisp+0x2>
    8bac:	80 91 37 0a 	lds	r24, 0x0A37	; 0x800a37 <date>
    8bb0:	98 17       	cp	r25, r24
    8bb2:	31 f0       	breq	.+12     	; 0x8bc0 <date_printdisp__d+0x152>
    8bb4:	80 91 37 0a 	lds	r24, 0x0A37	; 0x800a37 <date>
    8bb8:	80 93 49 0a 	sts	0x0A49, r24	; 0x800a49 <date_printdisp+0x2>
    8bbc:	0e 94 46 42 	call	0x848c	; 0x848c <date_printdisp__write_string_day>
    8bc0:	90 91 4d 0a 	lds	r25, 0x0A4D	; 0x800a4d <date_printdisp+0x6>
    8bc4:	80 91 3c 0a 	lds	r24, 0x0A3C	; 0x800a3c <date+0x5>
    8bc8:	98 17       	cp	r25, r24
    8bca:	31 f0       	breq	.+12     	; 0x8bd8 <date_printdisp__d+0x16a>
    8bcc:	80 91 3c 0a 	lds	r24, 0x0A3C	; 0x800a3c <date+0x5>
    8bd0:	80 93 4d 0a 	sts	0x0A4D, r24	; 0x800a4d <date_printdisp+0x6>
    8bd4:	0e 94 9a 43 	call	0x8734	; 0x8734 <date_printdisp__write_update_date>
    8bd8:	90 91 55 0a 	lds	r25, 0x0A55	; 0x800a55 <date_printdisp+0xe>
    8bdc:	80 91 41 0a 	lds	r24, 0x0A41	; 0x800a41 <date+0xa>
    8be0:	98 17       	cp	r25, r24
    8be2:	09 f4       	brne	.+2      	; 0x8be6 <date_printdisp__d+0x178>
    8be4:	62 c0       	rjmp	.+196    	; 0x8caa <date_printdisp__d+0x23c>
    8be6:	80 91 41 0a 	lds	r24, 0x0A41	; 0x800a41 <date+0xa>
    8bea:	80 93 55 0a 	sts	0x0A55, r24	; 0x800a55 <date_printdisp+0xe>
    8bee:	0e 94 62 42 	call	0x84c4	; 0x84c4 <date_printdisp__write_string_month>
    8bf2:	5b c0       	rjmp	.+182    	; 0x8caa <date_printdisp__d+0x23c>
    8bf4:	80 91 5c 0a 	lds	r24, 0x0A5C	; 0x800a5c <date_printdisp+0x15>
    8bf8:	81 11       	cpse	r24, r1
    8bfa:	25 c0       	rjmp	.+74     	; 0x8c46 <date_printdisp__d+0x1d8>
    8bfc:	90 91 49 0a 	lds	r25, 0x0A49	; 0x800a49 <date_printdisp+0x2>
    8c00:	80 91 37 0a 	lds	r24, 0x0A37	; 0x800a37 <date>
    8c04:	98 17       	cp	r25, r24
    8c06:	31 f0       	breq	.+12     	; 0x8c14 <date_printdisp__d+0x1a6>
    8c08:	80 91 37 0a 	lds	r24, 0x0A37	; 0x800a37 <date>
    8c0c:	80 93 49 0a 	sts	0x0A49, r24	; 0x800a49 <date_printdisp+0x2>
    8c10:	0e 94 46 42 	call	0x848c	; 0x848c <date_printdisp__write_string_day>
    8c14:	90 91 4d 0a 	lds	r25, 0x0A4D	; 0x800a4d <date_printdisp+0x6>
    8c18:	80 91 3c 0a 	lds	r24, 0x0A3C	; 0x800a3c <date+0x5>
    8c1c:	98 17       	cp	r25, r24
    8c1e:	31 f0       	breq	.+12     	; 0x8c2c <date_printdisp__d+0x1be>
    8c20:	80 91 3c 0a 	lds	r24, 0x0A3C	; 0x800a3c <date+0x5>
    8c24:	80 93 4d 0a 	sts	0x0A4D, r24	; 0x800a4d <date_printdisp+0x6>
    8c28:	0e 94 9a 43 	call	0x8734	; 0x8734 <date_printdisp__write_update_date>
    8c2c:	90 91 55 0a 	lds	r25, 0x0A55	; 0x800a55 <date_printdisp+0xe>
    8c30:	80 91 41 0a 	lds	r24, 0x0A41	; 0x800a41 <date+0xa>
    8c34:	98 17       	cp	r25, r24
    8c36:	09 f4       	brne	.+2      	; 0x8c3a <date_printdisp__d+0x1cc>
    8c38:	44 c0       	rjmp	.+136    	; 0x8cc2 <date_printdisp__d+0x254>
    8c3a:	80 91 41 0a 	lds	r24, 0x0A41	; 0x800a41 <date+0xa>
    8c3e:	80 93 55 0a 	sts	0x0A55, r24	; 0x800a55 <date_printdisp+0xe>
    8c42:	0c 94 62 42 	jmp	0x84c4	; 0x84c4 <date_printdisp__write_string_month>
    8c46:	80 91 5c 0a 	lds	r24, 0x0A5C	; 0x800a5c <date_printdisp+0x15>
    8c4a:	85 30       	cpi	r24, 0x05	; 5
    8c4c:	d1 f5       	brne	.+116    	; 0x8cc2 <date_printdisp__d+0x254>
    8c4e:	90 91 4d 0a 	lds	r25, 0x0A4D	; 0x800a4d <date_printdisp+0x6>
    8c52:	80 91 3c 0a 	lds	r24, 0x0A3C	; 0x800a3c <date+0x5>
    8c56:	98 17       	cp	r25, r24
    8c58:	31 f0       	breq	.+12     	; 0x8c66 <date_printdisp__d+0x1f8>
    8c5a:	80 91 3c 0a 	lds	r24, 0x0A3C	; 0x800a3c <date+0x5>
    8c5e:	80 93 4d 0a 	sts	0x0A4D, r24	; 0x800a4d <date_printdisp+0x6>
    8c62:	0e 94 9a 43 	call	0x8734	; 0x8734 <date_printdisp__write_update_date>
    8c66:	90 91 55 0a 	lds	r25, 0x0A55	; 0x800a55 <date_printdisp+0xe>
    8c6a:	80 91 41 0a 	lds	r24, 0x0A41	; 0x800a41 <date+0xa>
    8c6e:	98 17       	cp	r25, r24
    8c70:	e1 f0       	breq	.+56     	; 0x8caa <date_printdisp__d+0x23c>
    8c72:	80 91 41 0a 	lds	r24, 0x0A41	; 0x800a41 <date+0xa>
    8c76:	80 93 55 0a 	sts	0x0A55, r24	; 0x800a55 <date_printdisp+0xe>
    8c7a:	90 91 3f 0a 	lds	r25, 0x0A3F	; 0x800a3f <date+0x8>
    8c7e:	80 91 3d 0a 	lds	r24, 0x0A3D	; 0x800a3d <date+0x6>
    8c82:	98 17       	cp	r25, r24
    8c84:	31 f0       	breq	.+12     	; 0x8c92 <date_printdisp__d+0x224>
    8c86:	80 91 3d 0a 	lds	r24, 0x0A3D	; 0x800a3d <date+0x6>
    8c8a:	80 93 3f 0a 	sts	0x0A3F, r24	; 0x800a3f <date+0x8>
    8c8e:	0e 94 b3 43 	call	0x8766	; 0x8766 <date_printdisp__write_month_M10>
    8c92:	90 91 40 0a 	lds	r25, 0x0A40	; 0x800a40 <date+0x9>
    8c96:	80 91 3e 0a 	lds	r24, 0x0A3E	; 0x800a3e <date+0x7>
    8c9a:	98 17       	cp	r25, r24
    8c9c:	31 f0       	breq	.+12     	; 0x8caa <date_printdisp__d+0x23c>
    8c9e:	80 91 3e 0a 	lds	r24, 0x0A3E	; 0x800a3e <date+0x7>
    8ca2:	80 93 40 0a 	sts	0x0A40, r24	; 0x800a40 <date+0x9>
    8ca6:	0e 94 fe 41 	call	0x83fc	; 0x83fc <date_printdisp__write_month_M>
    8caa:	90 91 5b 0a 	lds	r25, 0x0A5B	; 0x800a5b <date_printdisp+0x14>
    8cae:	80 91 46 0a 	lds	r24, 0x0A46	; 0x800a46 <date+0xf>
    8cb2:	98 17       	cp	r25, r24
    8cb4:	31 f0       	breq	.+12     	; 0x8cc2 <date_printdisp__d+0x254>
    8cb6:	80 91 46 0a 	lds	r24, 0x0A46	; 0x800a46 <date+0xf>
    8cba:	80 93 5b 0a 	sts	0x0A5B, r24	; 0x800a5b <date_printdisp+0x14>
    8cbe:	0c 94 cf 43 	jmp	0x879e	; 0x879e <date_printdisp__write_update_year>
    8cc2:	08 95       	ret

00008cc4 <timmer_nb__processing>:
    8cc4:	ac 01       	movw	r20, r24
    8cc6:	90 e0       	ldi	r25, 0x00	; 0
    8cc8:	e9 2f       	mov	r30, r25
    8cca:	f0 e0       	ldi	r31, 0x00	; 0
    8ccc:	e6 17       	cp	r30, r22
    8cce:	f7 07       	cpc	r31, r23
    8cd0:	a0 f4       	brcc	.+40     	; 0x8cfa <timmer_nb__processing+0x36>
    8cd2:	ee 0f       	add	r30, r30
    8cd4:	ff 1f       	adc	r31, r31
    8cd6:	ee 0f       	add	r30, r30
    8cd8:	ff 1f       	adc	r31, r31
    8cda:	e4 0f       	add	r30, r20
    8cdc:	f5 1f       	adc	r31, r21
    8cde:	83 81       	ldd	r24, Z+3	; 0x03
    8ce0:	81 30       	cpi	r24, 0x01	; 1
    8ce2:	49 f4       	brne	.+18     	; 0x8cf6 <timmer_nb__processing+0x32>
    8ce4:	20 81       	ld	r18, Z
    8ce6:	81 81       	ldd	r24, Z+1	; 0x01
    8ce8:	28 17       	cp	r18, r24
    8cea:	28 f0       	brcs	.+10     	; 0x8cf6 <timmer_nb__processing+0x32>
    8cec:	13 82       	std	Z+3, r1	; 0x03
    8cee:	10 82       	st	Z, r1
    8cf0:	22 81       	ldd	r18, Z+2	; 0x02
    8cf2:	2f 5f       	subi	r18, 0xFF	; 255
    8cf4:	22 83       	std	Z+2, r18	; 0x02
    8cf6:	9f 5f       	subi	r25, 0xFF	; 255
    8cf8:	e7 cf       	rjmp	.-50     	; 0x8cc8 <timmer_nb__processing+0x4>
    8cfa:	08 95       	ret

00008cfc <timmer_nb__reset_counter>:
    8cfc:	fc 01       	movw	r30, r24
    8cfe:	10 82       	st	Z, r1
    8d00:	08 95       	ret

00008d02 <timmer_nb__reset_sm_app>:
    8d02:	fc 01       	movw	r30, r24
    8d04:	12 82       	std	Z+2, r1	; 0x02
    8d06:	08 95       	ret

00008d08 <Init_USART0>:
    8d08:	10 92 90 00 	sts	0x0090, r1	; 0x800090 <__TEXT_REGION_LENGTH__+0x7e0090>
    8d0c:	87 e6       	ldi	r24, 0x67	; 103
    8d0e:	89 b9       	out	0x09, r24	; 9
    8d10:	1b b8       	out	0x0b, r1	; 11
    8d12:	88 e1       	ldi	r24, 0x18	; 24
    8d14:	8a b9       	out	0x0a, r24	; 10
    8d16:	86 e8       	ldi	r24, 0x86	; 134
    8d18:	80 93 95 00 	sts	0x0095, r24	; 0x800095 <__TEXT_REGION_LENGTH__+0x7e0095>
    8d1c:	08 95       	ret

00008d1e <key3_2fmode0>:
    8d1e:	08 95       	ret

00008d20 <return_to_mode0>:
    8d20:	cf 93       	push	r28
    8d22:	df 93       	push	r29
    8d24:	ca ef       	ldi	r28, 0xFA	; 250
    8d26:	d7 e0       	ldi	r29, 0x07	; 7
    8d28:	1a 82       	std	Y+2, r1	; 0x02
    8d2a:	60 e0       	ldi	r22, 0x00	; 0
    8d2c:	85 ef       	ldi	r24, 0xF5	; 245
    8d2e:	96 e0       	ldi	r25, 0x06	; 6
    8d30:	0e 94 b8 24 	call	0x4970	; 0x4970 <change_operating_mode>
    8d34:	8f ef       	ldi	r24, 0xFF	; 255
    8d36:	8b 83       	std	Y+3, r24	; 0x03
    8d38:	1c 82       	std	Y+4, r1	; 0x04
    8d3a:	df 91       	pop	r29
    8d3c:	cf 91       	pop	r28
    8d3e:	08 95       	ret

00008d40 <key4_1fmode1>:
    8d40:	60 e0       	ldi	r22, 0x00	; 0
    8d42:	80 e0       	ldi	r24, 0x00	; 0
    8d44:	0e 94 a1 3f 	call	0x7f42	; 0x7f42 <playsound>
    8d48:	e0 91 73 06 	lds	r30, 0x0673	; 0x800673 <dialogbox_nb+0xc>
    8d4c:	f0 91 74 06 	lds	r31, 0x0674	; 0x800674 <dialogbox_nb+0xd>
    8d50:	09 94       	ijmp

00008d52 <key2_1fmode1>:
    8d52:	e0 91 6f 06 	lds	r30, 0x066F	; 0x80066f <dialogbox_nb+0x8>
    8d56:	f0 91 70 06 	lds	r31, 0x0670	; 0x800670 <dialogbox_nb+0x9>
    8d5a:	09 95       	icall
    8d5c:	60 e0       	ldi	r22, 0x00	; 0
    8d5e:	80 e0       	ldi	r24, 0x00	; 0
    8d60:	0c 94 a1 3f 	jmp	0x7f42	; 0x7f42 <playsound>

00008d64 <key1_1fmode1>:
    8d64:	e0 91 6d 06 	lds	r30, 0x066D	; 0x80066d <dialogbox_nb+0x6>
    8d68:	f0 91 6e 06 	lds	r31, 0x066E	; 0x80066e <dialogbox_nb+0x7>
    8d6c:	09 95       	icall
    8d6e:	60 e0       	ldi	r22, 0x00	; 0
    8d70:	80 e0       	ldi	r24, 0x00	; 0
    8d72:	0c 94 a1 3f 	jmp	0x7f42	; 0x7f42 <playsound>

00008d76 <key4_1fmode0>:
    8d76:	1f 93       	push	r17
    8d78:	cf 93       	push	r28
    8d7a:	df 93       	push	r29
    8d7c:	60 e0       	ldi	r22, 0x00	; 0
    8d7e:	80 e0       	ldi	r24, 0x00	; 0
    8d80:	0e 94 a1 3f 	call	0x7f42	; 0x7f42 <playsound>
    8d84:	ca ef       	ldi	r28, 0xFA	; 250
    8d86:	d7 e0       	ldi	r29, 0x07	; 7
    8d88:	11 e0       	ldi	r17, 0x01	; 1
    8d8a:	1a 83       	std	Y+2, r17	; 0x02
    8d8c:	61 e0       	ldi	r22, 0x01	; 1
    8d8e:	85 ef       	ldi	r24, 0xF5	; 245
    8d90:	96 e0       	ldi	r25, 0x06	; 6
    8d92:	0e 94 b8 24 	call	0x4970	; 0x4970 <change_operating_mode>
    8d96:	1b 83       	std	Y+3, r17	; 0x03
    8d98:	1c 82       	std	Y+4, r1	; 0x04
    8d9a:	83 e0       	ldi	r24, 0x03	; 3
    8d9c:	80 93 69 08 	sts	0x0869, r24	; 0x800869 <kbhandler_app>
    8da0:	df 91       	pop	r29
    8da2:	cf 91       	pop	r28
    8da4:	1f 91       	pop	r17
    8da6:	08 95       	ret

00008da8 <LoadNewListFromThisDB>:
    8da8:	cf 92       	push	r12
    8daa:	df 92       	push	r13
    8dac:	ef 92       	push	r14
    8dae:	0f 93       	push	r16
    8db0:	cf 93       	push	r28
    8db2:	df 93       	push	r29
    8db4:	c8 2f       	mov	r28, r24
    8db6:	00 e0       	ldi	r16, 0x00	; 0
    8db8:	2d e0       	ldi	r18, 0x0D	; 13
    8dba:	4d e3       	ldi	r20, 0x3D	; 61
    8dbc:	6e e0       	ldi	r22, 0x0E	; 14
    8dbe:	81 e0       	ldi	r24, 0x01	; 1
    8dc0:	0e 94 61 28 	call	0x50c2	; 0x50c2 <ks0108FillRect>
    8dc4:	cc 2e       	mov	r12, r28
    8dc6:	d1 2c       	mov	r13, r1
    8dc8:	8b e0       	ldi	r24, 0x0B	; 11
    8dca:	c8 9f       	mul	r28, r24
    8dcc:	e0 01       	movw	r28, r0
    8dce:	11 24       	eor	r1, r1
    8dd0:	c8 5c       	subi	r28, 0xC8	; 200
    8dd2:	d9 4e       	sbci	r29, 0xE9	; 233
    8dd4:	ce 01       	movw	r24, r28
    8dd6:	0e 94 8a 52 	call	0xa514	; 0xa514 <__strlen_P>
    8dda:	92 e0       	ldi	r25, 0x02	; 2
    8ddc:	e9 2e       	mov	r14, r25
    8dde:	02 e0       	ldi	r16, 0x02	; 2
    8de0:	26 e0       	ldi	r18, 0x06	; 6
    8de2:	48 2f       	mov	r20, r24
    8de4:	60 e4       	ldi	r22, 0x40	; 64
    8de6:	80 e0       	ldi	r24, 0x00	; 0
    8de8:	0e 94 ea 1b 	call	0x37d4	; 0x37d4 <CenterText_HPix_CHIPn_fx>
    8dec:	6e e0       	ldi	r22, 0x0E	; 14
    8dee:	0e 94 da 25 	call	0x4bb4	; 0x4bb4 <ks0108GotoXY>
    8df2:	ce 01       	movw	r24, r28
    8df4:	0e 94 11 2c 	call	0x5822	; 0x5822 <ks0108Puts_P>
    8df8:	d6 01       	movw	r26, r12
    8dfa:	a8 58       	subi	r26, 0x88	; 136
    8dfc:	b8 4f       	sbci	r27, 0xF8	; 248
    8dfe:	f6 01       	movw	r30, r12
    8e00:	ee 0f       	add	r30, r30
    8e02:	ff 1f       	adc	r31, r31
    8e04:	e4 58       	subi	r30, 0x84	; 132
    8e06:	f8 4f       	sbci	r31, 0xF8	; 248
    8e08:	60 81       	ld	r22, Z
    8e0a:	71 81       	ldd	r23, Z+1	; 0x01
    8e0c:	2c 91       	ld	r18, X
    8e0e:	4b e0       	ldi	r20, 0x0B	; 11
    8e10:	82 e0       	ldi	r24, 0x02	; 2
    8e12:	9a e0       	ldi	r25, 0x0A	; 10
    8e14:	0e 94 71 3e 	call	0x7ce2	; 0x7ce2 <ListBox_LoadnewDB>
    8e18:	c8 2f       	mov	r28, r24
    8e1a:	82 e0       	ldi	r24, 0x02	; 2
    8e1c:	9a e0       	ldi	r25, 0x0A	; 10
    8e1e:	0e 94 8a 3e 	call	0x7d14	; 0x7d14 <ClearInnerRegionListBox>
    8e22:	4f ef       	ldi	r20, 0xFF	; 255
    8e24:	64 e4       	ldi	r22, 0x44	; 68
    8e26:	75 e2       	ldi	r23, 0x25	; 37
    8e28:	86 e0       	ldi	r24, 0x06	; 6
    8e2a:	90 e1       	ldi	r25, 0x10	; 16
    8e2c:	0e 94 47 25 	call	0x4a8e	; 0x4a8e <ks0108SelectFont>
    8e30:	82 e0       	ldi	r24, 0x02	; 2
    8e32:	9a e0       	ldi	r25, 0x0A	; 10
    8e34:	0e 94 ce 3e 	call	0x7d9c	; 0x7d9c <fill_listbox>
    8e38:	8c 2f       	mov	r24, r28
    8e3a:	df 91       	pop	r29
    8e3c:	cf 91       	pop	r28
    8e3e:	0f 91       	pop	r16
    8e40:	ef 90       	pop	r14
    8e42:	df 90       	pop	r13
    8e44:	cf 90       	pop	r12
    8e46:	08 95       	ret

00008e48 <key4_1fmode2>:
    8e48:	0f 93       	push	r16
    8e4a:	60 e0       	ldi	r22, 0x00	; 0
    8e4c:	80 e0       	ldi	r24, 0x00	; 0
    8e4e:	0e 94 a1 3f 	call	0x7f42	; 0x7f42 <playsound>
    8e52:	80 91 60 0a 	lds	r24, 0x0A60	; 0x800a60 <Schedule_ChooseFromList>
    8e56:	8f 5f       	subi	r24, 0xFF	; 255
    8e58:	80 93 60 0a 	sts	0x0A60, r24	; 0x800a60 <Schedule_ChooseFromList>
    8e5c:	87 30       	cpi	r24, 0x07	; 7
    8e5e:	f1 f4       	brne	.+60     	; 0x8e9c <key4_1fmode2+0x54>
    8e60:	10 92 60 0a 	sts	0x0A60, r1	; 0x800a60 <Schedule_ChooseFromList>
    8e64:	4f ef       	ldi	r20, 0xFF	; 255
    8e66:	64 e4       	ldi	r22, 0x44	; 68
    8e68:	75 e2       	ldi	r23, 0x25	; 37
    8e6a:	86 e0       	ldi	r24, 0x06	; 6
    8e6c:	90 e1       	ldi	r25, 0x10	; 16
    8e6e:	0e 94 47 25 	call	0x4a8e	; 0x4a8e <ks0108SelectFont>
    8e72:	00 e0       	ldi	r16, 0x00	; 0
    8e74:	2a e1       	ldi	r18, 0x1A	; 26
    8e76:	4d e3       	ldi	r20, 0x3D	; 61
    8e78:	61 e0       	ldi	r22, 0x01	; 1
    8e7a:	81 e0       	ldi	r24, 0x01	; 1
    8e7c:	0e 94 61 28 	call	0x50c2	; 0x50c2 <ks0108FillRect>
    8e80:	61 e0       	ldi	r22, 0x01	; 1
    8e82:	82 e0       	ldi	r24, 0x02	; 2
    8e84:	0e 94 da 25 	call	0x4bb4	; 0x4bb4 <ks0108GotoXY>
    8e88:	85 e2       	ldi	r24, 0x25	; 37
    8e8a:	96 e1       	ldi	r25, 0x16	; 22
    8e8c:	0e 94 11 2c 	call	0x5822	; 0x5822 <ks0108Puts_P>
    8e90:	2c e0       	ldi	r18, 0x0C	; 12
    8e92:	4d e3       	ldi	r20, 0x3D	; 61
    8e94:	61 e0       	ldi	r22, 0x01	; 1
    8e96:	81 e0       	ldi	r24, 0x01	; 1
    8e98:	0e 94 57 29 	call	0x52ae	; 0x52ae <ks0108InvertRect>
    8e9c:	80 91 60 0a 	lds	r24, 0x0A60	; 0x800a60 <Schedule_ChooseFromList>
    8ea0:	84 30       	cpi	r24, 0x04	; 4
    8ea2:	70 f4       	brcc	.+28     	; 0x8ec0 <key4_1fmode2+0x78>
    8ea4:	80 91 5f 0a 	lds	r24, 0x0A5F	; 0x800a5f <CountDBpointed>
    8ea8:	8f 5f       	subi	r24, 0xFF	; 255
    8eaa:	84 30       	cpi	r24, 0x04	; 4
    8eac:	18 f4       	brcc	.+6      	; 0x8eb4 <key4_1fmode2+0x6c>
    8eae:	80 93 5f 0a 	sts	0x0A5F, r24	; 0x800a5f <CountDBpointed>
    8eb2:	02 c0       	rjmp	.+4      	; 0x8eb8 <key4_1fmode2+0x70>
    8eb4:	10 92 5f 0a 	sts	0x0A5F, r1	; 0x800a5f <CountDBpointed>
    8eb8:	80 91 5f 0a 	lds	r24, 0x0A5F	; 0x800a5f <CountDBpointed>
    8ebc:	0e 94 d4 46 	call	0x8da8	; 0x8da8 <LoadNewListFromThisDB>
    8ec0:	80 91 60 0a 	lds	r24, 0x0A60	; 0x800a60 <Schedule_ChooseFromList>
    8ec4:	84 30       	cpi	r24, 0x04	; 4
    8ec6:	b9 f4       	brne	.+46     	; 0x8ef6 <key4_1fmode2+0xae>
    8ec8:	00 e0       	ldi	r16, 0x00	; 0
    8eca:	2a e1       	ldi	r18, 0x1A	; 26
    8ecc:	4d e3       	ldi	r20, 0x3D	; 61
    8ece:	61 e0       	ldi	r22, 0x01	; 1
    8ed0:	81 e0       	ldi	r24, 0x01	; 1
    8ed2:	0e 94 61 28 	call	0x50c2	; 0x50c2 <ks0108FillRect>
    8ed6:	61 e0       	ldi	r22, 0x01	; 1
    8ed8:	88 e0       	ldi	r24, 0x08	; 8
    8eda:	0e 94 da 25 	call	0x4bb4	; 0x4bb4 <ks0108GotoXY>
    8ede:	8d e1       	ldi	r24, 0x1D	; 29
    8ee0:	96 e1       	ldi	r25, 0x16	; 22
    8ee2:	0e 94 11 2c 	call	0x5822	; 0x5822 <ks0108Puts_P>
    8ee6:	6e e0       	ldi	r22, 0x0E	; 14
    8ee8:	8b e0       	ldi	r24, 0x0B	; 11
    8eea:	0e 94 da 25 	call	0x4bb4	; 0x4bb4 <ks0108GotoXY>
    8eee:	84 e1       	ldi	r24, 0x14	; 20
    8ef0:	96 e1       	ldi	r25, 0x16	; 22
    8ef2:	0e 94 11 2c 	call	0x5822	; 0x5822 <ks0108Puts_P>
    8ef6:	80 91 60 0a 	lds	r24, 0x0A60	; 0x800a60 <Schedule_ChooseFromList>
    8efa:	85 30       	cpi	r24, 0x05	; 5
    8efc:	b9 f4       	brne	.+46     	; 0x8f2c <key4_1fmode2+0xe4>
    8efe:	00 e0       	ldi	r16, 0x00	; 0
    8f00:	2a e1       	ldi	r18, 0x1A	; 26
    8f02:	4d e3       	ldi	r20, 0x3D	; 61
    8f04:	61 e0       	ldi	r22, 0x01	; 1
    8f06:	81 e0       	ldi	r24, 0x01	; 1
    8f08:	0e 94 61 28 	call	0x50c2	; 0x50c2 <ks0108FillRect>
    8f0c:	61 e0       	ldi	r22, 0x01	; 1
    8f0e:	8f e0       	ldi	r24, 0x0F	; 15
    8f10:	0e 94 da 25 	call	0x4bb4	; 0x4bb4 <ks0108GotoXY>
    8f14:	8e e0       	ldi	r24, 0x0E	; 14
    8f16:	96 e1       	ldi	r25, 0x16	; 22
    8f18:	0e 94 11 2c 	call	0x5822	; 0x5822 <ks0108Puts_P>
    8f1c:	6e e0       	ldi	r22, 0x0E	; 14
    8f1e:	88 e0       	ldi	r24, 0x08	; 8
    8f20:	0e 94 da 25 	call	0x4bb4	; 0x4bb4 <ks0108GotoXY>
    8f24:	85 e0       	ldi	r24, 0x05	; 5
    8f26:	96 e1       	ldi	r25, 0x16	; 22
    8f28:	0e 94 11 2c 	call	0x5822	; 0x5822 <ks0108Puts_P>
    8f2c:	80 91 60 0a 	lds	r24, 0x0A60	; 0x800a60 <Schedule_ChooseFromList>
    8f30:	86 30       	cpi	r24, 0x06	; 6
    8f32:	81 f4       	brne	.+32     	; 0x8f54 <key4_1fmode2+0x10c>
    8f34:	00 e0       	ldi	r16, 0x00	; 0
    8f36:	2a e1       	ldi	r18, 0x1A	; 26
    8f38:	4d e3       	ldi	r20, 0x3D	; 61
    8f3a:	61 e0       	ldi	r22, 0x01	; 1
    8f3c:	81 e0       	ldi	r24, 0x01	; 1
    8f3e:	0e 94 61 28 	call	0x50c2	; 0x50c2 <ks0108FillRect>
    8f42:	6e e0       	ldi	r22, 0x0E	; 14
    8f44:	8d e0       	ldi	r24, 0x0D	; 13
    8f46:	0e 94 da 25 	call	0x4bb4	; 0x4bb4 <ks0108GotoXY>
    8f4a:	8d ef       	ldi	r24, 0xFD	; 253
    8f4c:	95 e1       	ldi	r25, 0x15	; 21
    8f4e:	0f 91       	pop	r16
    8f50:	0c 94 11 2c 	jmp	0x5822	; 0x5822 <ks0108Puts_P>
    8f54:	0f 91       	pop	r16
    8f56:	08 95       	ret

00008f58 <key3_1fmode0>:
    8f58:	0f 93       	push	r16
    8f5a:	cf 93       	push	r28
    8f5c:	df 93       	push	r29
    8f5e:	61 e0       	ldi	r22, 0x01	; 1
    8f60:	80 e0       	ldi	r24, 0x00	; 0
    8f62:	0e 94 a1 3f 	call	0x7f42	; 0x7f42 <playsound>
    8f66:	ca ef       	ldi	r28, 0xFA	; 250
    8f68:	d7 e0       	ldi	r29, 0x07	; 7
    8f6a:	82 e0       	ldi	r24, 0x02	; 2
    8f6c:	8a 83       	std	Y+2, r24	; 0x02
    8f6e:	62 e0       	ldi	r22, 0x02	; 2
    8f70:	85 ef       	ldi	r24, 0xF5	; 245
    8f72:	96 e0       	ldi	r25, 0x06	; 6
    8f74:	0e 94 b8 24 	call	0x4970	; 0x4970 <change_operating_mode>
    8f78:	10 92 5f 0a 	sts	0x0A5F, r1	; 0x800a5f <CountDBpointed>
    8f7c:	10 92 60 0a 	sts	0x0A60, r1	; 0x800a60 <Schedule_ChooseFromList>
    8f80:	4f ef       	ldi	r20, 0xFF	; 255
    8f82:	64 e4       	ldi	r22, 0x44	; 68
    8f84:	75 e2       	ldi	r23, 0x25	; 37
    8f86:	86 e0       	ldi	r24, 0x06	; 6
    8f88:	90 e1       	ldi	r25, 0x10	; 16
    8f8a:	0e 94 47 25 	call	0x4a8e	; 0x4a8e <ks0108SelectFont>
    8f8e:	00 e0       	ldi	r16, 0x00	; 0
    8f90:	2a e1       	ldi	r18, 0x1A	; 26
    8f92:	4d e3       	ldi	r20, 0x3D	; 61
    8f94:	61 e0       	ldi	r22, 0x01	; 1
    8f96:	81 e0       	ldi	r24, 0x01	; 1
    8f98:	0e 94 61 28 	call	0x50c2	; 0x50c2 <ks0108FillRect>
    8f9c:	61 e0       	ldi	r22, 0x01	; 1
    8f9e:	82 e0       	ldi	r24, 0x02	; 2
    8fa0:	0e 94 da 25 	call	0x4bb4	; 0x4bb4 <ks0108GotoXY>
    8fa4:	87 ee       	ldi	r24, 0xE7	; 231
    8fa6:	95 e1       	ldi	r25, 0x15	; 21
    8fa8:	0e 94 11 2c 	call	0x5822	; 0x5822 <ks0108Puts_P>
    8fac:	2c e0       	ldi	r18, 0x0C	; 12
    8fae:	4d e3       	ldi	r20, 0x3D	; 61
    8fb0:	61 e0       	ldi	r22, 0x01	; 1
    8fb2:	81 e0       	ldi	r24, 0x01	; 1
    8fb4:	0e 94 57 29 	call	0x52ae	; 0x52ae <ks0108InvertRect>
    8fb8:	80 91 5f 0a 	lds	r24, 0x0A5F	; 0x800a5f <CountDBpointed>
    8fbc:	0e 94 d4 46 	call	0x8da8	; 0x8da8 <LoadNewListFromThisDB>
    8fc0:	8f ef       	ldi	r24, 0xFF	; 255
    8fc2:	8b 83       	std	Y+3, r24	; 0x03
    8fc4:	1c 82       	std	Y+4, r1	; 0x04
    8fc6:	df 91       	pop	r29
    8fc8:	cf 91       	pop	r28
    8fca:	0f 91       	pop	r16
    8fcc:	08 95       	ret

00008fce <key3_1fmode0_aft>:
    8fce:	0c 94 ac 47 	jmp	0x8f58	; 0x8f58 <key3_1fmode0>

00008fd2 <key3_1fmode1>:
    8fd2:	e0 91 71 06 	lds	r30, 0x0671	; 0x800671 <dialogbox_nb+0xa>
    8fd6:	f0 91 72 06 	lds	r31, 0x0672	; 0x800672 <dialogbox_nb+0xb>
    8fda:	09 95       	icall
    8fdc:	80 91 69 06 	lds	r24, 0x0669	; 0x800669 <dialogbox_nb+0x2>
    8fe0:	81 11       	cpse	r24, r1
    8fe2:	02 c0       	rjmp	.+4      	; 0x8fe8 <key3_1fmode1+0x16>
    8fe4:	61 e0       	ldi	r22, 0x01	; 1
    8fe6:	06 c0       	rjmp	.+12     	; 0x8ff4 <key3_1fmode1+0x22>
    8fe8:	80 91 69 06 	lds	r24, 0x0669	; 0x800669 <dialogbox_nb+0x2>
    8fec:	81 30       	cpi	r24, 0x01	; 1
    8fee:	21 f4       	brne	.+8      	; 0x8ff8 <key3_1fmode1+0x26>
    8ff0:	60 e0       	ldi	r22, 0x00	; 0
    8ff2:	80 e0       	ldi	r24, 0x00	; 0
    8ff4:	0c 94 a1 3f 	jmp	0x7f42	; 0x7f42 <playsound>
    8ff8:	08 95       	ret

00008ffa <key3_1fmode1_aft>:
    8ffa:	0c 94 e9 47 	jmp	0x8fd2	; 0x8fd2 <key3_1fmode1>

00008ffe <key2_1fmode2>:
    8ffe:	80 91 60 0a 	lds	r24, 0x0A60	; 0x800a60 <Schedule_ChooseFromList>
    9002:	84 30       	cpi	r24, 0x04	; 4
    9004:	48 f4       	brcc	.+18     	; 0x9018 <key2_1fmode2+0x1a>
    9006:	61 e0       	ldi	r22, 0x01	; 1
    9008:	82 e0       	ldi	r24, 0x02	; 2
    900a:	9a e0       	ldi	r25, 0x0A	; 10
    900c:	0e 94 d8 3e 	call	0x7db0	; 0x7db0 <ListBox_Ex>
    9010:	60 e0       	ldi	r22, 0x00	; 0
    9012:	80 e0       	ldi	r24, 0x00	; 0
    9014:	0c 94 a1 3f 	jmp	0x7f42	; 0x7f42 <playsound>
    9018:	08 95       	ret

0000901a <key1_1fmode2>:
    901a:	80 91 60 0a 	lds	r24, 0x0A60	; 0x800a60 <Schedule_ChooseFromList>
    901e:	84 30       	cpi	r24, 0x04	; 4
    9020:	48 f4       	brcc	.+18     	; 0x9034 <key1_1fmode2+0x1a>
    9022:	60 e0       	ldi	r22, 0x00	; 0
    9024:	82 e0       	ldi	r24, 0x02	; 2
    9026:	9a e0       	ldi	r25, 0x0A	; 10
    9028:	0e 94 d8 3e 	call	0x7db0	; 0x7db0 <ListBox_Ex>
    902c:	60 e0       	ldi	r22, 0x00	; 0
    902e:	80 e0       	ldi	r24, 0x00	; 0
    9030:	0c 94 a1 3f 	jmp	0x7f42	; 0x7f42 <playsound>
    9034:	08 95       	ret

00009036 <view_fieldname_of_zone.constprop.3>:
    9036:	af 92       	push	r10
    9038:	bf 92       	push	r11
    903a:	cf 92       	push	r12
    903c:	df 92       	push	r13
    903e:	ef 92       	push	r14
    9040:	ff 92       	push	r15
    9042:	0f 93       	push	r16
    9044:	1f 93       	push	r17
    9046:	cf 93       	push	r28
    9048:	df 93       	push	r29
    904a:	c8 2e       	mov	r12, r24
    904c:	4f ef       	ldi	r20, 0xFF	; 255
    904e:	64 e4       	ldi	r22, 0x44	; 68
    9050:	75 e2       	ldi	r23, 0x25	; 37
    9052:	86 e0       	ldi	r24, 0x06	; 6
    9054:	90 e1       	ldi	r25, 0x10	; 16
    9056:	0e 94 47 25 	call	0x4a8e	; 0x4a8e <ks0108SelectFont>
    905a:	05 e7       	ldi	r16, 0x75	; 117
    905c:	17 e0       	ldi	r17, 0x07	; 7
    905e:	2a e0       	ldi	r18, 0x0A	; 10
    9060:	c2 9e       	mul	r12, r18
    9062:	60 01       	movw	r12, r0
    9064:	11 24       	eor	r1, r1
    9066:	c0 e0       	ldi	r28, 0x00	; 0
    9068:	d0 e0       	ldi	r29, 0x00	; 0
    906a:	76 01       	movw	r14, r12
    906c:	8f ef       	ldi	r24, 0xFF	; 255
    906e:	e8 1a       	sub	r14, r24
    9070:	f8 0a       	sbc	r15, r24
    9072:	ce 01       	movw	r24, r28
    9074:	8c 0d       	add	r24, r12
    9076:	9d 1d       	adc	r25, r13
    9078:	80 50       	subi	r24, 0x00	; 0
    907a:	9c 4f       	sbci	r25, 0xFC	; 252
    907c:	0e 94 46 11 	call	0x228c	; 0x228c <EEPROM_ReadByte>
    9080:	b8 2e       	mov	r11, r24
    9082:	c7 01       	movw	r24, r14
    9084:	8c 0f       	add	r24, r28
    9086:	9d 1f       	adc	r25, r29
    9088:	80 50       	subi	r24, 0x00	; 0
    908a:	9c 4f       	sbci	r25, 0xFC	; 252
    908c:	0e 94 46 11 	call	0x228c	; 0x228c <EEPROM_ReadByte>
    9090:	a8 2e       	mov	r10, r24
    9092:	f8 01       	movw	r30, r16
    9094:	61 91       	ld	r22, Z+
    9096:	8f 01       	movw	r16, r30
    9098:	82 e4       	ldi	r24, 0x42	; 66
    909a:	0e 94 da 25 	call	0x4bb4	; 0x4bb4 <ks0108GotoXY>
    909e:	eb 2d       	mov	r30, r11
    90a0:	f0 e0       	ldi	r31, 0x00	; 0
    90a2:	ee 0f       	add	r30, r30
    90a4:	ff 1f       	adc	r31, r31
    90a6:	e4 58       	subi	r30, 0x84	; 132
    90a8:	f8 4f       	sbci	r31, 0xF8	; 248
    90aa:	80 81       	ld	r24, Z
    90ac:	91 81       	ldd	r25, Z+1	; 0x01
    90ae:	fb e0       	ldi	r31, 0x0B	; 11
    90b0:	af 9e       	mul	r10, r31
    90b2:	80 0d       	add	r24, r0
    90b4:	91 1d       	adc	r25, r1
    90b6:	11 24       	eor	r1, r1
    90b8:	0e 94 11 2c 	call	0x5822	; 0x5822 <ks0108Puts_P>
    90bc:	22 96       	adiw	r28, 0x02	; 2
    90be:	c6 30       	cpi	r28, 0x06	; 6
    90c0:	d1 05       	cpc	r29, r1
    90c2:	b9 f6       	brne	.-82     	; 0x9072 <view_fieldname_of_zone.constprop.3+0x3c>
    90c4:	df 91       	pop	r29
    90c6:	cf 91       	pop	r28
    90c8:	1f 91       	pop	r17
    90ca:	0f 91       	pop	r16
    90cc:	ff 90       	pop	r15
    90ce:	ef 90       	pop	r14
    90d0:	df 90       	pop	r13
    90d2:	cf 90       	pop	r12
    90d4:	bf 90       	pop	r11
    90d6:	af 90       	pop	r10
    90d8:	08 95       	ret

000090da <Draw2RectsMarkActiveField>:
    90da:	0f 93       	push	r16
    90dc:	cf 93       	push	r28
    90de:	df 93       	push	r29
    90e0:	c8 2f       	mov	r28, r24
    90e2:	d6 2f       	mov	r29, r22
    90e4:	6f ef       	ldi	r22, 0xFF	; 255
    90e6:	68 0f       	add	r22, r24
    90e8:	0d 2f       	mov	r16, r29
    90ea:	20 e0       	ldi	r18, 0x00	; 0
    90ec:	4b e3       	ldi	r20, 0x3B	; 59
    90ee:	82 e4       	ldi	r24, 0x42	; 66
    90f0:	0e 94 f4 28 	call	0x51e8	; 0x51e8 <ks0108DrawRect>
    90f4:	6d e0       	ldi	r22, 0x0D	; 13
    90f6:	6c 0f       	add	r22, r28
    90f8:	20 e0       	ldi	r18, 0x00	; 0
    90fa:	4b e3       	ldi	r20, 0x3B	; 59
    90fc:	82 e4       	ldi	r24, 0x42	; 66
    90fe:	0e 94 f4 28 	call	0x51e8	; 0x51e8 <ks0108DrawRect>
    9102:	df 91       	pop	r29
    9104:	cf 91       	pop	r28
    9106:	0f 91       	pop	r16
    9108:	08 95       	ret

0000910a <key2_1fmode0>:
    910a:	0f 93       	push	r16
    910c:	e0 91 fb 07 	lds	r30, 0x07FB	; 0x8007fb <thisps+0x1>
    9110:	0e 2e       	mov	r0, r30
    9112:	00 0c       	add	r0, r0
    9114:	ff 0b       	sbc	r31, r31
    9116:	eb 58       	subi	r30, 0x8B	; 139
    9118:	f8 4f       	sbci	r31, 0xF8	; 248
    911a:	60 e0       	ldi	r22, 0x00	; 0
    911c:	80 81       	ld	r24, Z
    911e:	0e 94 6d 48 	call	0x90da	; 0x90da <Draw2RectsMarkActiveField>
    9122:	80 91 fb 07 	lds	r24, 0x07FB	; 0x8007fb <thisps+0x1>
    9126:	8f 5f       	subi	r24, 0xFF	; 255
    9128:	83 30       	cpi	r24, 0x03	; 3
    912a:	1c f4       	brge	.+6      	; 0x9132 <key2_1fmode0+0x28>
    912c:	80 93 fb 07 	sts	0x07FB, r24	; 0x8007fb <thisps+0x1>
    9130:	02 c0       	rjmp	.+4      	; 0x9136 <key2_1fmode0+0x2c>
    9132:	10 92 fb 07 	sts	0x07FB, r1	; 0x8007fb <thisps+0x1>
    9136:	e0 91 fb 07 	lds	r30, 0x07FB	; 0x8007fb <thisps+0x1>
    913a:	0e 2e       	mov	r0, r30
    913c:	00 0c       	add	r0, r0
    913e:	ff 0b       	sbc	r31, r31
    9140:	eb 58       	subi	r30, 0x8B	; 139
    9142:	f8 4f       	sbci	r31, 0xF8	; 248
    9144:	6f ef       	ldi	r22, 0xFF	; 255
    9146:	80 81       	ld	r24, Z
    9148:	0e 94 6d 48 	call	0x90da	; 0x90da <Draw2RectsMarkActiveField>
    914c:	00 91 fb 07 	lds	r16, 0x07FB	; 0x8007fb <thisps+0x1>
    9150:	0f 5f       	subi	r16, 0xFF	; 255
    9152:	2d e0       	ldi	r18, 0x0D	; 13
    9154:	46 e0       	ldi	r20, 0x06	; 6
    9156:	6f e2       	ldi	r22, 0x2F	; 47
    9158:	82 e3       	ldi	r24, 0x32	; 50
    915a:	0e 94 d4 1b 	call	0x37a8	; 0x37a8 <PrintNewDigitInASCIIAt>
    915e:	60 e0       	ldi	r22, 0x00	; 0
    9160:	80 e0       	ldi	r24, 0x00	; 0
    9162:	0f 91       	pop	r16
    9164:	0c 94 a1 3f 	jmp	0x7f42	; 0x7f42 <playsound>

00009168 <key1_1fmode0>:
    9168:	0f 93       	push	r16
    916a:	80 91 fa 07 	lds	r24, 0x07FA	; 0x8007fa <thisps>
    916e:	8f 5f       	subi	r24, 0xFF	; 255
    9170:	86 30       	cpi	r24, 0x06	; 6
    9172:	1c f4       	brge	.+6      	; 0x917a <key1_1fmode0+0x12>
    9174:	80 93 fa 07 	sts	0x07FA, r24	; 0x8007fa <thisps>
    9178:	02 c0       	rjmp	.+4      	; 0x917e <key1_1fmode0+0x16>
    917a:	10 92 fa 07 	sts	0x07FA, r1	; 0x8007fa <thisps>
    917e:	00 e0       	ldi	r16, 0x00	; 0
    9180:	2d e3       	ldi	r18, 0x3D	; 61
    9182:	4d e3       	ldi	r20, 0x3D	; 61
    9184:	61 e0       	ldi	r22, 0x01	; 1
    9186:	81 e4       	ldi	r24, 0x41	; 65
    9188:	0e 94 61 28 	call	0x50c2	; 0x50c2 <ks0108FillRect>
    918c:	80 91 fa 07 	lds	r24, 0x07FA	; 0x8007fa <thisps>
    9190:	0e 94 1b 48 	call	0x9036	; 0x9036 <view_fieldname_of_zone.constprop.3>
    9194:	10 92 fb 07 	sts	0x07FB, r1	; 0x8007fb <thisps+0x1>
    9198:	6f ef       	ldi	r22, 0xFF	; 255
    919a:	80 91 75 07 	lds	r24, 0x0775	; 0x800775 <vGogoXY_VerticalFieldNameZone>
    919e:	0e 94 6d 48 	call	0x90da	; 0x90da <Draw2RectsMarkActiveField>
    91a2:	00 91 fa 07 	lds	r16, 0x07FA	; 0x8007fa <thisps>
    91a6:	0f 5f       	subi	r16, 0xFF	; 255
    91a8:	2d e0       	ldi	r18, 0x0D	; 13
    91aa:	46 e0       	ldi	r20, 0x06	; 6
    91ac:	62 e2       	ldi	r22, 0x22	; 34
    91ae:	8b e2       	ldi	r24, 0x2B	; 43
    91b0:	0e 94 d4 1b 	call	0x37a8	; 0x37a8 <PrintNewDigitInASCIIAt>
    91b4:	00 91 fb 07 	lds	r16, 0x07FB	; 0x8007fb <thisps+0x1>
    91b8:	0f 5f       	subi	r16, 0xFF	; 255
    91ba:	2d e0       	ldi	r18, 0x0D	; 13
    91bc:	46 e0       	ldi	r20, 0x06	; 6
    91be:	6f e2       	ldi	r22, 0x2F	; 47
    91c0:	82 e3       	ldi	r24, 0x32	; 50
    91c2:	0e 94 d4 1b 	call	0x37a8	; 0x37a8 <PrintNewDigitInASCIIAt>
    91c6:	60 e0       	ldi	r22, 0x00	; 0
    91c8:	80 e0       	ldi	r24, 0x00	; 0
    91ca:	0f 91       	pop	r16
    91cc:	0c 94 a1 3f 	jmp	0x7f42	; 0x7f42 <playsound>

000091d0 <InitializeEnter_SettingNameToZone>:
    91d0:	0f 93       	push	r16
    91d2:	cf 93       	push	r28
    91d4:	df 93       	push	r29
    91d6:	d8 2f       	mov	r29, r24
    91d8:	c6 2f       	mov	r28, r22
    91da:	4f ef       	ldi	r20, 0xFF	; 255
    91dc:	64 e4       	ldi	r22, 0x44	; 68
    91de:	75 e2       	ldi	r23, 0x25	; 37
    91e0:	86 e0       	ldi	r24, 0x06	; 6
    91e2:	90 e1       	ldi	r25, 0x10	; 16
    91e4:	0e 94 47 25 	call	0x4a8e	; 0x4a8e <ks0108SelectFont>
    91e8:	4f e1       	ldi	r20, 0x1F	; 31
    91ea:	6f e1       	ldi	r22, 0x1F	; 31
    91ec:	8f e1       	ldi	r24, 0x1F	; 31
    91ee:	0e 94 02 1c 	call	0x3804	; 0x3804 <ClearFromCenter_GrowingSymmetric>
    91f2:	61 e0       	ldi	r22, 0x01	; 1
    91f4:	88 e0       	ldi	r24, 0x08	; 8
    91f6:	0e 94 da 25 	call	0x4bb4	; 0x4bb4 <ks0108GotoXY>
    91fa:	8f ed       	ldi	r24, 0xDF	; 223
    91fc:	95 e1       	ldi	r25, 0x15	; 21
    91fe:	0e 94 11 2c 	call	0x5822	; 0x5822 <ks0108Puts_P>
    9202:	2c e0       	ldi	r18, 0x0C	; 12
    9204:	4d e3       	ldi	r20, 0x3D	; 61
    9206:	61 e0       	ldi	r22, 0x01	; 1
    9208:	81 e0       	ldi	r24, 0x01	; 1
    920a:	0e 94 57 29 	call	0x52ae	; 0x52ae <ks0108InvertRect>
    920e:	60 e1       	ldi	r22, 0x10	; 16
    9210:	87 e0       	ldi	r24, 0x07	; 7
    9212:	0e 94 da 25 	call	0x4bb4	; 0x4bb4 <ks0108GotoXY>
    9216:	84 ed       	ldi	r24, 0xD4	; 212
    9218:	95 e1       	ldi	r25, 0x15	; 21
    921a:	0e 94 11 2c 	call	0x5822	; 0x5822 <ks0108Puts_P>
    921e:	0f ef       	ldi	r16, 0xFF	; 255
    9220:	20 e0       	ldi	r18, 0x00	; 0
    9222:	4e e3       	ldi	r20, 0x3E	; 62
    9224:	60 e2       	ldi	r22, 0x20	; 32
    9226:	81 e0       	ldi	r24, 0x01	; 1
    9228:	0e 94 f4 28 	call	0x51e8	; 0x51e8 <ks0108DrawRect>
    922c:	2d e1       	ldi	r18, 0x1D	; 29
    922e:	4d e3       	ldi	r20, 0x3D	; 61
    9230:	61 e2       	ldi	r22, 0x21	; 33
    9232:	81 e0       	ldi	r24, 0x01	; 1
    9234:	0e 94 f4 28 	call	0x51e8	; 0x51e8 <ks0108DrawRect>
    9238:	62 e2       	ldi	r22, 0x22	; 34
    923a:	8b e0       	ldi	r24, 0x0B	; 11
    923c:	0e 94 da 25 	call	0x4bb4	; 0x4bb4 <ks0108GotoXY>
    9240:	8e ec       	ldi	r24, 0xCE	; 206
    9242:	95 e1       	ldi	r25, 0x15	; 21
    9244:	0e 94 11 2c 	call	0x5822	; 0x5822 <ks0108Puts_P>
    9248:	6f e2       	ldi	r22, 0x2F	; 47
    924a:	88 e0       	ldi	r24, 0x08	; 8
    924c:	0e 94 da 25 	call	0x4bb4	; 0x4bb4 <ks0108GotoXY>
    9250:	87 ec       	ldi	r24, 0xC7	; 199
    9252:	95 e1       	ldi	r25, 0x15	; 21
    9254:	0e 94 11 2c 	call	0x5822	; 0x5822 <ks0108Puts_P>
    9258:	01 e0       	ldi	r16, 0x01	; 1
    925a:	0d 0f       	add	r16, r29
    925c:	2d e0       	ldi	r18, 0x0D	; 13
    925e:	46 e0       	ldi	r20, 0x06	; 6
    9260:	62 e2       	ldi	r22, 0x22	; 34
    9262:	8b e2       	ldi	r24, 0x2B	; 43
    9264:	0e 94 d4 1b 	call	0x37a8	; 0x37a8 <PrintNewDigitInASCIIAt>
    9268:	01 e0       	ldi	r16, 0x01	; 1
    926a:	0c 0f       	add	r16, r28
    926c:	2d e0       	ldi	r18, 0x0D	; 13
    926e:	46 e0       	ldi	r20, 0x06	; 6
    9270:	6f e2       	ldi	r22, 0x2F	; 47
    9272:	82 e3       	ldi	r24, 0x32	; 50
    9274:	0e 94 d4 1b 	call	0x37a8	; 0x37a8 <PrintNewDigitInASCIIAt>
    9278:	00 e0       	ldi	r16, 0x00	; 0
    927a:	2d e3       	ldi	r18, 0x3D	; 61
    927c:	4d e3       	ldi	r20, 0x3D	; 61
    927e:	61 e0       	ldi	r22, 0x01	; 1
    9280:	81 e4       	ldi	r24, 0x41	; 65
    9282:	0e 94 61 28 	call	0x50c2	; 0x50c2 <ks0108FillRect>
    9286:	8d 2f       	mov	r24, r29
    9288:	0e 94 1b 48 	call	0x9036	; 0x9036 <view_fieldname_of_zone.constprop.3>
    928c:	ec 2f       	mov	r30, r28
    928e:	f0 e0       	ldi	r31, 0x00	; 0
    9290:	eb 58       	subi	r30, 0x8B	; 139
    9292:	f8 4f       	sbci	r31, 0xF8	; 248
    9294:	6f ef       	ldi	r22, 0xFF	; 255
    9296:	80 81       	ld	r24, Z
    9298:	df 91       	pop	r29
    929a:	cf 91       	pop	r28
    929c:	0f 91       	pop	r16
    929e:	0c 94 6d 48 	jmp	0x90da	; 0x90da <Draw2RectsMarkActiveField>

000092a2 <key3_1fmode2>:
    92a2:	0f 93       	push	r16
    92a4:	1f 93       	push	r17
    92a6:	cf 93       	push	r28
    92a8:	df 93       	push	r29
    92aa:	61 e0       	ldi	r22, 0x01	; 1
    92ac:	80 e0       	ldi	r24, 0x00	; 0
    92ae:	0e 94 a1 3f 	call	0x7f42	; 0x7f42 <playsound>
    92b2:	80 91 60 0a 	lds	r24, 0x0A60	; 0x800a60 <Schedule_ChooseFromList>
    92b6:	84 30       	cpi	r24, 0x04	; 4
    92b8:	a8 f5       	brcc	.+106    	; 0x9324 <key3_1fmode2+0x82>
    92ba:	80 91 5f 0a 	lds	r24, 0x0A5F	; 0x800a5f <CountDBpointed>
    92be:	80 93 61 0a 	sts	0x0A61, r24	; 0x800a61 <DB_LastPointed>
    92c2:	82 e0       	ldi	r24, 0x02	; 2
    92c4:	9a e0       	ldi	r25, 0x0A	; 10
    92c6:	0e 94 1f 3f 	call	0x7e3e	; 0x7e3e <ListBox_get_last_elementpointed>
    92ca:	80 93 5e 0a 	sts	0x0A5E, r24	; 0x800a5e <DB_LastElemPointed>
    92ce:	e0 91 fb 07 	lds	r30, 0x07FB	; 0x8007fb <thisps+0x1>
    92d2:	0e 2e       	mov	r0, r30
    92d4:	00 0c       	add	r0, r0
    92d6:	ff 0b       	sbc	r31, r31
    92d8:	eb 58       	subi	r30, 0x8B	; 139
    92da:	f8 4f       	sbci	r31, 0xF8	; 248
    92dc:	00 e0       	ldi	r16, 0x00	; 0
    92de:	2c e0       	ldi	r18, 0x0C	; 12
    92e0:	4d e3       	ldi	r20, 0x3D	; 61
    92e2:	60 81       	ld	r22, Z
    92e4:	81 e4       	ldi	r24, 0x41	; 65
    92e6:	0e 94 61 28 	call	0x50c2	; 0x50c2 <ks0108FillRect>
    92ea:	e0 91 fb 07 	lds	r30, 0x07FB	; 0x8007fb <thisps+0x1>
    92ee:	0e 2e       	mov	r0, r30
    92f0:	00 0c       	add	r0, r0
    92f2:	ff 0b       	sbc	r31, r31
    92f4:	eb 58       	subi	r30, 0x8B	; 139
    92f6:	f8 4f       	sbci	r31, 0xF8	; 248
    92f8:	60 81       	ld	r22, Z
    92fa:	82 e4       	ldi	r24, 0x42	; 66
    92fc:	0e 94 da 25 	call	0x4bb4	; 0x4bb4 <ks0108GotoXY>
    9300:	20 91 5e 0a 	lds	r18, 0x0A5E	; 0x800a5e <DB_LastElemPointed>
    9304:	e0 91 5f 0a 	lds	r30, 0x0A5F	; 0x800a5f <CountDBpointed>
    9308:	f0 e0       	ldi	r31, 0x00	; 0
    930a:	ee 0f       	add	r30, r30
    930c:	ff 1f       	adc	r31, r31
    930e:	e4 58       	subi	r30, 0x84	; 132
    9310:	f8 4f       	sbci	r31, 0xF8	; 248
    9312:	80 81       	ld	r24, Z
    9314:	91 81       	ldd	r25, Z+1	; 0x01
    9316:	3b e0       	ldi	r19, 0x0B	; 11
    9318:	23 9f       	mul	r18, r19
    931a:	80 0d       	add	r24, r0
    931c:	91 1d       	adc	r25, r1
    931e:	11 24       	eor	r1, r1
    9320:	0e 94 11 2c 	call	0x5822	; 0x5822 <ks0108Puts_P>
    9324:	80 91 60 0a 	lds	r24, 0x0A60	; 0x800a60 <Schedule_ChooseFromList>
    9328:	84 30       	cpi	r24, 0x04	; 4
    932a:	09 f0       	breq	.+2      	; 0x932e <key3_1fmode2+0x8c>
    932c:	40 c0       	rjmp	.+128    	; 0x93ae <key3_1fmode2+0x10c>
    932e:	10 91 5e 0a 	lds	r17, 0x0A5E	; 0x800a5e <DB_LastElemPointed>
    9332:	c0 91 fa 07 	lds	r28, 0x07FA	; 0x8007fa <thisps>
    9336:	80 91 fb 07 	lds	r24, 0x07FB	; 0x8007fb <thisps+0x1>
    933a:	95 e0       	ldi	r25, 0x05	; 5
    933c:	c9 9f       	mul	r28, r25
    933e:	e0 01       	movw	r28, r0
    9340:	11 24       	eor	r1, r1
    9342:	c8 0f       	add	r28, r24
    9344:	d1 1d       	adc	r29, r1
    9346:	cc 0f       	add	r28, r28
    9348:	dd 1f       	adc	r29, r29
    934a:	60 91 61 0a 	lds	r22, 0x0A61	; 0x800a61 <DB_LastPointed>
    934e:	ce 01       	movw	r24, r28
    9350:	80 50       	subi	r24, 0x00	; 0
    9352:	9c 4f       	sbci	r25, 0xFC	; 252
    9354:	0e 94 22 11 	call	0x2244	; 0x2244 <EEPROM_WriteByte>
    9358:	61 2f       	mov	r22, r17
    935a:	ce 01       	movw	r24, r28
    935c:	8f 5f       	subi	r24, 0xFF	; 255
    935e:	9b 4f       	sbci	r25, 0xFB	; 251
    9360:	0e 94 22 11 	call	0x2244	; 0x2244 <EEPROM_WriteByte>
    9364:	00 e0       	ldi	r16, 0x00	; 0
    9366:	2a e1       	ldi	r18, 0x1A	; 26
    9368:	4d e3       	ldi	r20, 0x3D	; 61
    936a:	61 e0       	ldi	r22, 0x01	; 1
    936c:	81 e0       	ldi	r24, 0x01	; 1
    936e:	0e 94 61 28 	call	0x50c2	; 0x50c2 <ks0108FillRect>
    9372:	6e e0       	ldi	r22, 0x0E	; 14
    9374:	85 e0       	ldi	r24, 0x05	; 5
    9376:	0e 94 da 25 	call	0x4bb4	; 0x4bb4 <ks0108GotoXY>
    937a:	83 ef       	ldi	r24, 0xF3	; 243
    937c:	95 e1       	ldi	r25, 0x15	; 21
    937e:	0e 94 11 2c 	call	0x5822	; 0x5822 <ks0108Puts_P>
    9382:	2f ef       	ldi	r18, 0xFF	; 255
    9384:	39 e6       	ldi	r19, 0x69	; 105
    9386:	88 e1       	ldi	r24, 0x18	; 24
    9388:	21 50       	subi	r18, 0x01	; 1
    938a:	30 40       	sbci	r19, 0x00	; 0
    938c:	80 40       	sbci	r24, 0x00	; 0
    938e:	e1 f7       	brne	.-8      	; 0x9388 <key3_1fmode2+0xe6>
    9390:	00 c0       	rjmp	.+0      	; 0x9392 <key3_1fmode2+0xf0>
    9392:	00 00       	nop
    9394:	0e 94 90 46 	call	0x8d20	; 0x8d20 <return_to_mode0>
    9398:	4f e1       	ldi	r20, 0x1F	; 31
    939a:	6f e1       	ldi	r22, 0x1F	; 31
    939c:	8f e9       	ldi	r24, 0x9F	; 159
    939e:	0e 94 02 1c 	call	0x3804	; 0x3804 <ClearFromCenter_GrowingSymmetric>
    93a2:	60 91 fb 07 	lds	r22, 0x07FB	; 0x8007fb <thisps+0x1>
    93a6:	80 91 fa 07 	lds	r24, 0x07FA	; 0x8007fa <thisps>
    93aa:	0e 94 e8 48 	call	0x91d0	; 0x91d0 <InitializeEnter_SettingNameToZone>
    93ae:	80 91 60 0a 	lds	r24, 0x0A60	; 0x800a60 <Schedule_ChooseFromList>
    93b2:	85 30       	cpi	r24, 0x05	; 5
    93b4:	69 f4       	brne	.+26     	; 0x93d0 <key3_1fmode2+0x12e>
    93b6:	0e 94 90 46 	call	0x8d20	; 0x8d20 <return_to_mode0>
    93ba:	4f e1       	ldi	r20, 0x1F	; 31
    93bc:	6f e1       	ldi	r22, 0x1F	; 31
    93be:	8f e9       	ldi	r24, 0x9F	; 159
    93c0:	0e 94 02 1c 	call	0x3804	; 0x3804 <ClearFromCenter_GrowingSymmetric>
    93c4:	60 91 fb 07 	lds	r22, 0x07FB	; 0x8007fb <thisps+0x1>
    93c8:	80 91 fa 07 	lds	r24, 0x07FA	; 0x8007fa <thisps>
    93cc:	0e 94 e8 48 	call	0x91d0	; 0x91d0 <InitializeEnter_SettingNameToZone>
    93d0:	80 91 60 0a 	lds	r24, 0x0A60	; 0x800a60 <Schedule_ChooseFromList>
    93d4:	86 30       	cpi	r24, 0x06	; 6
    93d6:	51 f4       	brne	.+20     	; 0x93ec <key3_1fmode2+0x14a>
    93d8:	82 e0       	ldi	r24, 0x02	; 2
    93da:	80 93 10 0a 	sts	0x0A10, r24	; 0x800a10 <shell>
    93de:	10 92 fd 07 	sts	0x07FD, r1	; 0x8007fd <thisps+0x3>
    93e2:	10 92 fe 07 	sts	0x07FE, r1	; 0x8007fe <thisps+0x4>
    93e6:	83 e0       	ldi	r24, 0x03	; 3
    93e8:	80 93 69 08 	sts	0x0869, r24	; 0x800869 <kbhandler_app>
    93ec:	df 91       	pop	r29
    93ee:	cf 91       	pop	r28
    93f0:	1f 91       	pop	r17
    93f2:	0f 91       	pop	r16
    93f4:	08 95       	ret

000093f6 <key3_1fmode2_aft>:
    93f6:	0c 94 51 49 	jmp	0x92a2	; 0x92a2 <key3_1fmode2>

000093fa <SettingNameToZone>:
    93fa:	cf 92       	push	r12
    93fc:	ef 92       	push	r14
    93fe:	ff 92       	push	r15
    9400:	0f 93       	push	r16
    9402:	80 91 fd 07 	lds	r24, 0x07FD	; 0x8007fd <thisps+0x3>
    9406:	81 11       	cpse	r24, r1
    9408:	47 c0       	rjmp	.+142    	; 0x9498 <SettingNameToZone+0x9e>
    940a:	80 91 fe 07 	lds	r24, 0x07FE	; 0x8007fe <thisps+0x4>
    940e:	81 11       	cpse	r24, r1
    9410:	3e c0       	rjmp	.+124    	; 0x948e <SettingNameToZone+0x94>
    9412:	81 e0       	ldi	r24, 0x01	; 1
    9414:	80 93 fe 07 	sts	0x07FE, r24	; 0x8007fe <thisps+0x4>
    9418:	00 e0       	ldi	r16, 0x00	; 0
    941a:	2f e3       	ldi	r18, 0x3F	; 63
    941c:	4f eb       	ldi	r20, 0xBF	; 191
    941e:	60 e0       	ldi	r22, 0x00	; 0
    9420:	80 e0       	ldi	r24, 0x00	; 0
    9422:	0e 94 61 28 	call	0x50c2	; 0x50c2 <ks0108FillRect>
    9426:	0f ef       	ldi	r16, 0xFF	; 255
    9428:	2f e3       	ldi	r18, 0x3F	; 63
    942a:	4f eb       	ldi	r20, 0xBF	; 191
    942c:	60 e0       	ldi	r22, 0x00	; 0
    942e:	80 e0       	ldi	r24, 0x00	; 0
    9430:	0e 94 f4 28 	call	0x51e8	; 0x51e8 <ks0108DrawRect>
    9434:	2f e3       	ldi	r18, 0x3F	; 63
    9436:	40 e0       	ldi	r20, 0x00	; 0
    9438:	60 e0       	ldi	r22, 0x00	; 0
    943a:	8f e3       	ldi	r24, 0x3F	; 63
    943c:	0e 94 f4 28 	call	0x51e8	; 0x51e8 <ks0108DrawRect>
    9440:	2f e3       	ldi	r18, 0x3F	; 63
    9442:	40 e0       	ldi	r20, 0x00	; 0
    9444:	60 e0       	ldi	r22, 0x00	; 0
    9446:	80 e8       	ldi	r24, 0x80	; 128
    9448:	0e 94 f4 28 	call	0x51e8	; 0x51e8 <ks0108DrawRect>
    944c:	10 92 fa 07 	sts	0x07FA, r1	; 0x8007fa <thisps>
    9450:	10 92 fb 07 	sts	0x07FB, r1	; 0x8007fb <thisps+0x1>
    9454:	60 e0       	ldi	r22, 0x00	; 0
    9456:	80 e0       	ldi	r24, 0x00	; 0
    9458:	0e 94 e8 48 	call	0x91d0	; 0x91d0 <InitializeEnter_SettingNameToZone>
    945c:	8d e0       	ldi	r24, 0x0D	; 13
    945e:	c8 2e       	mov	r12, r24
    9460:	96 e0       	ldi	r25, 0x06	; 6
    9462:	e9 2e       	mov	r14, r25
    9464:	90 e1       	ldi	r25, 0x10	; 16
    9466:	f9 2e       	mov	r15, r25
    9468:	0f e3       	ldi	r16, 0x3F	; 63
    946a:	2f e3       	ldi	r18, 0x3F	; 63
    946c:	40 e0       	ldi	r20, 0x00	; 0
    946e:	60 e8       	ldi	r22, 0x80	; 128
    9470:	82 e0       	ldi	r24, 0x02	; 2
    9472:	9a e0       	ldi	r25, 0x0A	; 10
    9474:	0e 94 50 3e 	call	0x7ca0	; 0x7ca0 <ListBox_init_dimension>
    9478:	82 e0       	ldi	r24, 0x02	; 2
    947a:	9a e0       	ldi	r25, 0x0A	; 10
    947c:	0e 94 66 3e 	call	0x7ccc	; 0x7ccc <ListBox_create_box>
    9480:	10 92 fc 07 	sts	0x07FC, r1	; 0x8007fc <thisps+0x2>
    9484:	60 e0       	ldi	r22, 0x00	; 0
    9486:	85 ef       	ldi	r24, 0xF5	; 245
    9488:	96 e0       	ldi	r25, 0x06	; 6
    948a:	0e 94 b8 24 	call	0x4970	; 0x4970 <change_operating_mode>
    948e:	8f ef       	ldi	r24, 0xFF	; 255
    9490:	80 93 fd 07 	sts	0x07FD, r24	; 0x8007fd <thisps+0x3>
    9494:	10 92 fe 07 	sts	0x07FE, r1	; 0x8007fe <thisps+0x4>
    9498:	80 91 fd 07 	lds	r24, 0x07FD	; 0x8007fd <thisps+0x3>
    949c:	81 30       	cpi	r24, 0x01	; 1
    949e:	09 f0       	breq	.+2      	; 0x94a2 <SettingNameToZone+0xa8>
    94a0:	3f c0       	rjmp	.+126    	; 0x9520 <SettingNameToZone+0x126>
    94a2:	90 91 fe 07 	lds	r25, 0x07FE	; 0x8007fe <thisps+0x4>
    94a6:	91 11       	cpse	r25, r1
    94a8:	14 c0       	rjmp	.+40     	; 0x94d2 <SettingNameToZone+0xd8>
    94aa:	80 93 fe 07 	sts	0x07FE, r24	; 0x8007fe <thisps+0x4>
    94ae:	4f e1       	ldi	r20, 0x1F	; 31
    94b0:	6f e1       	ldi	r22, 0x1F	; 31
    94b2:	8f e1       	ldi	r24, 0x1F	; 31
    94b4:	0e 94 02 1c 	call	0x3804	; 0x3804 <ClearFromCenter_GrowingSymmetric>
    94b8:	69 e1       	ldi	r22, 0x19	; 25
    94ba:	81 e1       	ldi	r24, 0x11	; 17
    94bc:	0e 94 da 25 	call	0x4bb4	; 0x4bb4 <ks0108GotoXY>
    94c0:	81 e3       	ldi	r24, 0x31	; 49
    94c2:	96 e1       	ldi	r25, 0x16	; 22
    94c4:	0e 94 11 2c 	call	0x5822	; 0x5822 <ks0108Puts_P>
    94c8:	40 e0       	ldi	r20, 0x00	; 0
    94ca:	62 e0       	ldi	r22, 0x02	; 2
    94cc:	82 e0       	ldi	r24, 0x02	; 2
    94ce:	0e 94 e6 3d 	call	0x7bcc	; 0x7bcc <dialogbox_sino>
    94d2:	80 91 fe 07 	lds	r24, 0x07FE	; 0x8007fe <thisps+0x4>
    94d6:	81 30       	cpi	r24, 0x01	; 1
    94d8:	19 f5       	brne	.+70     	; 0x9520 <SettingNameToZone+0x126>
    94da:	80 91 6a 06 	lds	r24, 0x066A	; 0x80066a <dialogbox_nb+0x3>
    94de:	87 fd       	sbrc	r24, 7
    94e0:	1f c0       	rjmp	.+62     	; 0x9520 <SettingNameToZone+0x126>
    94e2:	80 91 6a 06 	lds	r24, 0x066A	; 0x80066a <dialogbox_nb+0x3>
    94e6:	81 30       	cpi	r24, 0x01	; 1
    94e8:	41 f4       	brne	.+16     	; 0x94fa <SettingNameToZone+0x100>
    94ea:	82 e0       	ldi	r24, 0x02	; 2
    94ec:	80 93 10 0a 	sts	0x0A10, r24	; 0x800a10 <shell>
    94f0:	10 92 fd 07 	sts	0x07FD, r1	; 0x8007fd <thisps+0x3>
    94f4:	10 92 fe 07 	sts	0x07FE, r1	; 0x8007fe <thisps+0x4>
    94f8:	10 c0       	rjmp	.+32     	; 0x951a <SettingNameToZone+0x120>
    94fa:	80 91 6a 06 	lds	r24, 0x066A	; 0x80066a <dialogbox_nb+0x3>
    94fe:	88 23       	and	r24, r24
    9500:	21 f0       	breq	.+8      	; 0x950a <SettingNameToZone+0x110>
    9502:	80 91 6a 06 	lds	r24, 0x066A	; 0x80066a <dialogbox_nb+0x3>
    9506:	83 30       	cpi	r24, 0x03	; 3
    9508:	59 f4       	brne	.+22     	; 0x9520 <SettingNameToZone+0x126>
    950a:	0e 94 90 46 	call	0x8d20	; 0x8d20 <return_to_mode0>
    950e:	60 91 fb 07 	lds	r22, 0x07FB	; 0x8007fb <thisps+0x1>
    9512:	80 91 fa 07 	lds	r24, 0x07FA	; 0x8007fa <thisps>
    9516:	0e 94 e8 48 	call	0x91d0	; 0x91d0 <InitializeEnter_SettingNameToZone>
    951a:	8f ef       	ldi	r24, 0xFF	; 255
    951c:	80 93 6a 06 	sts	0x066A, r24	; 0x80066a <dialogbox_nb+0x3>
    9520:	0f 91       	pop	r16
    9522:	ff 90       	pop	r15
    9524:	ef 90       	pop	r14
    9526:	cf 90       	pop	r12
    9528:	08 95       	ret

0000952a <FindAndPrintNameOfZone>:
    952a:	9f 92       	push	r9
    952c:	af 92       	push	r10
    952e:	bf 92       	push	r11
    9530:	cf 92       	push	r12
    9532:	df 92       	push	r13
    9534:	ef 92       	push	r14
    9536:	ff 92       	push	r15
    9538:	0f 93       	push	r16
    953a:	1f 93       	push	r17
    953c:	cf 93       	push	r28
    953e:	df 93       	push	r29
    9540:	e8 2e       	mov	r14, r24
    9542:	d6 2f       	mov	r29, r22
    9544:	4f ef       	ldi	r20, 0xFF	; 255
    9546:	64 e4       	ldi	r22, 0x44	; 68
    9548:	75 e2       	ldi	r23, 0x25	; 37
    954a:	86 e0       	ldi	r24, 0x06	; 6
    954c:	90 e1       	ldi	r25, 0x10	; 16
    954e:	0e 94 47 25 	call	0x4a8e	; 0x4a8e <ks0108SelectFont>
    9552:	2a e0       	ldi	r18, 0x0A	; 10
    9554:	e2 9e       	mul	r14, r18
    9556:	70 01       	movw	r14, r0
    9558:	11 24       	eor	r1, r1
    955a:	00 e0       	ldi	r16, 0x00	; 0
    955c:	10 e0       	ldi	r17, 0x00	; 0
    955e:	c0 e0       	ldi	r28, 0x00	; 0
    9560:	67 01       	movw	r12, r14
    9562:	8f ef       	ldi	r24, 0xFF	; 255
    9564:	c8 1a       	sub	r12, r24
    9566:	d8 0a       	sbc	r13, r24
    9568:	de 5f       	subi	r29, 0xFE	; 254
    956a:	c7 01       	movw	r24, r14
    956c:	80 0f       	add	r24, r16
    956e:	91 1f       	adc	r25, r17
    9570:	80 50       	subi	r24, 0x00	; 0
    9572:	9c 4f       	sbci	r25, 0xFC	; 252
    9574:	0e 94 46 11 	call	0x228c	; 0x228c <EEPROM_ReadByte>
    9578:	98 2e       	mov	r9, r24
    957a:	c6 01       	movw	r24, r12
    957c:	80 0f       	add	r24, r16
    957e:	91 1f       	adc	r25, r17
    9580:	80 50       	subi	r24, 0x00	; 0
    9582:	9c 4f       	sbci	r25, 0xFC	; 252
    9584:	0e 94 46 11 	call	0x228c	; 0x228c <EEPROM_ReadByte>
    9588:	b8 2e       	mov	r11, r24
    958a:	88 23       	and	r24, r24
    958c:	d9 f0       	breq	.+54     	; 0x95c4 <FindAndPrintNameOfZone+0x9a>
    958e:	aa 24       	eor	r10, r10
    9590:	a3 94       	inc	r10
    9592:	ac 0e       	add	r10, r28
    9594:	ec 2f       	mov	r30, r28
    9596:	f0 e0       	ldi	r31, 0x00	; 0
    9598:	eb 58       	subi	r30, 0x8B	; 139
    959a:	f8 4f       	sbci	r31, 0xF8	; 248
    959c:	60 81       	ld	r22, Z
    959e:	8d 2f       	mov	r24, r29
    95a0:	0e 94 da 25 	call	0x4bb4	; 0x4bb4 <ks0108GotoXY>
    95a4:	e9 2d       	mov	r30, r9
    95a6:	f0 e0       	ldi	r31, 0x00	; 0
    95a8:	ee 0f       	add	r30, r30
    95aa:	ff 1f       	adc	r31, r31
    95ac:	e4 58       	subi	r30, 0x84	; 132
    95ae:	f8 4f       	sbci	r31, 0xF8	; 248
    95b0:	80 81       	ld	r24, Z
    95b2:	91 81       	ldd	r25, Z+1	; 0x01
    95b4:	2b e0       	ldi	r18, 0x0B	; 11
    95b6:	b2 9e       	mul	r11, r18
    95b8:	80 0d       	add	r24, r0
    95ba:	91 1d       	adc	r25, r1
    95bc:	11 24       	eor	r1, r1
    95be:	0e 94 11 2c 	call	0x5822	; 0x5822 <ks0108Puts_P>
    95c2:	ca 2d       	mov	r28, r10
    95c4:	0e 5f       	subi	r16, 0xFE	; 254
    95c6:	1f 4f       	sbci	r17, 0xFF	; 255
    95c8:	06 30       	cpi	r16, 0x06	; 6
    95ca:	11 05       	cpc	r17, r1
    95cc:	71 f6       	brne	.-100    	; 0x956a <FindAndPrintNameOfZone+0x40>
    95ce:	df 91       	pop	r29
    95d0:	cf 91       	pop	r28
    95d2:	1f 91       	pop	r17
    95d4:	0f 91       	pop	r16
    95d6:	ff 90       	pop	r15
    95d8:	ef 90       	pop	r14
    95da:	df 90       	pop	r13
    95dc:	cf 90       	pop	r12
    95de:	bf 90       	pop	r11
    95e0:	af 90       	pop	r10
    95e2:	9f 90       	pop	r9
    95e4:	08 95       	ret

000095e6 <CopyObjZONEeepToObjZONEram>:
    95e6:	af 92       	push	r10
    95e8:	bf 92       	push	r11
    95ea:	cf 92       	push	r12
    95ec:	df 92       	push	r13
    95ee:	ef 92       	push	r14
    95f0:	ff 92       	push	r15
    95f2:	0f 93       	push	r16
    95f4:	1f 93       	push	r17
    95f6:	cf 93       	push	r28
    95f8:	df 93       	push	r29
    95fa:	9a e0       	ldi	r25, 0x0A	; 10
    95fc:	89 9f       	mul	r24, r25
    95fe:	e0 01       	movw	r28, r0
    9600:	11 24       	eor	r1, r1
    9602:	c0 50       	subi	r28, 0x00	; 0
    9604:	dc 4f       	sbci	r29, 0xFC	; 252
    9606:	a1 2c       	mov	r10, r1
    9608:	b1 2c       	mov	r11, r1
    960a:	c8 2e       	mov	r12, r24
    960c:	d1 2c       	mov	r13, r1
    960e:	e2 e1       	ldi	r30, 0x12	; 18
    9610:	8e 9f       	mul	r24, r30
    9612:	70 01       	movw	r14, r0
    9614:	11 24       	eor	r1, r1
    9616:	ce 01       	movw	r24, r28
    9618:	0e 94 46 11 	call	0x228c	; 0x228c <EEPROM_ReadByte>
    961c:	87 01       	movw	r16, r14
    961e:	0a 0d       	add	r16, r10
    9620:	1b 1d       	adc	r17, r11
    9622:	00 0f       	add	r16, r16
    9624:	11 1f       	adc	r17, r17
    9626:	0e 59       	subi	r16, 0x9E	; 158
    9628:	15 4f       	sbci	r17, 0xF5	; 245
    962a:	f8 01       	movw	r30, r16
    962c:	80 83       	st	Z, r24
    962e:	ce 01       	movw	r24, r28
    9630:	01 96       	adiw	r24, 0x01	; 1
    9632:	0e 94 46 11 	call	0x228c	; 0x228c <EEPROM_ReadByte>
    9636:	f8 01       	movw	r30, r16
    9638:	81 83       	std	Z+1, r24	; 0x01
    963a:	ff ef       	ldi	r31, 0xFF	; 255
    963c:	af 1a       	sub	r10, r31
    963e:	bf 0a       	sbc	r11, r31
    9640:	22 96       	adiw	r28, 0x02	; 2
    9642:	83 e0       	ldi	r24, 0x03	; 3
    9644:	a8 16       	cp	r10, r24
    9646:	b1 04       	cpc	r11, r1
    9648:	31 f7       	brne	.-52     	; 0x9616 <CopyObjZONEeepToObjZONEram+0x30>
    964a:	8a e0       	ldi	r24, 0x0A	; 10
    964c:	8c 9d       	mul	r24, r12
    964e:	80 01       	movw	r16, r0
    9650:	8d 9d       	mul	r24, r13
    9652:	10 0d       	add	r17, r0
    9654:	11 24       	eor	r1, r1
    9656:	c8 01       	movw	r24, r16
    9658:	8a 5f       	subi	r24, 0xFA	; 250
    965a:	9b 4f       	sbci	r25, 0xFB	; 251
    965c:	0e 94 46 11 	call	0x228c	; 0x228c <EEPROM_ReadByte>
    9660:	94 e2       	ldi	r25, 0x24	; 36
    9662:	9c 9d       	mul	r25, r12
    9664:	e0 01       	movw	r28, r0
    9666:	9d 9d       	mul	r25, r13
    9668:	d0 0d       	add	r29, r0
    966a:	11 24       	eor	r1, r1
    966c:	ce 59       	subi	r28, 0x9E	; 158
    966e:	d5 4f       	sbci	r29, 0xF5	; 245
    9670:	8e 83       	std	Y+6, r24	; 0x06
    9672:	c8 01       	movw	r24, r16
    9674:	89 5f       	subi	r24, 0xF9	; 249
    9676:	9b 4f       	sbci	r25, 0xFB	; 251
    9678:	0e 94 46 11 	call	0x228c	; 0x228c <EEPROM_ReadByte>
    967c:	8f 83       	std	Y+7, r24	; 0x07
    967e:	df 91       	pop	r29
    9680:	cf 91       	pop	r28
    9682:	1f 91       	pop	r17
    9684:	0f 91       	pop	r16
    9686:	ff 90       	pop	r15
    9688:	ef 90       	pop	r14
    968a:	df 90       	pop	r13
    968c:	cf 90       	pop	r12
    968e:	bf 90       	pop	r11
    9690:	af 90       	pop	r10
    9692:	08 95       	ret

00009694 <InitZone>:
    9694:	cf 93       	push	r28
    9696:	c8 2f       	mov	r28, r24
    9698:	0e 94 f3 4a 	call	0x95e6	; 0x95e6 <CopyObjZONEeepToObjZONEram>
    969c:	84 e2       	ldi	r24, 0x24	; 36
    969e:	c8 9f       	mul	r28, r24
    96a0:	f0 01       	movw	r30, r0
    96a2:	11 24       	eor	r1, r1
    96a4:	ee 59       	subi	r30, 0x9E	; 158
    96a6:	f5 4f       	sbci	r31, 0xF5	; 245
    96a8:	81 e0       	ldi	r24, 0x01	; 1
    96aa:	90 e0       	ldi	r25, 0x00	; 0
    96ac:	96 8f       	std	Z+30, r25	; 0x1e
    96ae:	85 8f       	std	Z+29, r24	; 0x1d
    96b0:	80 e8       	ldi	r24, 0x80	; 128
    96b2:	9c e0       	ldi	r25, 0x0C	; 12
    96b4:	94 8f       	std	Z+28, r25	; 0x1c
    96b6:	83 8f       	std	Z+27, r24	; 0x1b
    96b8:	cf 91       	pop	r28
    96ba:	08 95       	ret

000096bc <InitZones>:
    96bc:	cf 93       	push	r28
    96be:	c0 e0       	ldi	r28, 0x00	; 0
    96c0:	8c 2f       	mov	r24, r28
    96c2:	0e 94 4a 4b 	call	0x9694	; 0x9694 <InitZone>
    96c6:	cf 5f       	subi	r28, 0xFF	; 255
    96c8:	c6 30       	cpi	r28, 0x06	; 6
    96ca:	d1 f7       	brne	.-12     	; 0x96c0 <InitZones+0x4>
    96cc:	cf 91       	pop	r28
    96ce:	08 95       	ret

000096d0 <vfprintf>:
    96d0:	2f 92       	push	r2
    96d2:	3f 92       	push	r3
    96d4:	4f 92       	push	r4
    96d6:	5f 92       	push	r5
    96d8:	6f 92       	push	r6
    96da:	7f 92       	push	r7
    96dc:	8f 92       	push	r8
    96de:	9f 92       	push	r9
    96e0:	af 92       	push	r10
    96e2:	bf 92       	push	r11
    96e4:	cf 92       	push	r12
    96e6:	df 92       	push	r13
    96e8:	ef 92       	push	r14
    96ea:	ff 92       	push	r15
    96ec:	0f 93       	push	r16
    96ee:	1f 93       	push	r17
    96f0:	cf 93       	push	r28
    96f2:	df 93       	push	r29
    96f4:	cd b7       	in	r28, 0x3d	; 61
    96f6:	de b7       	in	r29, 0x3e	; 62
    96f8:	60 97       	sbiw	r28, 0x10	; 16
    96fa:	0f b6       	in	r0, 0x3f	; 63
    96fc:	f8 94       	cli
    96fe:	de bf       	out	0x3e, r29	; 62
    9700:	0f be       	out	0x3f, r0	; 63
    9702:	cd bf       	out	0x3d, r28	; 61
    9704:	7c 01       	movw	r14, r24
    9706:	1b 01       	movw	r2, r22
    9708:	6a 01       	movw	r12, r20
    970a:	fc 01       	movw	r30, r24
    970c:	17 82       	std	Z+7, r1	; 0x07
    970e:	16 82       	std	Z+6, r1	; 0x06
    9710:	83 81       	ldd	r24, Z+3	; 0x03
    9712:	81 ff       	sbrs	r24, 1
    9714:	44 c3       	rjmp	.+1672   	; 0x9d9e <vfprintf+0x6ce>
    9716:	9e 01       	movw	r18, r28
    9718:	2f 5f       	subi	r18, 0xFF	; 255
    971a:	3f 4f       	sbci	r19, 0xFF	; 255
    971c:	39 01       	movw	r6, r18
    971e:	f7 01       	movw	r30, r14
    9720:	93 81       	ldd	r25, Z+3	; 0x03
    9722:	f1 01       	movw	r30, r2
    9724:	93 fd       	sbrc	r25, 3
    9726:	85 91       	lpm	r24, Z+
    9728:	93 ff       	sbrs	r25, 3
    972a:	81 91       	ld	r24, Z+
    972c:	1f 01       	movw	r2, r30
    972e:	88 23       	and	r24, r24
    9730:	09 f4       	brne	.+2      	; 0x9734 <vfprintf+0x64>
    9732:	31 c3       	rjmp	.+1634   	; 0x9d96 <vfprintf+0x6c6>
    9734:	85 32       	cpi	r24, 0x25	; 37
    9736:	39 f4       	brne	.+14     	; 0x9746 <vfprintf+0x76>
    9738:	93 fd       	sbrc	r25, 3
    973a:	85 91       	lpm	r24, Z+
    973c:	93 ff       	sbrs	r25, 3
    973e:	81 91       	ld	r24, Z+
    9740:	1f 01       	movw	r2, r30
    9742:	85 32       	cpi	r24, 0x25	; 37
    9744:	39 f4       	brne	.+14     	; 0x9754 <vfprintf+0x84>
    9746:	b7 01       	movw	r22, r14
    9748:	90 e0       	ldi	r25, 0x00	; 0
    974a:	0e 94 a9 52 	call	0xa552	; 0xa552 <fputc>
    974e:	56 01       	movw	r10, r12
    9750:	65 01       	movw	r12, r10
    9752:	e5 cf       	rjmp	.-54     	; 0x971e <vfprintf+0x4e>
    9754:	10 e0       	ldi	r17, 0x00	; 0
    9756:	51 2c       	mov	r5, r1
    9758:	91 2c       	mov	r9, r1
    975a:	ff e1       	ldi	r31, 0x1F	; 31
    975c:	f9 15       	cp	r31, r9
    975e:	d8 f0       	brcs	.+54     	; 0x9796 <vfprintf+0xc6>
    9760:	8b 32       	cpi	r24, 0x2B	; 43
    9762:	79 f0       	breq	.+30     	; 0x9782 <vfprintf+0xb2>
    9764:	38 f4       	brcc	.+14     	; 0x9774 <vfprintf+0xa4>
    9766:	80 32       	cpi	r24, 0x20	; 32
    9768:	79 f0       	breq	.+30     	; 0x9788 <vfprintf+0xb8>
    976a:	83 32       	cpi	r24, 0x23	; 35
    976c:	a1 f4       	brne	.+40     	; 0x9796 <vfprintf+0xc6>
    976e:	f9 2d       	mov	r31, r9
    9770:	f0 61       	ori	r31, 0x10	; 16
    9772:	2e c0       	rjmp	.+92     	; 0x97d0 <vfprintf+0x100>
    9774:	8d 32       	cpi	r24, 0x2D	; 45
    9776:	61 f0       	breq	.+24     	; 0x9790 <vfprintf+0xc0>
    9778:	80 33       	cpi	r24, 0x30	; 48
    977a:	69 f4       	brne	.+26     	; 0x9796 <vfprintf+0xc6>
    977c:	29 2d       	mov	r18, r9
    977e:	21 60       	ori	r18, 0x01	; 1
    9780:	2d c0       	rjmp	.+90     	; 0x97dc <vfprintf+0x10c>
    9782:	39 2d       	mov	r19, r9
    9784:	32 60       	ori	r19, 0x02	; 2
    9786:	93 2e       	mov	r9, r19
    9788:	89 2d       	mov	r24, r9
    978a:	84 60       	ori	r24, 0x04	; 4
    978c:	98 2e       	mov	r9, r24
    978e:	2a c0       	rjmp	.+84     	; 0x97e4 <vfprintf+0x114>
    9790:	e9 2d       	mov	r30, r9
    9792:	e8 60       	ori	r30, 0x08	; 8
    9794:	15 c0       	rjmp	.+42     	; 0x97c0 <vfprintf+0xf0>
    9796:	97 fc       	sbrc	r9, 7
    9798:	2d c0       	rjmp	.+90     	; 0x97f4 <vfprintf+0x124>
    979a:	20 ed       	ldi	r18, 0xD0	; 208
    979c:	28 0f       	add	r18, r24
    979e:	2a 30       	cpi	r18, 0x0A	; 10
    97a0:	88 f4       	brcc	.+34     	; 0x97c4 <vfprintf+0xf4>
    97a2:	96 fe       	sbrs	r9, 6
    97a4:	06 c0       	rjmp	.+12     	; 0x97b2 <vfprintf+0xe2>
    97a6:	3a e0       	ldi	r19, 0x0A	; 10
    97a8:	13 9f       	mul	r17, r19
    97aa:	20 0d       	add	r18, r0
    97ac:	11 24       	eor	r1, r1
    97ae:	12 2f       	mov	r17, r18
    97b0:	19 c0       	rjmp	.+50     	; 0x97e4 <vfprintf+0x114>
    97b2:	8a e0       	ldi	r24, 0x0A	; 10
    97b4:	58 9e       	mul	r5, r24
    97b6:	20 0d       	add	r18, r0
    97b8:	11 24       	eor	r1, r1
    97ba:	52 2e       	mov	r5, r18
    97bc:	e9 2d       	mov	r30, r9
    97be:	e0 62       	ori	r30, 0x20	; 32
    97c0:	9e 2e       	mov	r9, r30
    97c2:	10 c0       	rjmp	.+32     	; 0x97e4 <vfprintf+0x114>
    97c4:	8e 32       	cpi	r24, 0x2E	; 46
    97c6:	31 f4       	brne	.+12     	; 0x97d4 <vfprintf+0x104>
    97c8:	96 fc       	sbrc	r9, 6
    97ca:	e5 c2       	rjmp	.+1482   	; 0x9d96 <vfprintf+0x6c6>
    97cc:	f9 2d       	mov	r31, r9
    97ce:	f0 64       	ori	r31, 0x40	; 64
    97d0:	9f 2e       	mov	r9, r31
    97d2:	08 c0       	rjmp	.+16     	; 0x97e4 <vfprintf+0x114>
    97d4:	8c 36       	cpi	r24, 0x6C	; 108
    97d6:	21 f4       	brne	.+8      	; 0x97e0 <vfprintf+0x110>
    97d8:	29 2d       	mov	r18, r9
    97da:	20 68       	ori	r18, 0x80	; 128
    97dc:	92 2e       	mov	r9, r18
    97de:	02 c0       	rjmp	.+4      	; 0x97e4 <vfprintf+0x114>
    97e0:	88 36       	cpi	r24, 0x68	; 104
    97e2:	41 f4       	brne	.+16     	; 0x97f4 <vfprintf+0x124>
    97e4:	f1 01       	movw	r30, r2
    97e6:	93 fd       	sbrc	r25, 3
    97e8:	85 91       	lpm	r24, Z+
    97ea:	93 ff       	sbrs	r25, 3
    97ec:	81 91       	ld	r24, Z+
    97ee:	1f 01       	movw	r2, r30
    97f0:	81 11       	cpse	r24, r1
    97f2:	b3 cf       	rjmp	.-154    	; 0x975a <vfprintf+0x8a>
    97f4:	9b eb       	ldi	r25, 0xBB	; 187
    97f6:	98 0f       	add	r25, r24
    97f8:	93 30       	cpi	r25, 0x03	; 3
    97fa:	20 f4       	brcc	.+8      	; 0x9804 <vfprintf+0x134>
    97fc:	99 2d       	mov	r25, r9
    97fe:	90 61       	ori	r25, 0x10	; 16
    9800:	80 5e       	subi	r24, 0xE0	; 224
    9802:	07 c0       	rjmp	.+14     	; 0x9812 <vfprintf+0x142>
    9804:	9b e9       	ldi	r25, 0x9B	; 155
    9806:	98 0f       	add	r25, r24
    9808:	93 30       	cpi	r25, 0x03	; 3
    980a:	08 f0       	brcs	.+2      	; 0x980e <vfprintf+0x13e>
    980c:	66 c1       	rjmp	.+716    	; 0x9ada <vfprintf+0x40a>
    980e:	99 2d       	mov	r25, r9
    9810:	9f 7e       	andi	r25, 0xEF	; 239
    9812:	96 ff       	sbrs	r25, 6
    9814:	16 e0       	ldi	r17, 0x06	; 6
    9816:	9f 73       	andi	r25, 0x3F	; 63
    9818:	99 2e       	mov	r9, r25
    981a:	85 36       	cpi	r24, 0x65	; 101
    981c:	19 f4       	brne	.+6      	; 0x9824 <vfprintf+0x154>
    981e:	90 64       	ori	r25, 0x40	; 64
    9820:	99 2e       	mov	r9, r25
    9822:	08 c0       	rjmp	.+16     	; 0x9834 <vfprintf+0x164>
    9824:	86 36       	cpi	r24, 0x66	; 102
    9826:	21 f4       	brne	.+8      	; 0x9830 <vfprintf+0x160>
    9828:	39 2f       	mov	r19, r25
    982a:	30 68       	ori	r19, 0x80	; 128
    982c:	93 2e       	mov	r9, r19
    982e:	02 c0       	rjmp	.+4      	; 0x9834 <vfprintf+0x164>
    9830:	11 11       	cpse	r17, r1
    9832:	11 50       	subi	r17, 0x01	; 1
    9834:	97 fe       	sbrs	r9, 7
    9836:	07 c0       	rjmp	.+14     	; 0x9846 <vfprintf+0x176>
    9838:	1c 33       	cpi	r17, 0x3C	; 60
    983a:	50 f4       	brcc	.+20     	; 0x9850 <vfprintf+0x180>
    983c:	44 24       	eor	r4, r4
    983e:	43 94       	inc	r4
    9840:	41 0e       	add	r4, r17
    9842:	27 e0       	ldi	r18, 0x07	; 7
    9844:	0b c0       	rjmp	.+22     	; 0x985c <vfprintf+0x18c>
    9846:	18 30       	cpi	r17, 0x08	; 8
    9848:	38 f0       	brcs	.+14     	; 0x9858 <vfprintf+0x188>
    984a:	27 e0       	ldi	r18, 0x07	; 7
    984c:	17 e0       	ldi	r17, 0x07	; 7
    984e:	05 c0       	rjmp	.+10     	; 0x985a <vfprintf+0x18a>
    9850:	27 e0       	ldi	r18, 0x07	; 7
    9852:	9c e3       	ldi	r25, 0x3C	; 60
    9854:	49 2e       	mov	r4, r25
    9856:	02 c0       	rjmp	.+4      	; 0x985c <vfprintf+0x18c>
    9858:	21 2f       	mov	r18, r17
    985a:	41 2c       	mov	r4, r1
    985c:	56 01       	movw	r10, r12
    985e:	84 e0       	ldi	r24, 0x04	; 4
    9860:	a8 0e       	add	r10, r24
    9862:	b1 1c       	adc	r11, r1
    9864:	f6 01       	movw	r30, r12
    9866:	60 81       	ld	r22, Z
    9868:	71 81       	ldd	r23, Z+1	; 0x01
    986a:	82 81       	ldd	r24, Z+2	; 0x02
    986c:	93 81       	ldd	r25, Z+3	; 0x03
    986e:	04 2d       	mov	r16, r4
    9870:	a3 01       	movw	r20, r6
    9872:	0e 94 b2 51 	call	0xa364	; 0xa364 <__ftoa_engine>
    9876:	6c 01       	movw	r12, r24
    9878:	f9 81       	ldd	r31, Y+1	; 0x01
    987a:	fc 87       	std	Y+12, r31	; 0x0c
    987c:	f0 ff       	sbrs	r31, 0
    987e:	02 c0       	rjmp	.+4      	; 0x9884 <vfprintf+0x1b4>
    9880:	f3 ff       	sbrs	r31, 3
    9882:	06 c0       	rjmp	.+12     	; 0x9890 <vfprintf+0x1c0>
    9884:	91 fc       	sbrc	r9, 1
    9886:	06 c0       	rjmp	.+12     	; 0x9894 <vfprintf+0x1c4>
    9888:	92 fe       	sbrs	r9, 2
    988a:	06 c0       	rjmp	.+12     	; 0x9898 <vfprintf+0x1c8>
    988c:	00 e2       	ldi	r16, 0x20	; 32
    988e:	05 c0       	rjmp	.+10     	; 0x989a <vfprintf+0x1ca>
    9890:	0d e2       	ldi	r16, 0x2D	; 45
    9892:	03 c0       	rjmp	.+6      	; 0x989a <vfprintf+0x1ca>
    9894:	0b e2       	ldi	r16, 0x2B	; 43
    9896:	01 c0       	rjmp	.+2      	; 0x989a <vfprintf+0x1ca>
    9898:	00 e0       	ldi	r16, 0x00	; 0
    989a:	8c 85       	ldd	r24, Y+12	; 0x0c
    989c:	8c 70       	andi	r24, 0x0C	; 12
    989e:	19 f0       	breq	.+6      	; 0x98a6 <vfprintf+0x1d6>
    98a0:	01 11       	cpse	r16, r1
    98a2:	5a c2       	rjmp	.+1204   	; 0x9d58 <vfprintf+0x688>
    98a4:	9b c2       	rjmp	.+1334   	; 0x9ddc <vfprintf+0x70c>
    98a6:	97 fe       	sbrs	r9, 7
    98a8:	10 c0       	rjmp	.+32     	; 0x98ca <vfprintf+0x1fa>
    98aa:	4c 0c       	add	r4, r12
    98ac:	fc 85       	ldd	r31, Y+12	; 0x0c
    98ae:	f4 ff       	sbrs	r31, 4
    98b0:	04 c0       	rjmp	.+8      	; 0x98ba <vfprintf+0x1ea>
    98b2:	8a 81       	ldd	r24, Y+2	; 0x02
    98b4:	81 33       	cpi	r24, 0x31	; 49
    98b6:	09 f4       	brne	.+2      	; 0x98ba <vfprintf+0x1ea>
    98b8:	4a 94       	dec	r4
    98ba:	14 14       	cp	r1, r4
    98bc:	74 f5       	brge	.+92     	; 0x991a <vfprintf+0x24a>
    98be:	28 e0       	ldi	r18, 0x08	; 8
    98c0:	24 15       	cp	r18, r4
    98c2:	78 f5       	brcc	.+94     	; 0x9922 <vfprintf+0x252>
    98c4:	88 e0       	ldi	r24, 0x08	; 8
    98c6:	48 2e       	mov	r4, r24
    98c8:	2c c0       	rjmp	.+88     	; 0x9922 <vfprintf+0x252>
    98ca:	96 fc       	sbrc	r9, 6
    98cc:	2a c0       	rjmp	.+84     	; 0x9922 <vfprintf+0x252>
    98ce:	81 2f       	mov	r24, r17
    98d0:	90 e0       	ldi	r25, 0x00	; 0
    98d2:	8c 15       	cp	r24, r12
    98d4:	9d 05       	cpc	r25, r13
    98d6:	9c f0       	brlt	.+38     	; 0x98fe <vfprintf+0x22e>
    98d8:	3c ef       	ldi	r19, 0xFC	; 252
    98da:	c3 16       	cp	r12, r19
    98dc:	3f ef       	ldi	r19, 0xFF	; 255
    98de:	d3 06       	cpc	r13, r19
    98e0:	74 f0       	brlt	.+28     	; 0x98fe <vfprintf+0x22e>
    98e2:	89 2d       	mov	r24, r9
    98e4:	80 68       	ori	r24, 0x80	; 128
    98e6:	98 2e       	mov	r9, r24
    98e8:	0a c0       	rjmp	.+20     	; 0x98fe <vfprintf+0x22e>
    98ea:	e2 e0       	ldi	r30, 0x02	; 2
    98ec:	f0 e0       	ldi	r31, 0x00	; 0
    98ee:	ec 0f       	add	r30, r28
    98f0:	fd 1f       	adc	r31, r29
    98f2:	e1 0f       	add	r30, r17
    98f4:	f1 1d       	adc	r31, r1
    98f6:	80 81       	ld	r24, Z
    98f8:	80 33       	cpi	r24, 0x30	; 48
    98fa:	19 f4       	brne	.+6      	; 0x9902 <vfprintf+0x232>
    98fc:	11 50       	subi	r17, 0x01	; 1
    98fe:	11 11       	cpse	r17, r1
    9900:	f4 cf       	rjmp	.-24     	; 0x98ea <vfprintf+0x21a>
    9902:	97 fe       	sbrs	r9, 7
    9904:	0e c0       	rjmp	.+28     	; 0x9922 <vfprintf+0x252>
    9906:	44 24       	eor	r4, r4
    9908:	43 94       	inc	r4
    990a:	41 0e       	add	r4, r17
    990c:	81 2f       	mov	r24, r17
    990e:	90 e0       	ldi	r25, 0x00	; 0
    9910:	c8 16       	cp	r12, r24
    9912:	d9 06       	cpc	r13, r25
    9914:	2c f4       	brge	.+10     	; 0x9920 <vfprintf+0x250>
    9916:	1c 19       	sub	r17, r12
    9918:	04 c0       	rjmp	.+8      	; 0x9922 <vfprintf+0x252>
    991a:	44 24       	eor	r4, r4
    991c:	43 94       	inc	r4
    991e:	01 c0       	rjmp	.+2      	; 0x9922 <vfprintf+0x252>
    9920:	10 e0       	ldi	r17, 0x00	; 0
    9922:	97 fe       	sbrs	r9, 7
    9924:	06 c0       	rjmp	.+12     	; 0x9932 <vfprintf+0x262>
    9926:	1c 14       	cp	r1, r12
    9928:	1d 04       	cpc	r1, r13
    992a:	34 f4       	brge	.+12     	; 0x9938 <vfprintf+0x268>
    992c:	c6 01       	movw	r24, r12
    992e:	01 96       	adiw	r24, 0x01	; 1
    9930:	05 c0       	rjmp	.+10     	; 0x993c <vfprintf+0x26c>
    9932:	85 e0       	ldi	r24, 0x05	; 5
    9934:	90 e0       	ldi	r25, 0x00	; 0
    9936:	02 c0       	rjmp	.+4      	; 0x993c <vfprintf+0x26c>
    9938:	81 e0       	ldi	r24, 0x01	; 1
    993a:	90 e0       	ldi	r25, 0x00	; 0
    993c:	01 11       	cpse	r16, r1
    993e:	01 96       	adiw	r24, 0x01	; 1
    9940:	11 23       	and	r17, r17
    9942:	31 f0       	breq	.+12     	; 0x9950 <vfprintf+0x280>
    9944:	21 2f       	mov	r18, r17
    9946:	30 e0       	ldi	r19, 0x00	; 0
    9948:	2f 5f       	subi	r18, 0xFF	; 255
    994a:	3f 4f       	sbci	r19, 0xFF	; 255
    994c:	82 0f       	add	r24, r18
    994e:	93 1f       	adc	r25, r19
    9950:	25 2d       	mov	r18, r5
    9952:	30 e0       	ldi	r19, 0x00	; 0
    9954:	82 17       	cp	r24, r18
    9956:	93 07       	cpc	r25, r19
    9958:	14 f4       	brge	.+4      	; 0x995e <vfprintf+0x28e>
    995a:	58 1a       	sub	r5, r24
    995c:	01 c0       	rjmp	.+2      	; 0x9960 <vfprintf+0x290>
    995e:	51 2c       	mov	r5, r1
    9960:	89 2d       	mov	r24, r9
    9962:	89 70       	andi	r24, 0x09	; 9
    9964:	49 f4       	brne	.+18     	; 0x9978 <vfprintf+0x2a8>
    9966:	55 20       	and	r5, r5
    9968:	39 f0       	breq	.+14     	; 0x9978 <vfprintf+0x2a8>
    996a:	b7 01       	movw	r22, r14
    996c:	80 e2       	ldi	r24, 0x20	; 32
    996e:	90 e0       	ldi	r25, 0x00	; 0
    9970:	0e 94 a9 52 	call	0xa552	; 0xa552 <fputc>
    9974:	5a 94       	dec	r5
    9976:	f7 cf       	rjmp	.-18     	; 0x9966 <vfprintf+0x296>
    9978:	00 23       	and	r16, r16
    997a:	29 f0       	breq	.+10     	; 0x9986 <vfprintf+0x2b6>
    997c:	b7 01       	movw	r22, r14
    997e:	80 2f       	mov	r24, r16
    9980:	90 e0       	ldi	r25, 0x00	; 0
    9982:	0e 94 a9 52 	call	0xa552	; 0xa552 <fputc>
    9986:	93 fc       	sbrc	r9, 3
    9988:	09 c0       	rjmp	.+18     	; 0x999c <vfprintf+0x2cc>
    998a:	55 20       	and	r5, r5
    998c:	39 f0       	breq	.+14     	; 0x999c <vfprintf+0x2cc>
    998e:	b7 01       	movw	r22, r14
    9990:	80 e3       	ldi	r24, 0x30	; 48
    9992:	90 e0       	ldi	r25, 0x00	; 0
    9994:	0e 94 a9 52 	call	0xa552	; 0xa552 <fputc>
    9998:	5a 94       	dec	r5
    999a:	f7 cf       	rjmp	.-18     	; 0x998a <vfprintf+0x2ba>
    999c:	97 fe       	sbrs	r9, 7
    999e:	4c c0       	rjmp	.+152    	; 0x9a38 <vfprintf+0x368>
    99a0:	46 01       	movw	r8, r12
    99a2:	d7 fe       	sbrs	r13, 7
    99a4:	02 c0       	rjmp	.+4      	; 0x99aa <vfprintf+0x2da>
    99a6:	81 2c       	mov	r8, r1
    99a8:	91 2c       	mov	r9, r1
    99aa:	c6 01       	movw	r24, r12
    99ac:	88 19       	sub	r24, r8
    99ae:	99 09       	sbc	r25, r9
    99b0:	f3 01       	movw	r30, r6
    99b2:	e8 0f       	add	r30, r24
    99b4:	f9 1f       	adc	r31, r25
    99b6:	fe 87       	std	Y+14, r31	; 0x0e
    99b8:	ed 87       	std	Y+13, r30	; 0x0d
    99ba:	96 01       	movw	r18, r12
    99bc:	24 19       	sub	r18, r4
    99be:	31 09       	sbc	r19, r1
    99c0:	38 8b       	std	Y+16, r19	; 0x10
    99c2:	2f 87       	std	Y+15, r18	; 0x0f
    99c4:	01 2f       	mov	r16, r17
    99c6:	10 e0       	ldi	r17, 0x00	; 0
    99c8:	11 95       	neg	r17
    99ca:	01 95       	neg	r16
    99cc:	11 09       	sbc	r17, r1
    99ce:	3f ef       	ldi	r19, 0xFF	; 255
    99d0:	83 16       	cp	r8, r19
    99d2:	93 06       	cpc	r9, r19
    99d4:	29 f4       	brne	.+10     	; 0x99e0 <vfprintf+0x310>
    99d6:	b7 01       	movw	r22, r14
    99d8:	8e e2       	ldi	r24, 0x2E	; 46
    99da:	90 e0       	ldi	r25, 0x00	; 0
    99dc:	0e 94 a9 52 	call	0xa552	; 0xa552 <fputc>
    99e0:	c8 14       	cp	r12, r8
    99e2:	d9 04       	cpc	r13, r9
    99e4:	4c f0       	brlt	.+18     	; 0x99f8 <vfprintf+0x328>
    99e6:	8f 85       	ldd	r24, Y+15	; 0x0f
    99e8:	98 89       	ldd	r25, Y+16	; 0x10
    99ea:	88 15       	cp	r24, r8
    99ec:	99 05       	cpc	r25, r9
    99ee:	24 f4       	brge	.+8      	; 0x99f8 <vfprintf+0x328>
    99f0:	ed 85       	ldd	r30, Y+13	; 0x0d
    99f2:	fe 85       	ldd	r31, Y+14	; 0x0e
    99f4:	81 81       	ldd	r24, Z+1	; 0x01
    99f6:	01 c0       	rjmp	.+2      	; 0x99fa <vfprintf+0x32a>
    99f8:	80 e3       	ldi	r24, 0x30	; 48
    99fa:	f1 e0       	ldi	r31, 0x01	; 1
    99fc:	8f 1a       	sub	r8, r31
    99fe:	91 08       	sbc	r9, r1
    9a00:	2d 85       	ldd	r18, Y+13	; 0x0d
    9a02:	3e 85       	ldd	r19, Y+14	; 0x0e
    9a04:	2f 5f       	subi	r18, 0xFF	; 255
    9a06:	3f 4f       	sbci	r19, 0xFF	; 255
    9a08:	3e 87       	std	Y+14, r19	; 0x0e
    9a0a:	2d 87       	std	Y+13, r18	; 0x0d
    9a0c:	80 16       	cp	r8, r16
    9a0e:	91 06       	cpc	r9, r17
    9a10:	2c f0       	brlt	.+10     	; 0x9a1c <vfprintf+0x34c>
    9a12:	b7 01       	movw	r22, r14
    9a14:	90 e0       	ldi	r25, 0x00	; 0
    9a16:	0e 94 a9 52 	call	0xa552	; 0xa552 <fputc>
    9a1a:	d9 cf       	rjmp	.-78     	; 0x99ce <vfprintf+0x2fe>
    9a1c:	c8 14       	cp	r12, r8
    9a1e:	d9 04       	cpc	r13, r9
    9a20:	41 f4       	brne	.+16     	; 0x9a32 <vfprintf+0x362>
    9a22:	9a 81       	ldd	r25, Y+2	; 0x02
    9a24:	96 33       	cpi	r25, 0x36	; 54
    9a26:	20 f4       	brcc	.+8      	; 0x9a30 <vfprintf+0x360>
    9a28:	95 33       	cpi	r25, 0x35	; 53
    9a2a:	19 f4       	brne	.+6      	; 0x9a32 <vfprintf+0x362>
    9a2c:	3c 85       	ldd	r19, Y+12	; 0x0c
    9a2e:	34 ff       	sbrs	r19, 4
    9a30:	81 e3       	ldi	r24, 0x31	; 49
    9a32:	b7 01       	movw	r22, r14
    9a34:	90 e0       	ldi	r25, 0x00	; 0
    9a36:	4e c0       	rjmp	.+156    	; 0x9ad4 <vfprintf+0x404>
    9a38:	8a 81       	ldd	r24, Y+2	; 0x02
    9a3a:	81 33       	cpi	r24, 0x31	; 49
    9a3c:	19 f0       	breq	.+6      	; 0x9a44 <vfprintf+0x374>
    9a3e:	9c 85       	ldd	r25, Y+12	; 0x0c
    9a40:	9f 7e       	andi	r25, 0xEF	; 239
    9a42:	9c 87       	std	Y+12, r25	; 0x0c
    9a44:	b7 01       	movw	r22, r14
    9a46:	90 e0       	ldi	r25, 0x00	; 0
    9a48:	0e 94 a9 52 	call	0xa552	; 0xa552 <fputc>
    9a4c:	11 11       	cpse	r17, r1
    9a4e:	05 c0       	rjmp	.+10     	; 0x9a5a <vfprintf+0x38a>
    9a50:	94 fc       	sbrc	r9, 4
    9a52:	18 c0       	rjmp	.+48     	; 0x9a84 <vfprintf+0x3b4>
    9a54:	85 e6       	ldi	r24, 0x65	; 101
    9a56:	90 e0       	ldi	r25, 0x00	; 0
    9a58:	17 c0       	rjmp	.+46     	; 0x9a88 <vfprintf+0x3b8>
    9a5a:	b7 01       	movw	r22, r14
    9a5c:	8e e2       	ldi	r24, 0x2E	; 46
    9a5e:	90 e0       	ldi	r25, 0x00	; 0
    9a60:	0e 94 a9 52 	call	0xa552	; 0xa552 <fputc>
    9a64:	1e 5f       	subi	r17, 0xFE	; 254
    9a66:	82 e0       	ldi	r24, 0x02	; 2
    9a68:	01 e0       	ldi	r16, 0x01	; 1
    9a6a:	08 0f       	add	r16, r24
    9a6c:	f3 01       	movw	r30, r6
    9a6e:	e8 0f       	add	r30, r24
    9a70:	f1 1d       	adc	r31, r1
    9a72:	80 81       	ld	r24, Z
    9a74:	b7 01       	movw	r22, r14
    9a76:	90 e0       	ldi	r25, 0x00	; 0
    9a78:	0e 94 a9 52 	call	0xa552	; 0xa552 <fputc>
    9a7c:	80 2f       	mov	r24, r16
    9a7e:	01 13       	cpse	r16, r17
    9a80:	f3 cf       	rjmp	.-26     	; 0x9a68 <vfprintf+0x398>
    9a82:	e6 cf       	rjmp	.-52     	; 0x9a50 <vfprintf+0x380>
    9a84:	85 e4       	ldi	r24, 0x45	; 69
    9a86:	90 e0       	ldi	r25, 0x00	; 0
    9a88:	b7 01       	movw	r22, r14
    9a8a:	0e 94 a9 52 	call	0xa552	; 0xa552 <fputc>
    9a8e:	d7 fc       	sbrc	r13, 7
    9a90:	06 c0       	rjmp	.+12     	; 0x9a9e <vfprintf+0x3ce>
    9a92:	c1 14       	cp	r12, r1
    9a94:	d1 04       	cpc	r13, r1
    9a96:	41 f4       	brne	.+16     	; 0x9aa8 <vfprintf+0x3d8>
    9a98:	ec 85       	ldd	r30, Y+12	; 0x0c
    9a9a:	e4 ff       	sbrs	r30, 4
    9a9c:	05 c0       	rjmp	.+10     	; 0x9aa8 <vfprintf+0x3d8>
    9a9e:	d1 94       	neg	r13
    9aa0:	c1 94       	neg	r12
    9aa2:	d1 08       	sbc	r13, r1
    9aa4:	8d e2       	ldi	r24, 0x2D	; 45
    9aa6:	01 c0       	rjmp	.+2      	; 0x9aaa <vfprintf+0x3da>
    9aa8:	8b e2       	ldi	r24, 0x2B	; 43
    9aaa:	b7 01       	movw	r22, r14
    9aac:	90 e0       	ldi	r25, 0x00	; 0
    9aae:	0e 94 a9 52 	call	0xa552	; 0xa552 <fputc>
    9ab2:	80 e3       	ldi	r24, 0x30	; 48
    9ab4:	2a e0       	ldi	r18, 0x0A	; 10
    9ab6:	c2 16       	cp	r12, r18
    9ab8:	d1 04       	cpc	r13, r1
    9aba:	2c f0       	brlt	.+10     	; 0x9ac6 <vfprintf+0x3f6>
    9abc:	8f 5f       	subi	r24, 0xFF	; 255
    9abe:	fa e0       	ldi	r31, 0x0A	; 10
    9ac0:	cf 1a       	sub	r12, r31
    9ac2:	d1 08       	sbc	r13, r1
    9ac4:	f7 cf       	rjmp	.-18     	; 0x9ab4 <vfprintf+0x3e4>
    9ac6:	b7 01       	movw	r22, r14
    9ac8:	90 e0       	ldi	r25, 0x00	; 0
    9aca:	0e 94 a9 52 	call	0xa552	; 0xa552 <fputc>
    9ace:	b7 01       	movw	r22, r14
    9ad0:	c6 01       	movw	r24, r12
    9ad2:	c0 96       	adiw	r24, 0x30	; 48
    9ad4:	0e 94 a9 52 	call	0xa552	; 0xa552 <fputc>
    9ad8:	54 c1       	rjmp	.+680    	; 0x9d82 <vfprintf+0x6b2>
    9ada:	83 36       	cpi	r24, 0x63	; 99
    9adc:	31 f0       	breq	.+12     	; 0x9aea <vfprintf+0x41a>
    9ade:	83 37       	cpi	r24, 0x73	; 115
    9ae0:	79 f0       	breq	.+30     	; 0x9b00 <vfprintf+0x430>
    9ae2:	83 35       	cpi	r24, 0x53	; 83
    9ae4:	09 f0       	breq	.+2      	; 0x9ae8 <vfprintf+0x418>
    9ae6:	56 c0       	rjmp	.+172    	; 0x9b94 <vfprintf+0x4c4>
    9ae8:	20 c0       	rjmp	.+64     	; 0x9b2a <vfprintf+0x45a>
    9aea:	56 01       	movw	r10, r12
    9aec:	32 e0       	ldi	r19, 0x02	; 2
    9aee:	a3 0e       	add	r10, r19
    9af0:	b1 1c       	adc	r11, r1
    9af2:	f6 01       	movw	r30, r12
    9af4:	80 81       	ld	r24, Z
    9af6:	89 83       	std	Y+1, r24	; 0x01
    9af8:	01 e0       	ldi	r16, 0x01	; 1
    9afa:	10 e0       	ldi	r17, 0x00	; 0
    9afc:	63 01       	movw	r12, r6
    9afe:	12 c0       	rjmp	.+36     	; 0x9b24 <vfprintf+0x454>
    9b00:	56 01       	movw	r10, r12
    9b02:	f2 e0       	ldi	r31, 0x02	; 2
    9b04:	af 0e       	add	r10, r31
    9b06:	b1 1c       	adc	r11, r1
    9b08:	f6 01       	movw	r30, r12
    9b0a:	c0 80       	ld	r12, Z
    9b0c:	d1 80       	ldd	r13, Z+1	; 0x01
    9b0e:	96 fe       	sbrs	r9, 6
    9b10:	03 c0       	rjmp	.+6      	; 0x9b18 <vfprintf+0x448>
    9b12:	61 2f       	mov	r22, r17
    9b14:	70 e0       	ldi	r23, 0x00	; 0
    9b16:	02 c0       	rjmp	.+4      	; 0x9b1c <vfprintf+0x44c>
    9b18:	6f ef       	ldi	r22, 0xFF	; 255
    9b1a:	7f ef       	ldi	r23, 0xFF	; 255
    9b1c:	c6 01       	movw	r24, r12
    9b1e:	0e 94 9e 52 	call	0xa53c	; 0xa53c <strnlen>
    9b22:	8c 01       	movw	r16, r24
    9b24:	f9 2d       	mov	r31, r9
    9b26:	ff 77       	andi	r31, 0x7F	; 127
    9b28:	14 c0       	rjmp	.+40     	; 0x9b52 <vfprintf+0x482>
    9b2a:	56 01       	movw	r10, r12
    9b2c:	22 e0       	ldi	r18, 0x02	; 2
    9b2e:	a2 0e       	add	r10, r18
    9b30:	b1 1c       	adc	r11, r1
    9b32:	f6 01       	movw	r30, r12
    9b34:	c0 80       	ld	r12, Z
    9b36:	d1 80       	ldd	r13, Z+1	; 0x01
    9b38:	96 fe       	sbrs	r9, 6
    9b3a:	03 c0       	rjmp	.+6      	; 0x9b42 <vfprintf+0x472>
    9b3c:	61 2f       	mov	r22, r17
    9b3e:	70 e0       	ldi	r23, 0x00	; 0
    9b40:	02 c0       	rjmp	.+4      	; 0x9b46 <vfprintf+0x476>
    9b42:	6f ef       	ldi	r22, 0xFF	; 255
    9b44:	7f ef       	ldi	r23, 0xFF	; 255
    9b46:	c6 01       	movw	r24, r12
    9b48:	0e 94 93 52 	call	0xa526	; 0xa526 <strnlen_P>
    9b4c:	8c 01       	movw	r16, r24
    9b4e:	f9 2d       	mov	r31, r9
    9b50:	f0 68       	ori	r31, 0x80	; 128
    9b52:	9f 2e       	mov	r9, r31
    9b54:	f3 fd       	sbrc	r31, 3
    9b56:	1a c0       	rjmp	.+52     	; 0x9b8c <vfprintf+0x4bc>
    9b58:	85 2d       	mov	r24, r5
    9b5a:	90 e0       	ldi	r25, 0x00	; 0
    9b5c:	08 17       	cp	r16, r24
    9b5e:	19 07       	cpc	r17, r25
    9b60:	a8 f4       	brcc	.+42     	; 0x9b8c <vfprintf+0x4bc>
    9b62:	b7 01       	movw	r22, r14
    9b64:	80 e2       	ldi	r24, 0x20	; 32
    9b66:	90 e0       	ldi	r25, 0x00	; 0
    9b68:	0e 94 a9 52 	call	0xa552	; 0xa552 <fputc>
    9b6c:	5a 94       	dec	r5
    9b6e:	f4 cf       	rjmp	.-24     	; 0x9b58 <vfprintf+0x488>
    9b70:	f6 01       	movw	r30, r12
    9b72:	97 fc       	sbrc	r9, 7
    9b74:	85 91       	lpm	r24, Z+
    9b76:	97 fe       	sbrs	r9, 7
    9b78:	81 91       	ld	r24, Z+
    9b7a:	6f 01       	movw	r12, r30
    9b7c:	b7 01       	movw	r22, r14
    9b7e:	90 e0       	ldi	r25, 0x00	; 0
    9b80:	0e 94 a9 52 	call	0xa552	; 0xa552 <fputc>
    9b84:	51 10       	cpse	r5, r1
    9b86:	5a 94       	dec	r5
    9b88:	01 50       	subi	r16, 0x01	; 1
    9b8a:	11 09       	sbc	r17, r1
    9b8c:	01 15       	cp	r16, r1
    9b8e:	11 05       	cpc	r17, r1
    9b90:	79 f7       	brne	.-34     	; 0x9b70 <vfprintf+0x4a0>
    9b92:	f7 c0       	rjmp	.+494    	; 0x9d82 <vfprintf+0x6b2>
    9b94:	84 36       	cpi	r24, 0x64	; 100
    9b96:	11 f0       	breq	.+4      	; 0x9b9c <vfprintf+0x4cc>
    9b98:	89 36       	cpi	r24, 0x69	; 105
    9b9a:	61 f5       	brne	.+88     	; 0x9bf4 <vfprintf+0x524>
    9b9c:	56 01       	movw	r10, r12
    9b9e:	97 fe       	sbrs	r9, 7
    9ba0:	09 c0       	rjmp	.+18     	; 0x9bb4 <vfprintf+0x4e4>
    9ba2:	24 e0       	ldi	r18, 0x04	; 4
    9ba4:	a2 0e       	add	r10, r18
    9ba6:	b1 1c       	adc	r11, r1
    9ba8:	f6 01       	movw	r30, r12
    9baa:	60 81       	ld	r22, Z
    9bac:	71 81       	ldd	r23, Z+1	; 0x01
    9bae:	82 81       	ldd	r24, Z+2	; 0x02
    9bb0:	93 81       	ldd	r25, Z+3	; 0x03
    9bb2:	0a c0       	rjmp	.+20     	; 0x9bc8 <vfprintf+0x4f8>
    9bb4:	f2 e0       	ldi	r31, 0x02	; 2
    9bb6:	af 0e       	add	r10, r31
    9bb8:	b1 1c       	adc	r11, r1
    9bba:	f6 01       	movw	r30, r12
    9bbc:	60 81       	ld	r22, Z
    9bbe:	71 81       	ldd	r23, Z+1	; 0x01
    9bc0:	07 2e       	mov	r0, r23
    9bc2:	00 0c       	add	r0, r0
    9bc4:	88 0b       	sbc	r24, r24
    9bc6:	99 0b       	sbc	r25, r25
    9bc8:	f9 2d       	mov	r31, r9
    9bca:	ff 76       	andi	r31, 0x6F	; 111
    9bcc:	9f 2e       	mov	r9, r31
    9bce:	97 ff       	sbrs	r25, 7
    9bd0:	09 c0       	rjmp	.+18     	; 0x9be4 <vfprintf+0x514>
    9bd2:	90 95       	com	r25
    9bd4:	80 95       	com	r24
    9bd6:	70 95       	com	r23
    9bd8:	61 95       	neg	r22
    9bda:	7f 4f       	sbci	r23, 0xFF	; 255
    9bdc:	8f 4f       	sbci	r24, 0xFF	; 255
    9bde:	9f 4f       	sbci	r25, 0xFF	; 255
    9be0:	f0 68       	ori	r31, 0x80	; 128
    9be2:	9f 2e       	mov	r9, r31
    9be4:	2a e0       	ldi	r18, 0x0A	; 10
    9be6:	30 e0       	ldi	r19, 0x00	; 0
    9be8:	a3 01       	movw	r20, r6
    9bea:	0e 94 14 53 	call	0xa628	; 0xa628 <__ultoa_invert>
    9bee:	c8 2e       	mov	r12, r24
    9bf0:	c6 18       	sub	r12, r6
    9bf2:	3f c0       	rjmp	.+126    	; 0x9c72 <vfprintf+0x5a2>
    9bf4:	09 2d       	mov	r16, r9
    9bf6:	85 37       	cpi	r24, 0x75	; 117
    9bf8:	21 f4       	brne	.+8      	; 0x9c02 <vfprintf+0x532>
    9bfa:	0f 7e       	andi	r16, 0xEF	; 239
    9bfc:	2a e0       	ldi	r18, 0x0A	; 10
    9bfe:	30 e0       	ldi	r19, 0x00	; 0
    9c00:	1d c0       	rjmp	.+58     	; 0x9c3c <vfprintf+0x56c>
    9c02:	09 7f       	andi	r16, 0xF9	; 249
    9c04:	8f 36       	cpi	r24, 0x6F	; 111
    9c06:	91 f0       	breq	.+36     	; 0x9c2c <vfprintf+0x55c>
    9c08:	18 f4       	brcc	.+6      	; 0x9c10 <vfprintf+0x540>
    9c0a:	88 35       	cpi	r24, 0x58	; 88
    9c0c:	59 f0       	breq	.+22     	; 0x9c24 <vfprintf+0x554>
    9c0e:	c3 c0       	rjmp	.+390    	; 0x9d96 <vfprintf+0x6c6>
    9c10:	80 37       	cpi	r24, 0x70	; 112
    9c12:	19 f0       	breq	.+6      	; 0x9c1a <vfprintf+0x54a>
    9c14:	88 37       	cpi	r24, 0x78	; 120
    9c16:	11 f0       	breq	.+4      	; 0x9c1c <vfprintf+0x54c>
    9c18:	be c0       	rjmp	.+380    	; 0x9d96 <vfprintf+0x6c6>
    9c1a:	00 61       	ori	r16, 0x10	; 16
    9c1c:	04 ff       	sbrs	r16, 4
    9c1e:	09 c0       	rjmp	.+18     	; 0x9c32 <vfprintf+0x562>
    9c20:	04 60       	ori	r16, 0x04	; 4
    9c22:	07 c0       	rjmp	.+14     	; 0x9c32 <vfprintf+0x562>
    9c24:	94 fe       	sbrs	r9, 4
    9c26:	08 c0       	rjmp	.+16     	; 0x9c38 <vfprintf+0x568>
    9c28:	06 60       	ori	r16, 0x06	; 6
    9c2a:	06 c0       	rjmp	.+12     	; 0x9c38 <vfprintf+0x568>
    9c2c:	28 e0       	ldi	r18, 0x08	; 8
    9c2e:	30 e0       	ldi	r19, 0x00	; 0
    9c30:	05 c0       	rjmp	.+10     	; 0x9c3c <vfprintf+0x56c>
    9c32:	20 e1       	ldi	r18, 0x10	; 16
    9c34:	30 e0       	ldi	r19, 0x00	; 0
    9c36:	02 c0       	rjmp	.+4      	; 0x9c3c <vfprintf+0x56c>
    9c38:	20 e1       	ldi	r18, 0x10	; 16
    9c3a:	32 e0       	ldi	r19, 0x02	; 2
    9c3c:	56 01       	movw	r10, r12
    9c3e:	07 ff       	sbrs	r16, 7
    9c40:	09 c0       	rjmp	.+18     	; 0x9c54 <vfprintf+0x584>
    9c42:	84 e0       	ldi	r24, 0x04	; 4
    9c44:	a8 0e       	add	r10, r24
    9c46:	b1 1c       	adc	r11, r1
    9c48:	f6 01       	movw	r30, r12
    9c4a:	60 81       	ld	r22, Z
    9c4c:	71 81       	ldd	r23, Z+1	; 0x01
    9c4e:	82 81       	ldd	r24, Z+2	; 0x02
    9c50:	93 81       	ldd	r25, Z+3	; 0x03
    9c52:	08 c0       	rjmp	.+16     	; 0x9c64 <vfprintf+0x594>
    9c54:	f2 e0       	ldi	r31, 0x02	; 2
    9c56:	af 0e       	add	r10, r31
    9c58:	b1 1c       	adc	r11, r1
    9c5a:	f6 01       	movw	r30, r12
    9c5c:	60 81       	ld	r22, Z
    9c5e:	71 81       	ldd	r23, Z+1	; 0x01
    9c60:	80 e0       	ldi	r24, 0x00	; 0
    9c62:	90 e0       	ldi	r25, 0x00	; 0
    9c64:	a3 01       	movw	r20, r6
    9c66:	0e 94 14 53 	call	0xa628	; 0xa628 <__ultoa_invert>
    9c6a:	c8 2e       	mov	r12, r24
    9c6c:	c6 18       	sub	r12, r6
    9c6e:	0f 77       	andi	r16, 0x7F	; 127
    9c70:	90 2e       	mov	r9, r16
    9c72:	96 fe       	sbrs	r9, 6
    9c74:	0b c0       	rjmp	.+22     	; 0x9c8c <vfprintf+0x5bc>
    9c76:	09 2d       	mov	r16, r9
    9c78:	0e 7f       	andi	r16, 0xFE	; 254
    9c7a:	c1 16       	cp	r12, r17
    9c7c:	50 f4       	brcc	.+20     	; 0x9c92 <vfprintf+0x5c2>
    9c7e:	94 fe       	sbrs	r9, 4
    9c80:	0a c0       	rjmp	.+20     	; 0x9c96 <vfprintf+0x5c6>
    9c82:	92 fc       	sbrc	r9, 2
    9c84:	08 c0       	rjmp	.+16     	; 0x9c96 <vfprintf+0x5c6>
    9c86:	09 2d       	mov	r16, r9
    9c88:	0e 7e       	andi	r16, 0xEE	; 238
    9c8a:	05 c0       	rjmp	.+10     	; 0x9c96 <vfprintf+0x5c6>
    9c8c:	dc 2c       	mov	r13, r12
    9c8e:	09 2d       	mov	r16, r9
    9c90:	03 c0       	rjmp	.+6      	; 0x9c98 <vfprintf+0x5c8>
    9c92:	dc 2c       	mov	r13, r12
    9c94:	01 c0       	rjmp	.+2      	; 0x9c98 <vfprintf+0x5c8>
    9c96:	d1 2e       	mov	r13, r17
    9c98:	04 ff       	sbrs	r16, 4
    9c9a:	0d c0       	rjmp	.+26     	; 0x9cb6 <vfprintf+0x5e6>
    9c9c:	fe 01       	movw	r30, r28
    9c9e:	ec 0d       	add	r30, r12
    9ca0:	f1 1d       	adc	r31, r1
    9ca2:	80 81       	ld	r24, Z
    9ca4:	80 33       	cpi	r24, 0x30	; 48
    9ca6:	11 f4       	brne	.+4      	; 0x9cac <vfprintf+0x5dc>
    9ca8:	09 7e       	andi	r16, 0xE9	; 233
    9caa:	09 c0       	rjmp	.+18     	; 0x9cbe <vfprintf+0x5ee>
    9cac:	02 ff       	sbrs	r16, 2
    9cae:	06 c0       	rjmp	.+12     	; 0x9cbc <vfprintf+0x5ec>
    9cb0:	d3 94       	inc	r13
    9cb2:	d3 94       	inc	r13
    9cb4:	04 c0       	rjmp	.+8      	; 0x9cbe <vfprintf+0x5ee>
    9cb6:	80 2f       	mov	r24, r16
    9cb8:	86 78       	andi	r24, 0x86	; 134
    9cba:	09 f0       	breq	.+2      	; 0x9cbe <vfprintf+0x5ee>
    9cbc:	d3 94       	inc	r13
    9cbe:	03 fd       	sbrc	r16, 3
    9cc0:	11 c0       	rjmp	.+34     	; 0x9ce4 <vfprintf+0x614>
    9cc2:	00 ff       	sbrs	r16, 0
    9cc4:	06 c0       	rjmp	.+12     	; 0x9cd2 <vfprintf+0x602>
    9cc6:	1c 2d       	mov	r17, r12
    9cc8:	d5 14       	cp	r13, r5
    9cca:	80 f4       	brcc	.+32     	; 0x9cec <vfprintf+0x61c>
    9ccc:	15 0d       	add	r17, r5
    9cce:	1d 19       	sub	r17, r13
    9cd0:	0d c0       	rjmp	.+26     	; 0x9cec <vfprintf+0x61c>
    9cd2:	d5 14       	cp	r13, r5
    9cd4:	58 f4       	brcc	.+22     	; 0x9cec <vfprintf+0x61c>
    9cd6:	b7 01       	movw	r22, r14
    9cd8:	80 e2       	ldi	r24, 0x20	; 32
    9cda:	90 e0       	ldi	r25, 0x00	; 0
    9cdc:	0e 94 a9 52 	call	0xa552	; 0xa552 <fputc>
    9ce0:	d3 94       	inc	r13
    9ce2:	f7 cf       	rjmp	.-18     	; 0x9cd2 <vfprintf+0x602>
    9ce4:	d5 14       	cp	r13, r5
    9ce6:	10 f4       	brcc	.+4      	; 0x9cec <vfprintf+0x61c>
    9ce8:	5d 18       	sub	r5, r13
    9cea:	01 c0       	rjmp	.+2      	; 0x9cee <vfprintf+0x61e>
    9cec:	51 2c       	mov	r5, r1
    9cee:	04 ff       	sbrs	r16, 4
    9cf0:	10 c0       	rjmp	.+32     	; 0x9d12 <vfprintf+0x642>
    9cf2:	b7 01       	movw	r22, r14
    9cf4:	80 e3       	ldi	r24, 0x30	; 48
    9cf6:	90 e0       	ldi	r25, 0x00	; 0
    9cf8:	0e 94 a9 52 	call	0xa552	; 0xa552 <fputc>
    9cfc:	02 ff       	sbrs	r16, 2
    9cfe:	17 c0       	rjmp	.+46     	; 0x9d2e <vfprintf+0x65e>
    9d00:	01 fd       	sbrc	r16, 1
    9d02:	03 c0       	rjmp	.+6      	; 0x9d0a <vfprintf+0x63a>
    9d04:	88 e7       	ldi	r24, 0x78	; 120
    9d06:	90 e0       	ldi	r25, 0x00	; 0
    9d08:	02 c0       	rjmp	.+4      	; 0x9d0e <vfprintf+0x63e>
    9d0a:	88 e5       	ldi	r24, 0x58	; 88
    9d0c:	90 e0       	ldi	r25, 0x00	; 0
    9d0e:	b7 01       	movw	r22, r14
    9d10:	0c c0       	rjmp	.+24     	; 0x9d2a <vfprintf+0x65a>
    9d12:	80 2f       	mov	r24, r16
    9d14:	86 78       	andi	r24, 0x86	; 134
    9d16:	59 f0       	breq	.+22     	; 0x9d2e <vfprintf+0x65e>
    9d18:	01 ff       	sbrs	r16, 1
    9d1a:	02 c0       	rjmp	.+4      	; 0x9d20 <vfprintf+0x650>
    9d1c:	8b e2       	ldi	r24, 0x2B	; 43
    9d1e:	01 c0       	rjmp	.+2      	; 0x9d22 <vfprintf+0x652>
    9d20:	80 e2       	ldi	r24, 0x20	; 32
    9d22:	07 fd       	sbrc	r16, 7
    9d24:	8d e2       	ldi	r24, 0x2D	; 45
    9d26:	b7 01       	movw	r22, r14
    9d28:	90 e0       	ldi	r25, 0x00	; 0
    9d2a:	0e 94 a9 52 	call	0xa552	; 0xa552 <fputc>
    9d2e:	c1 16       	cp	r12, r17
    9d30:	38 f4       	brcc	.+14     	; 0x9d40 <vfprintf+0x670>
    9d32:	b7 01       	movw	r22, r14
    9d34:	80 e3       	ldi	r24, 0x30	; 48
    9d36:	90 e0       	ldi	r25, 0x00	; 0
    9d38:	0e 94 a9 52 	call	0xa552	; 0xa552 <fputc>
    9d3c:	11 50       	subi	r17, 0x01	; 1
    9d3e:	f7 cf       	rjmp	.-18     	; 0x9d2e <vfprintf+0x65e>
    9d40:	ca 94       	dec	r12
    9d42:	f3 01       	movw	r30, r6
    9d44:	ec 0d       	add	r30, r12
    9d46:	f1 1d       	adc	r31, r1
    9d48:	80 81       	ld	r24, Z
    9d4a:	b7 01       	movw	r22, r14
    9d4c:	90 e0       	ldi	r25, 0x00	; 0
    9d4e:	0e 94 a9 52 	call	0xa552	; 0xa552 <fputc>
    9d52:	c1 10       	cpse	r12, r1
    9d54:	f5 cf       	rjmp	.-22     	; 0x9d40 <vfprintf+0x670>
    9d56:	15 c0       	rjmp	.+42     	; 0x9d82 <vfprintf+0x6b2>
    9d58:	f4 e0       	ldi	r31, 0x04	; 4
    9d5a:	f5 15       	cp	r31, r5
    9d5c:	60 f5       	brcc	.+88     	; 0x9db6 <vfprintf+0x6e6>
    9d5e:	84 e0       	ldi	r24, 0x04	; 4
    9d60:	58 1a       	sub	r5, r24
    9d62:	93 fe       	sbrs	r9, 3
    9d64:	1f c0       	rjmp	.+62     	; 0x9da4 <vfprintf+0x6d4>
    9d66:	01 11       	cpse	r16, r1
    9d68:	27 c0       	rjmp	.+78     	; 0x9db8 <vfprintf+0x6e8>
    9d6a:	2c 85       	ldd	r18, Y+12	; 0x0c
    9d6c:	23 ff       	sbrs	r18, 3
    9d6e:	2a c0       	rjmp	.+84     	; 0x9dc4 <vfprintf+0x6f4>
    9d70:	0c e8       	ldi	r16, 0x8C	; 140
    9d72:	10 e0       	ldi	r17, 0x00	; 0
    9d74:	39 2d       	mov	r19, r9
    9d76:	30 71       	andi	r19, 0x10	; 16
    9d78:	93 2e       	mov	r9, r19
    9d7a:	f8 01       	movw	r30, r16
    9d7c:	84 91       	lpm	r24, Z
    9d7e:	81 11       	cpse	r24, r1
    9d80:	24 c0       	rjmp	.+72     	; 0x9dca <vfprintf+0x6fa>
    9d82:	55 20       	and	r5, r5
    9d84:	09 f4       	brne	.+2      	; 0x9d88 <vfprintf+0x6b8>
    9d86:	e4 cc       	rjmp	.-1592   	; 0x9750 <vfprintf+0x80>
    9d88:	b7 01       	movw	r22, r14
    9d8a:	80 e2       	ldi	r24, 0x20	; 32
    9d8c:	90 e0       	ldi	r25, 0x00	; 0
    9d8e:	0e 94 a9 52 	call	0xa552	; 0xa552 <fputc>
    9d92:	5a 94       	dec	r5
    9d94:	f6 cf       	rjmp	.-20     	; 0x9d82 <vfprintf+0x6b2>
    9d96:	f7 01       	movw	r30, r14
    9d98:	86 81       	ldd	r24, Z+6	; 0x06
    9d9a:	97 81       	ldd	r25, Z+7	; 0x07
    9d9c:	26 c0       	rjmp	.+76     	; 0x9dea <vfprintf+0x71a>
    9d9e:	8f ef       	ldi	r24, 0xFF	; 255
    9da0:	9f ef       	ldi	r25, 0xFF	; 255
    9da2:	23 c0       	rjmp	.+70     	; 0x9dea <vfprintf+0x71a>
    9da4:	b7 01       	movw	r22, r14
    9da6:	80 e2       	ldi	r24, 0x20	; 32
    9da8:	90 e0       	ldi	r25, 0x00	; 0
    9daa:	0e 94 a9 52 	call	0xa552	; 0xa552 <fputc>
    9dae:	5a 94       	dec	r5
    9db0:	51 10       	cpse	r5, r1
    9db2:	f8 cf       	rjmp	.-16     	; 0x9da4 <vfprintf+0x6d4>
    9db4:	d8 cf       	rjmp	.-80     	; 0x9d66 <vfprintf+0x696>
    9db6:	51 2c       	mov	r5, r1
    9db8:	b7 01       	movw	r22, r14
    9dba:	80 2f       	mov	r24, r16
    9dbc:	90 e0       	ldi	r25, 0x00	; 0
    9dbe:	0e 94 a9 52 	call	0xa552	; 0xa552 <fputc>
    9dc2:	d3 cf       	rjmp	.-90     	; 0x9d6a <vfprintf+0x69a>
    9dc4:	00 e9       	ldi	r16, 0x90	; 144
    9dc6:	10 e0       	ldi	r17, 0x00	; 0
    9dc8:	d5 cf       	rjmp	.-86     	; 0x9d74 <vfprintf+0x6a4>
    9dca:	91 10       	cpse	r9, r1
    9dcc:	80 52       	subi	r24, 0x20	; 32
    9dce:	b7 01       	movw	r22, r14
    9dd0:	90 e0       	ldi	r25, 0x00	; 0
    9dd2:	0e 94 a9 52 	call	0xa552	; 0xa552 <fputc>
    9dd6:	0f 5f       	subi	r16, 0xFF	; 255
    9dd8:	1f 4f       	sbci	r17, 0xFF	; 255
    9dda:	cf cf       	rjmp	.-98     	; 0x9d7a <vfprintf+0x6aa>
    9ddc:	23 e0       	ldi	r18, 0x03	; 3
    9dde:	25 15       	cp	r18, r5
    9de0:	10 f4       	brcc	.+4      	; 0x9de6 <vfprintf+0x716>
    9de2:	83 e0       	ldi	r24, 0x03	; 3
    9de4:	bd cf       	rjmp	.-134    	; 0x9d60 <vfprintf+0x690>
    9de6:	51 2c       	mov	r5, r1
    9de8:	c0 cf       	rjmp	.-128    	; 0x9d6a <vfprintf+0x69a>
    9dea:	60 96       	adiw	r28, 0x10	; 16
    9dec:	0f b6       	in	r0, 0x3f	; 63
    9dee:	f8 94       	cli
    9df0:	de bf       	out	0x3e, r29	; 62
    9df2:	0f be       	out	0x3f, r0	; 63
    9df4:	cd bf       	out	0x3d, r28	; 61
    9df6:	df 91       	pop	r29
    9df8:	cf 91       	pop	r28
    9dfa:	1f 91       	pop	r17
    9dfc:	0f 91       	pop	r16
    9dfe:	ff 90       	pop	r15
    9e00:	ef 90       	pop	r14
    9e02:	df 90       	pop	r13
    9e04:	cf 90       	pop	r12
    9e06:	bf 90       	pop	r11
    9e08:	af 90       	pop	r10
    9e0a:	9f 90       	pop	r9
    9e0c:	8f 90       	pop	r8
    9e0e:	7f 90       	pop	r7
    9e10:	6f 90       	pop	r6
    9e12:	5f 90       	pop	r5
    9e14:	4f 90       	pop	r4
    9e16:	3f 90       	pop	r3
    9e18:	2f 90       	pop	r2
    9e1a:	08 95       	ret

00009e1c <__subsf3>:
    9e1c:	50 58       	subi	r21, 0x80	; 128

00009e1e <__addsf3>:
    9e1e:	bb 27       	eor	r27, r27
    9e20:	aa 27       	eor	r26, r26
    9e22:	0e 94 26 4f 	call	0x9e4c	; 0x9e4c <__addsf3x>
    9e26:	0c 94 99 50 	jmp	0xa132	; 0xa132 <__fp_round>
    9e2a:	0e 94 8b 50 	call	0xa116	; 0xa116 <__fp_pscA>
    9e2e:	38 f0       	brcs	.+14     	; 0x9e3e <__addsf3+0x20>
    9e30:	0e 94 92 50 	call	0xa124	; 0xa124 <__fp_pscB>
    9e34:	20 f0       	brcs	.+8      	; 0x9e3e <__addsf3+0x20>
    9e36:	39 f4       	brne	.+14     	; 0x9e46 <__addsf3+0x28>
    9e38:	9f 3f       	cpi	r25, 0xFF	; 255
    9e3a:	19 f4       	brne	.+6      	; 0x9e42 <__addsf3+0x24>
    9e3c:	26 f4       	brtc	.+8      	; 0x9e46 <__addsf3+0x28>
    9e3e:	0c 94 88 50 	jmp	0xa110	; 0xa110 <__fp_nan>
    9e42:	0e f4       	brtc	.+2      	; 0x9e46 <__addsf3+0x28>
    9e44:	e0 95       	com	r30
    9e46:	e7 fb       	bst	r30, 7
    9e48:	0c 94 82 50 	jmp	0xa104	; 0xa104 <__fp_inf>

00009e4c <__addsf3x>:
    9e4c:	e9 2f       	mov	r30, r25
    9e4e:	0e 94 aa 50 	call	0xa154	; 0xa154 <__fp_split3>
    9e52:	58 f3       	brcs	.-42     	; 0x9e2a <__addsf3+0xc>
    9e54:	ba 17       	cp	r27, r26
    9e56:	62 07       	cpc	r22, r18
    9e58:	73 07       	cpc	r23, r19
    9e5a:	84 07       	cpc	r24, r20
    9e5c:	95 07       	cpc	r25, r21
    9e5e:	20 f0       	brcs	.+8      	; 0x9e68 <__addsf3x+0x1c>
    9e60:	79 f4       	brne	.+30     	; 0x9e80 <__addsf3x+0x34>
    9e62:	a6 f5       	brtc	.+104    	; 0x9ecc <__addsf3x+0x80>
    9e64:	0c 94 cc 50 	jmp	0xa198	; 0xa198 <__fp_zero>
    9e68:	0e f4       	brtc	.+2      	; 0x9e6c <__addsf3x+0x20>
    9e6a:	e0 95       	com	r30
    9e6c:	0b 2e       	mov	r0, r27
    9e6e:	ba 2f       	mov	r27, r26
    9e70:	a0 2d       	mov	r26, r0
    9e72:	0b 01       	movw	r0, r22
    9e74:	b9 01       	movw	r22, r18
    9e76:	90 01       	movw	r18, r0
    9e78:	0c 01       	movw	r0, r24
    9e7a:	ca 01       	movw	r24, r20
    9e7c:	a0 01       	movw	r20, r0
    9e7e:	11 24       	eor	r1, r1
    9e80:	ff 27       	eor	r31, r31
    9e82:	59 1b       	sub	r21, r25
    9e84:	99 f0       	breq	.+38     	; 0x9eac <__addsf3x+0x60>
    9e86:	59 3f       	cpi	r21, 0xF9	; 249
    9e88:	50 f4       	brcc	.+20     	; 0x9e9e <__addsf3x+0x52>
    9e8a:	50 3e       	cpi	r21, 0xE0	; 224
    9e8c:	68 f1       	brcs	.+90     	; 0x9ee8 <__addsf3x+0x9c>
    9e8e:	1a 16       	cp	r1, r26
    9e90:	f0 40       	sbci	r31, 0x00	; 0
    9e92:	a2 2f       	mov	r26, r18
    9e94:	23 2f       	mov	r18, r19
    9e96:	34 2f       	mov	r19, r20
    9e98:	44 27       	eor	r20, r20
    9e9a:	58 5f       	subi	r21, 0xF8	; 248
    9e9c:	f3 cf       	rjmp	.-26     	; 0x9e84 <__addsf3x+0x38>
    9e9e:	46 95       	lsr	r20
    9ea0:	37 95       	ror	r19
    9ea2:	27 95       	ror	r18
    9ea4:	a7 95       	ror	r26
    9ea6:	f0 40       	sbci	r31, 0x00	; 0
    9ea8:	53 95       	inc	r21
    9eaa:	c9 f7       	brne	.-14     	; 0x9e9e <__addsf3x+0x52>
    9eac:	7e f4       	brtc	.+30     	; 0x9ecc <__addsf3x+0x80>
    9eae:	1f 16       	cp	r1, r31
    9eb0:	ba 0b       	sbc	r27, r26
    9eb2:	62 0b       	sbc	r22, r18
    9eb4:	73 0b       	sbc	r23, r19
    9eb6:	84 0b       	sbc	r24, r20
    9eb8:	ba f0       	brmi	.+46     	; 0x9ee8 <__addsf3x+0x9c>
    9eba:	91 50       	subi	r25, 0x01	; 1
    9ebc:	a1 f0       	breq	.+40     	; 0x9ee6 <__addsf3x+0x9a>
    9ebe:	ff 0f       	add	r31, r31
    9ec0:	bb 1f       	adc	r27, r27
    9ec2:	66 1f       	adc	r22, r22
    9ec4:	77 1f       	adc	r23, r23
    9ec6:	88 1f       	adc	r24, r24
    9ec8:	c2 f7       	brpl	.-16     	; 0x9eba <__addsf3x+0x6e>
    9eca:	0e c0       	rjmp	.+28     	; 0x9ee8 <__addsf3x+0x9c>
    9ecc:	ba 0f       	add	r27, r26
    9ece:	62 1f       	adc	r22, r18
    9ed0:	73 1f       	adc	r23, r19
    9ed2:	84 1f       	adc	r24, r20
    9ed4:	48 f4       	brcc	.+18     	; 0x9ee8 <__addsf3x+0x9c>
    9ed6:	87 95       	ror	r24
    9ed8:	77 95       	ror	r23
    9eda:	67 95       	ror	r22
    9edc:	b7 95       	ror	r27
    9ede:	f7 95       	ror	r31
    9ee0:	9e 3f       	cpi	r25, 0xFE	; 254
    9ee2:	08 f0       	brcs	.+2      	; 0x9ee6 <__addsf3x+0x9a>
    9ee4:	b0 cf       	rjmp	.-160    	; 0x9e46 <__addsf3+0x28>
    9ee6:	93 95       	inc	r25
    9ee8:	88 0f       	add	r24, r24
    9eea:	08 f0       	brcs	.+2      	; 0x9eee <__addsf3x+0xa2>
    9eec:	99 27       	eor	r25, r25
    9eee:	ee 0f       	add	r30, r30
    9ef0:	97 95       	ror	r25
    9ef2:	87 95       	ror	r24
    9ef4:	08 95       	ret

00009ef6 <__cmpsf2>:
    9ef6:	0e 94 5e 50 	call	0xa0bc	; 0xa0bc <__fp_cmp>
    9efa:	08 f4       	brcc	.+2      	; 0x9efe <__cmpsf2+0x8>
    9efc:	81 e0       	ldi	r24, 0x01	; 1
    9efe:	08 95       	ret

00009f00 <__divsf3>:
    9f00:	0e 94 94 4f 	call	0x9f28	; 0x9f28 <__divsf3x>
    9f04:	0c 94 99 50 	jmp	0xa132	; 0xa132 <__fp_round>
    9f08:	0e 94 92 50 	call	0xa124	; 0xa124 <__fp_pscB>
    9f0c:	58 f0       	brcs	.+22     	; 0x9f24 <__divsf3+0x24>
    9f0e:	0e 94 8b 50 	call	0xa116	; 0xa116 <__fp_pscA>
    9f12:	40 f0       	brcs	.+16     	; 0x9f24 <__divsf3+0x24>
    9f14:	29 f4       	brne	.+10     	; 0x9f20 <__divsf3+0x20>
    9f16:	5f 3f       	cpi	r21, 0xFF	; 255
    9f18:	29 f0       	breq	.+10     	; 0x9f24 <__divsf3+0x24>
    9f1a:	0c 94 82 50 	jmp	0xa104	; 0xa104 <__fp_inf>
    9f1e:	51 11       	cpse	r21, r1
    9f20:	0c 94 cd 50 	jmp	0xa19a	; 0xa19a <__fp_szero>
    9f24:	0c 94 88 50 	jmp	0xa110	; 0xa110 <__fp_nan>

00009f28 <__divsf3x>:
    9f28:	0e 94 aa 50 	call	0xa154	; 0xa154 <__fp_split3>
    9f2c:	68 f3       	brcs	.-38     	; 0x9f08 <__divsf3+0x8>

00009f2e <__divsf3_pse>:
    9f2e:	99 23       	and	r25, r25
    9f30:	b1 f3       	breq	.-20     	; 0x9f1e <__divsf3+0x1e>
    9f32:	55 23       	and	r21, r21
    9f34:	91 f3       	breq	.-28     	; 0x9f1a <__divsf3+0x1a>
    9f36:	95 1b       	sub	r25, r21
    9f38:	55 0b       	sbc	r21, r21
    9f3a:	bb 27       	eor	r27, r27
    9f3c:	aa 27       	eor	r26, r26
    9f3e:	62 17       	cp	r22, r18
    9f40:	73 07       	cpc	r23, r19
    9f42:	84 07       	cpc	r24, r20
    9f44:	38 f0       	brcs	.+14     	; 0x9f54 <__divsf3_pse+0x26>
    9f46:	9f 5f       	subi	r25, 0xFF	; 255
    9f48:	5f 4f       	sbci	r21, 0xFF	; 255
    9f4a:	22 0f       	add	r18, r18
    9f4c:	33 1f       	adc	r19, r19
    9f4e:	44 1f       	adc	r20, r20
    9f50:	aa 1f       	adc	r26, r26
    9f52:	a9 f3       	breq	.-22     	; 0x9f3e <__divsf3_pse+0x10>
    9f54:	35 d0       	rcall	.+106    	; 0x9fc0 <__divsf3_pse+0x92>
    9f56:	0e 2e       	mov	r0, r30
    9f58:	3a f0       	brmi	.+14     	; 0x9f68 <__divsf3_pse+0x3a>
    9f5a:	e0 e8       	ldi	r30, 0x80	; 128
    9f5c:	32 d0       	rcall	.+100    	; 0x9fc2 <__divsf3_pse+0x94>
    9f5e:	91 50       	subi	r25, 0x01	; 1
    9f60:	50 40       	sbci	r21, 0x00	; 0
    9f62:	e6 95       	lsr	r30
    9f64:	00 1c       	adc	r0, r0
    9f66:	ca f7       	brpl	.-14     	; 0x9f5a <__divsf3_pse+0x2c>
    9f68:	2b d0       	rcall	.+86     	; 0x9fc0 <__divsf3_pse+0x92>
    9f6a:	fe 2f       	mov	r31, r30
    9f6c:	29 d0       	rcall	.+82     	; 0x9fc0 <__divsf3_pse+0x92>
    9f6e:	66 0f       	add	r22, r22
    9f70:	77 1f       	adc	r23, r23
    9f72:	88 1f       	adc	r24, r24
    9f74:	bb 1f       	adc	r27, r27
    9f76:	26 17       	cp	r18, r22
    9f78:	37 07       	cpc	r19, r23
    9f7a:	48 07       	cpc	r20, r24
    9f7c:	ab 07       	cpc	r26, r27
    9f7e:	b0 e8       	ldi	r27, 0x80	; 128
    9f80:	09 f0       	breq	.+2      	; 0x9f84 <__divsf3_pse+0x56>
    9f82:	bb 0b       	sbc	r27, r27
    9f84:	80 2d       	mov	r24, r0
    9f86:	bf 01       	movw	r22, r30
    9f88:	ff 27       	eor	r31, r31
    9f8a:	93 58       	subi	r25, 0x83	; 131
    9f8c:	5f 4f       	sbci	r21, 0xFF	; 255
    9f8e:	3a f0       	brmi	.+14     	; 0x9f9e <__divsf3_pse+0x70>
    9f90:	9e 3f       	cpi	r25, 0xFE	; 254
    9f92:	51 05       	cpc	r21, r1
    9f94:	78 f0       	brcs	.+30     	; 0x9fb4 <__divsf3_pse+0x86>
    9f96:	0c 94 82 50 	jmp	0xa104	; 0xa104 <__fp_inf>
    9f9a:	0c 94 cd 50 	jmp	0xa19a	; 0xa19a <__fp_szero>
    9f9e:	5f 3f       	cpi	r21, 0xFF	; 255
    9fa0:	e4 f3       	brlt	.-8      	; 0x9f9a <__divsf3_pse+0x6c>
    9fa2:	98 3e       	cpi	r25, 0xE8	; 232
    9fa4:	d4 f3       	brlt	.-12     	; 0x9f9a <__divsf3_pse+0x6c>
    9fa6:	86 95       	lsr	r24
    9fa8:	77 95       	ror	r23
    9faa:	67 95       	ror	r22
    9fac:	b7 95       	ror	r27
    9fae:	f7 95       	ror	r31
    9fb0:	9f 5f       	subi	r25, 0xFF	; 255
    9fb2:	c9 f7       	brne	.-14     	; 0x9fa6 <__divsf3_pse+0x78>
    9fb4:	88 0f       	add	r24, r24
    9fb6:	91 1d       	adc	r25, r1
    9fb8:	96 95       	lsr	r25
    9fba:	87 95       	ror	r24
    9fbc:	97 f9       	bld	r25, 7
    9fbe:	08 95       	ret
    9fc0:	e1 e0       	ldi	r30, 0x01	; 1
    9fc2:	66 0f       	add	r22, r22
    9fc4:	77 1f       	adc	r23, r23
    9fc6:	88 1f       	adc	r24, r24
    9fc8:	bb 1f       	adc	r27, r27
    9fca:	62 17       	cp	r22, r18
    9fcc:	73 07       	cpc	r23, r19
    9fce:	84 07       	cpc	r24, r20
    9fd0:	ba 07       	cpc	r27, r26
    9fd2:	20 f0       	brcs	.+8      	; 0x9fdc <__divsf3_pse+0xae>
    9fd4:	62 1b       	sub	r22, r18
    9fd6:	73 0b       	sbc	r23, r19
    9fd8:	84 0b       	sbc	r24, r20
    9fda:	ba 0b       	sbc	r27, r26
    9fdc:	ee 1f       	adc	r30, r30
    9fde:	88 f7       	brcc	.-30     	; 0x9fc2 <__divsf3_pse+0x94>
    9fe0:	e0 95       	com	r30
    9fe2:	08 95       	ret

00009fe4 <__fixunssfsi>:
    9fe4:	0e 94 b2 50 	call	0xa164	; 0xa164 <__fp_splitA>
    9fe8:	88 f0       	brcs	.+34     	; 0xa00c <__fixunssfsi+0x28>
    9fea:	9f 57       	subi	r25, 0x7F	; 127
    9fec:	98 f0       	brcs	.+38     	; 0xa014 <__fixunssfsi+0x30>
    9fee:	b9 2f       	mov	r27, r25
    9ff0:	99 27       	eor	r25, r25
    9ff2:	b7 51       	subi	r27, 0x17	; 23
    9ff4:	b0 f0       	brcs	.+44     	; 0xa022 <__fixunssfsi+0x3e>
    9ff6:	e1 f0       	breq	.+56     	; 0xa030 <__fixunssfsi+0x4c>
    9ff8:	66 0f       	add	r22, r22
    9ffa:	77 1f       	adc	r23, r23
    9ffc:	88 1f       	adc	r24, r24
    9ffe:	99 1f       	adc	r25, r25
    a000:	1a f0       	brmi	.+6      	; 0xa008 <__fixunssfsi+0x24>
    a002:	ba 95       	dec	r27
    a004:	c9 f7       	brne	.-14     	; 0x9ff8 <__fixunssfsi+0x14>
    a006:	14 c0       	rjmp	.+40     	; 0xa030 <__fixunssfsi+0x4c>
    a008:	b1 30       	cpi	r27, 0x01	; 1
    a00a:	91 f0       	breq	.+36     	; 0xa030 <__fixunssfsi+0x4c>
    a00c:	0e 94 cc 50 	call	0xa198	; 0xa198 <__fp_zero>
    a010:	b1 e0       	ldi	r27, 0x01	; 1
    a012:	08 95       	ret
    a014:	0c 94 cc 50 	jmp	0xa198	; 0xa198 <__fp_zero>
    a018:	67 2f       	mov	r22, r23
    a01a:	78 2f       	mov	r23, r24
    a01c:	88 27       	eor	r24, r24
    a01e:	b8 5f       	subi	r27, 0xF8	; 248
    a020:	39 f0       	breq	.+14     	; 0xa030 <__fixunssfsi+0x4c>
    a022:	b9 3f       	cpi	r27, 0xF9	; 249
    a024:	cc f3       	brlt	.-14     	; 0xa018 <__fixunssfsi+0x34>
    a026:	86 95       	lsr	r24
    a028:	77 95       	ror	r23
    a02a:	67 95       	ror	r22
    a02c:	b3 95       	inc	r27
    a02e:	d9 f7       	brne	.-10     	; 0xa026 <__fixunssfsi+0x42>
    a030:	3e f4       	brtc	.+14     	; 0xa040 <__fixunssfsi+0x5c>
    a032:	90 95       	com	r25
    a034:	80 95       	com	r24
    a036:	70 95       	com	r23
    a038:	61 95       	neg	r22
    a03a:	7f 4f       	sbci	r23, 0xFF	; 255
    a03c:	8f 4f       	sbci	r24, 0xFF	; 255
    a03e:	9f 4f       	sbci	r25, 0xFF	; 255
    a040:	08 95       	ret

0000a042 <__floatunsisf>:
    a042:	e8 94       	clt
    a044:	09 c0       	rjmp	.+18     	; 0xa058 <__floatsisf+0x12>

0000a046 <__floatsisf>:
    a046:	97 fb       	bst	r25, 7
    a048:	3e f4       	brtc	.+14     	; 0xa058 <__floatsisf+0x12>
    a04a:	90 95       	com	r25
    a04c:	80 95       	com	r24
    a04e:	70 95       	com	r23
    a050:	61 95       	neg	r22
    a052:	7f 4f       	sbci	r23, 0xFF	; 255
    a054:	8f 4f       	sbci	r24, 0xFF	; 255
    a056:	9f 4f       	sbci	r25, 0xFF	; 255
    a058:	99 23       	and	r25, r25
    a05a:	a9 f0       	breq	.+42     	; 0xa086 <__floatsisf+0x40>
    a05c:	f9 2f       	mov	r31, r25
    a05e:	96 e9       	ldi	r25, 0x96	; 150
    a060:	bb 27       	eor	r27, r27
    a062:	93 95       	inc	r25
    a064:	f6 95       	lsr	r31
    a066:	87 95       	ror	r24
    a068:	77 95       	ror	r23
    a06a:	67 95       	ror	r22
    a06c:	b7 95       	ror	r27
    a06e:	f1 11       	cpse	r31, r1
    a070:	f8 cf       	rjmp	.-16     	; 0xa062 <__floatsisf+0x1c>
    a072:	fa f4       	brpl	.+62     	; 0xa0b2 <__floatsisf+0x6c>
    a074:	bb 0f       	add	r27, r27
    a076:	11 f4       	brne	.+4      	; 0xa07c <__floatsisf+0x36>
    a078:	60 ff       	sbrs	r22, 0
    a07a:	1b c0       	rjmp	.+54     	; 0xa0b2 <__floatsisf+0x6c>
    a07c:	6f 5f       	subi	r22, 0xFF	; 255
    a07e:	7f 4f       	sbci	r23, 0xFF	; 255
    a080:	8f 4f       	sbci	r24, 0xFF	; 255
    a082:	9f 4f       	sbci	r25, 0xFF	; 255
    a084:	16 c0       	rjmp	.+44     	; 0xa0b2 <__floatsisf+0x6c>
    a086:	88 23       	and	r24, r24
    a088:	11 f0       	breq	.+4      	; 0xa08e <__floatsisf+0x48>
    a08a:	96 e9       	ldi	r25, 0x96	; 150
    a08c:	11 c0       	rjmp	.+34     	; 0xa0b0 <__floatsisf+0x6a>
    a08e:	77 23       	and	r23, r23
    a090:	21 f0       	breq	.+8      	; 0xa09a <__floatsisf+0x54>
    a092:	9e e8       	ldi	r25, 0x8E	; 142
    a094:	87 2f       	mov	r24, r23
    a096:	76 2f       	mov	r23, r22
    a098:	05 c0       	rjmp	.+10     	; 0xa0a4 <__floatsisf+0x5e>
    a09a:	66 23       	and	r22, r22
    a09c:	71 f0       	breq	.+28     	; 0xa0ba <__floatsisf+0x74>
    a09e:	96 e8       	ldi	r25, 0x86	; 134
    a0a0:	86 2f       	mov	r24, r22
    a0a2:	70 e0       	ldi	r23, 0x00	; 0
    a0a4:	60 e0       	ldi	r22, 0x00	; 0
    a0a6:	2a f0       	brmi	.+10     	; 0xa0b2 <__floatsisf+0x6c>
    a0a8:	9a 95       	dec	r25
    a0aa:	66 0f       	add	r22, r22
    a0ac:	77 1f       	adc	r23, r23
    a0ae:	88 1f       	adc	r24, r24
    a0b0:	da f7       	brpl	.-10     	; 0xa0a8 <__floatsisf+0x62>
    a0b2:	88 0f       	add	r24, r24
    a0b4:	96 95       	lsr	r25
    a0b6:	87 95       	ror	r24
    a0b8:	97 f9       	bld	r25, 7
    a0ba:	08 95       	ret

0000a0bc <__fp_cmp>:
    a0bc:	99 0f       	add	r25, r25
    a0be:	00 08       	sbc	r0, r0
    a0c0:	55 0f       	add	r21, r21
    a0c2:	aa 0b       	sbc	r26, r26
    a0c4:	e0 e8       	ldi	r30, 0x80	; 128
    a0c6:	fe ef       	ldi	r31, 0xFE	; 254
    a0c8:	16 16       	cp	r1, r22
    a0ca:	17 06       	cpc	r1, r23
    a0cc:	e8 07       	cpc	r30, r24
    a0ce:	f9 07       	cpc	r31, r25
    a0d0:	c0 f0       	brcs	.+48     	; 0xa102 <__fp_cmp+0x46>
    a0d2:	12 16       	cp	r1, r18
    a0d4:	13 06       	cpc	r1, r19
    a0d6:	e4 07       	cpc	r30, r20
    a0d8:	f5 07       	cpc	r31, r21
    a0da:	98 f0       	brcs	.+38     	; 0xa102 <__fp_cmp+0x46>
    a0dc:	62 1b       	sub	r22, r18
    a0de:	73 0b       	sbc	r23, r19
    a0e0:	84 0b       	sbc	r24, r20
    a0e2:	95 0b       	sbc	r25, r21
    a0e4:	39 f4       	brne	.+14     	; 0xa0f4 <__fp_cmp+0x38>
    a0e6:	0a 26       	eor	r0, r26
    a0e8:	61 f0       	breq	.+24     	; 0xa102 <__fp_cmp+0x46>
    a0ea:	23 2b       	or	r18, r19
    a0ec:	24 2b       	or	r18, r20
    a0ee:	25 2b       	or	r18, r21
    a0f0:	21 f4       	brne	.+8      	; 0xa0fa <__fp_cmp+0x3e>
    a0f2:	08 95       	ret
    a0f4:	0a 26       	eor	r0, r26
    a0f6:	09 f4       	brne	.+2      	; 0xa0fa <__fp_cmp+0x3e>
    a0f8:	a1 40       	sbci	r26, 0x01	; 1
    a0fa:	a6 95       	lsr	r26
    a0fc:	8f ef       	ldi	r24, 0xFF	; 255
    a0fe:	81 1d       	adc	r24, r1
    a100:	81 1d       	adc	r24, r1
    a102:	08 95       	ret

0000a104 <__fp_inf>:
    a104:	97 f9       	bld	r25, 7
    a106:	9f 67       	ori	r25, 0x7F	; 127
    a108:	80 e8       	ldi	r24, 0x80	; 128
    a10a:	70 e0       	ldi	r23, 0x00	; 0
    a10c:	60 e0       	ldi	r22, 0x00	; 0
    a10e:	08 95       	ret

0000a110 <__fp_nan>:
    a110:	9f ef       	ldi	r25, 0xFF	; 255
    a112:	80 ec       	ldi	r24, 0xC0	; 192
    a114:	08 95       	ret

0000a116 <__fp_pscA>:
    a116:	00 24       	eor	r0, r0
    a118:	0a 94       	dec	r0
    a11a:	16 16       	cp	r1, r22
    a11c:	17 06       	cpc	r1, r23
    a11e:	18 06       	cpc	r1, r24
    a120:	09 06       	cpc	r0, r25
    a122:	08 95       	ret

0000a124 <__fp_pscB>:
    a124:	00 24       	eor	r0, r0
    a126:	0a 94       	dec	r0
    a128:	12 16       	cp	r1, r18
    a12a:	13 06       	cpc	r1, r19
    a12c:	14 06       	cpc	r1, r20
    a12e:	05 06       	cpc	r0, r21
    a130:	08 95       	ret

0000a132 <__fp_round>:
    a132:	09 2e       	mov	r0, r25
    a134:	03 94       	inc	r0
    a136:	00 0c       	add	r0, r0
    a138:	11 f4       	brne	.+4      	; 0xa13e <__fp_round+0xc>
    a13a:	88 23       	and	r24, r24
    a13c:	52 f0       	brmi	.+20     	; 0xa152 <__fp_round+0x20>
    a13e:	bb 0f       	add	r27, r27
    a140:	40 f4       	brcc	.+16     	; 0xa152 <__fp_round+0x20>
    a142:	bf 2b       	or	r27, r31
    a144:	11 f4       	brne	.+4      	; 0xa14a <__fp_round+0x18>
    a146:	60 ff       	sbrs	r22, 0
    a148:	04 c0       	rjmp	.+8      	; 0xa152 <__fp_round+0x20>
    a14a:	6f 5f       	subi	r22, 0xFF	; 255
    a14c:	7f 4f       	sbci	r23, 0xFF	; 255
    a14e:	8f 4f       	sbci	r24, 0xFF	; 255
    a150:	9f 4f       	sbci	r25, 0xFF	; 255
    a152:	08 95       	ret

0000a154 <__fp_split3>:
    a154:	57 fd       	sbrc	r21, 7
    a156:	90 58       	subi	r25, 0x80	; 128
    a158:	44 0f       	add	r20, r20
    a15a:	55 1f       	adc	r21, r21
    a15c:	59 f0       	breq	.+22     	; 0xa174 <__fp_splitA+0x10>
    a15e:	5f 3f       	cpi	r21, 0xFF	; 255
    a160:	71 f0       	breq	.+28     	; 0xa17e <__fp_splitA+0x1a>
    a162:	47 95       	ror	r20

0000a164 <__fp_splitA>:
    a164:	88 0f       	add	r24, r24
    a166:	97 fb       	bst	r25, 7
    a168:	99 1f       	adc	r25, r25
    a16a:	61 f0       	breq	.+24     	; 0xa184 <__fp_splitA+0x20>
    a16c:	9f 3f       	cpi	r25, 0xFF	; 255
    a16e:	79 f0       	breq	.+30     	; 0xa18e <__fp_splitA+0x2a>
    a170:	87 95       	ror	r24
    a172:	08 95       	ret
    a174:	12 16       	cp	r1, r18
    a176:	13 06       	cpc	r1, r19
    a178:	14 06       	cpc	r1, r20
    a17a:	55 1f       	adc	r21, r21
    a17c:	f2 cf       	rjmp	.-28     	; 0xa162 <__fp_split3+0xe>
    a17e:	46 95       	lsr	r20
    a180:	f1 df       	rcall	.-30     	; 0xa164 <__fp_splitA>
    a182:	08 c0       	rjmp	.+16     	; 0xa194 <__fp_splitA+0x30>
    a184:	16 16       	cp	r1, r22
    a186:	17 06       	cpc	r1, r23
    a188:	18 06       	cpc	r1, r24
    a18a:	99 1f       	adc	r25, r25
    a18c:	f1 cf       	rjmp	.-30     	; 0xa170 <__fp_splitA+0xc>
    a18e:	86 95       	lsr	r24
    a190:	71 05       	cpc	r23, r1
    a192:	61 05       	cpc	r22, r1
    a194:	08 94       	sec
    a196:	08 95       	ret

0000a198 <__fp_zero>:
    a198:	e8 94       	clt

0000a19a <__fp_szero>:
    a19a:	bb 27       	eor	r27, r27
    a19c:	66 27       	eor	r22, r22
    a19e:	77 27       	eor	r23, r23
    a1a0:	cb 01       	movw	r24, r22
    a1a2:	97 f9       	bld	r25, 7
    a1a4:	08 95       	ret

0000a1a6 <__gesf2>:
    a1a6:	0e 94 5e 50 	call	0xa0bc	; 0xa0bc <__fp_cmp>
    a1aa:	08 f4       	brcc	.+2      	; 0xa1ae <__gesf2+0x8>
    a1ac:	8f ef       	ldi	r24, 0xFF	; 255
    a1ae:	08 95       	ret

0000a1b0 <__mulsf3>:
    a1b0:	0e 94 eb 50 	call	0xa1d6	; 0xa1d6 <__mulsf3x>
    a1b4:	0c 94 99 50 	jmp	0xa132	; 0xa132 <__fp_round>
    a1b8:	0e 94 8b 50 	call	0xa116	; 0xa116 <__fp_pscA>
    a1bc:	38 f0       	brcs	.+14     	; 0xa1cc <__mulsf3+0x1c>
    a1be:	0e 94 92 50 	call	0xa124	; 0xa124 <__fp_pscB>
    a1c2:	20 f0       	brcs	.+8      	; 0xa1cc <__mulsf3+0x1c>
    a1c4:	95 23       	and	r25, r21
    a1c6:	11 f0       	breq	.+4      	; 0xa1cc <__mulsf3+0x1c>
    a1c8:	0c 94 82 50 	jmp	0xa104	; 0xa104 <__fp_inf>
    a1cc:	0c 94 88 50 	jmp	0xa110	; 0xa110 <__fp_nan>
    a1d0:	11 24       	eor	r1, r1
    a1d2:	0c 94 cd 50 	jmp	0xa19a	; 0xa19a <__fp_szero>

0000a1d6 <__mulsf3x>:
    a1d6:	0e 94 aa 50 	call	0xa154	; 0xa154 <__fp_split3>
    a1da:	70 f3       	brcs	.-36     	; 0xa1b8 <__mulsf3+0x8>

0000a1dc <__mulsf3_pse>:
    a1dc:	95 9f       	mul	r25, r21
    a1de:	c1 f3       	breq	.-16     	; 0xa1d0 <__mulsf3+0x20>
    a1e0:	95 0f       	add	r25, r21
    a1e2:	50 e0       	ldi	r21, 0x00	; 0
    a1e4:	55 1f       	adc	r21, r21
    a1e6:	62 9f       	mul	r22, r18
    a1e8:	f0 01       	movw	r30, r0
    a1ea:	72 9f       	mul	r23, r18
    a1ec:	bb 27       	eor	r27, r27
    a1ee:	f0 0d       	add	r31, r0
    a1f0:	b1 1d       	adc	r27, r1
    a1f2:	63 9f       	mul	r22, r19
    a1f4:	aa 27       	eor	r26, r26
    a1f6:	f0 0d       	add	r31, r0
    a1f8:	b1 1d       	adc	r27, r1
    a1fa:	aa 1f       	adc	r26, r26
    a1fc:	64 9f       	mul	r22, r20
    a1fe:	66 27       	eor	r22, r22
    a200:	b0 0d       	add	r27, r0
    a202:	a1 1d       	adc	r26, r1
    a204:	66 1f       	adc	r22, r22
    a206:	82 9f       	mul	r24, r18
    a208:	22 27       	eor	r18, r18
    a20a:	b0 0d       	add	r27, r0
    a20c:	a1 1d       	adc	r26, r1
    a20e:	62 1f       	adc	r22, r18
    a210:	73 9f       	mul	r23, r19
    a212:	b0 0d       	add	r27, r0
    a214:	a1 1d       	adc	r26, r1
    a216:	62 1f       	adc	r22, r18
    a218:	83 9f       	mul	r24, r19
    a21a:	a0 0d       	add	r26, r0
    a21c:	61 1d       	adc	r22, r1
    a21e:	22 1f       	adc	r18, r18
    a220:	74 9f       	mul	r23, r20
    a222:	33 27       	eor	r19, r19
    a224:	a0 0d       	add	r26, r0
    a226:	61 1d       	adc	r22, r1
    a228:	23 1f       	adc	r18, r19
    a22a:	84 9f       	mul	r24, r20
    a22c:	60 0d       	add	r22, r0
    a22e:	21 1d       	adc	r18, r1
    a230:	82 2f       	mov	r24, r18
    a232:	76 2f       	mov	r23, r22
    a234:	6a 2f       	mov	r22, r26
    a236:	11 24       	eor	r1, r1
    a238:	9f 57       	subi	r25, 0x7F	; 127
    a23a:	50 40       	sbci	r21, 0x00	; 0
    a23c:	9a f0       	brmi	.+38     	; 0xa264 <__mulsf3_pse+0x88>
    a23e:	f1 f0       	breq	.+60     	; 0xa27c <__mulsf3_pse+0xa0>
    a240:	88 23       	and	r24, r24
    a242:	4a f0       	brmi	.+18     	; 0xa256 <__mulsf3_pse+0x7a>
    a244:	ee 0f       	add	r30, r30
    a246:	ff 1f       	adc	r31, r31
    a248:	bb 1f       	adc	r27, r27
    a24a:	66 1f       	adc	r22, r22
    a24c:	77 1f       	adc	r23, r23
    a24e:	88 1f       	adc	r24, r24
    a250:	91 50       	subi	r25, 0x01	; 1
    a252:	50 40       	sbci	r21, 0x00	; 0
    a254:	a9 f7       	brne	.-22     	; 0xa240 <__mulsf3_pse+0x64>
    a256:	9e 3f       	cpi	r25, 0xFE	; 254
    a258:	51 05       	cpc	r21, r1
    a25a:	80 f0       	brcs	.+32     	; 0xa27c <__mulsf3_pse+0xa0>
    a25c:	0c 94 82 50 	jmp	0xa104	; 0xa104 <__fp_inf>
    a260:	0c 94 cd 50 	jmp	0xa19a	; 0xa19a <__fp_szero>
    a264:	5f 3f       	cpi	r21, 0xFF	; 255
    a266:	e4 f3       	brlt	.-8      	; 0xa260 <__mulsf3_pse+0x84>
    a268:	98 3e       	cpi	r25, 0xE8	; 232
    a26a:	d4 f3       	brlt	.-12     	; 0xa260 <__mulsf3_pse+0x84>
    a26c:	86 95       	lsr	r24
    a26e:	77 95       	ror	r23
    a270:	67 95       	ror	r22
    a272:	b7 95       	ror	r27
    a274:	f7 95       	ror	r31
    a276:	e7 95       	ror	r30
    a278:	9f 5f       	subi	r25, 0xFF	; 255
    a27a:	c1 f7       	brne	.-16     	; 0xa26c <__mulsf3_pse+0x90>
    a27c:	fe 2b       	or	r31, r30
    a27e:	88 0f       	add	r24, r24
    a280:	91 1d       	adc	r25, r1
    a282:	96 95       	lsr	r25
    a284:	87 95       	ror	r24
    a286:	97 f9       	bld	r25, 7
    a288:	08 95       	ret

0000a28a <round>:
    a28a:	0e 94 b2 50 	call	0xa164	; 0xa164 <__fp_splitA>
    a28e:	e8 f0       	brcs	.+58     	; 0xa2ca <round+0x40>
    a290:	9e 37       	cpi	r25, 0x7E	; 126
    a292:	e8 f0       	brcs	.+58     	; 0xa2ce <round+0x44>
    a294:	96 39       	cpi	r25, 0x96	; 150
    a296:	b8 f4       	brcc	.+46     	; 0xa2c6 <round+0x3c>
    a298:	9e 38       	cpi	r25, 0x8E	; 142
    a29a:	48 f4       	brcc	.+18     	; 0xa2ae <round+0x24>
    a29c:	67 2f       	mov	r22, r23
    a29e:	78 2f       	mov	r23, r24
    a2a0:	88 27       	eor	r24, r24
    a2a2:	98 5f       	subi	r25, 0xF8	; 248
    a2a4:	f9 cf       	rjmp	.-14     	; 0xa298 <round+0xe>
    a2a6:	86 95       	lsr	r24
    a2a8:	77 95       	ror	r23
    a2aa:	67 95       	ror	r22
    a2ac:	93 95       	inc	r25
    a2ae:	95 39       	cpi	r25, 0x95	; 149
    a2b0:	d0 f3       	brcs	.-12     	; 0xa2a6 <round+0x1c>
    a2b2:	b6 2f       	mov	r27, r22
    a2b4:	b1 70       	andi	r27, 0x01	; 1
    a2b6:	6b 0f       	add	r22, r27
    a2b8:	71 1d       	adc	r23, r1
    a2ba:	81 1d       	adc	r24, r1
    a2bc:	20 f4       	brcc	.+8      	; 0xa2c6 <round+0x3c>
    a2be:	87 95       	ror	r24
    a2c0:	77 95       	ror	r23
    a2c2:	67 95       	ror	r22
    a2c4:	93 95       	inc	r25
    a2c6:	0c 94 69 51 	jmp	0xa2d2	; 0xa2d2 <__fp_mintl>
    a2ca:	0c 94 84 51 	jmp	0xa308	; 0xa308 <__fp_mpack>
    a2ce:	0c 94 cd 50 	jmp	0xa19a	; 0xa19a <__fp_szero>

0000a2d2 <__fp_mintl>:
    a2d2:	88 23       	and	r24, r24
    a2d4:	71 f4       	brne	.+28     	; 0xa2f2 <__fp_mintl+0x20>
    a2d6:	77 23       	and	r23, r23
    a2d8:	21 f0       	breq	.+8      	; 0xa2e2 <__fp_mintl+0x10>
    a2da:	98 50       	subi	r25, 0x08	; 8
    a2dc:	87 2b       	or	r24, r23
    a2de:	76 2f       	mov	r23, r22
    a2e0:	07 c0       	rjmp	.+14     	; 0xa2f0 <__fp_mintl+0x1e>
    a2e2:	66 23       	and	r22, r22
    a2e4:	11 f4       	brne	.+4      	; 0xa2ea <__fp_mintl+0x18>
    a2e6:	99 27       	eor	r25, r25
    a2e8:	0d c0       	rjmp	.+26     	; 0xa304 <__fp_mintl+0x32>
    a2ea:	90 51       	subi	r25, 0x10	; 16
    a2ec:	86 2b       	or	r24, r22
    a2ee:	70 e0       	ldi	r23, 0x00	; 0
    a2f0:	60 e0       	ldi	r22, 0x00	; 0
    a2f2:	2a f0       	brmi	.+10     	; 0xa2fe <__fp_mintl+0x2c>
    a2f4:	9a 95       	dec	r25
    a2f6:	66 0f       	add	r22, r22
    a2f8:	77 1f       	adc	r23, r23
    a2fa:	88 1f       	adc	r24, r24
    a2fc:	da f7       	brpl	.-10     	; 0xa2f4 <__fp_mintl+0x22>
    a2fe:	88 0f       	add	r24, r24
    a300:	96 95       	lsr	r25
    a302:	87 95       	ror	r24
    a304:	97 f9       	bld	r25, 7
    a306:	08 95       	ret

0000a308 <__fp_mpack>:
    a308:	9f 3f       	cpi	r25, 0xFF	; 255
    a30a:	31 f0       	breq	.+12     	; 0xa318 <__fp_mpack_finite+0xc>

0000a30c <__fp_mpack_finite>:
    a30c:	91 50       	subi	r25, 0x01	; 1
    a30e:	20 f4       	brcc	.+8      	; 0xa318 <__fp_mpack_finite+0xc>
    a310:	87 95       	ror	r24
    a312:	77 95       	ror	r23
    a314:	67 95       	ror	r22
    a316:	b7 95       	ror	r27
    a318:	88 0f       	add	r24, r24
    a31a:	91 1d       	adc	r25, r1
    a31c:	96 95       	lsr	r25
    a31e:	87 95       	ror	r24
    a320:	97 f9       	bld	r25, 7
    a322:	08 95       	ret

0000a324 <__udivmodqi4>:
    a324:	99 1b       	sub	r25, r25
    a326:	79 e0       	ldi	r23, 0x09	; 9
    a328:	04 c0       	rjmp	.+8      	; 0xa332 <__udivmodqi4_ep>

0000a32a <__udivmodqi4_loop>:
    a32a:	99 1f       	adc	r25, r25
    a32c:	96 17       	cp	r25, r22
    a32e:	08 f0       	brcs	.+2      	; 0xa332 <__udivmodqi4_ep>
    a330:	96 1b       	sub	r25, r22

0000a332 <__udivmodqi4_ep>:
    a332:	88 1f       	adc	r24, r24
    a334:	7a 95       	dec	r23
    a336:	c9 f7       	brne	.-14     	; 0xa32a <__udivmodqi4_loop>
    a338:	80 95       	com	r24
    a33a:	08 95       	ret

0000a33c <__udivmodhi4>:
    a33c:	aa 1b       	sub	r26, r26
    a33e:	bb 1b       	sub	r27, r27
    a340:	51 e1       	ldi	r21, 0x11	; 17
    a342:	07 c0       	rjmp	.+14     	; 0xa352 <__udivmodhi4_ep>

0000a344 <__udivmodhi4_loop>:
    a344:	aa 1f       	adc	r26, r26
    a346:	bb 1f       	adc	r27, r27
    a348:	a6 17       	cp	r26, r22
    a34a:	b7 07       	cpc	r27, r23
    a34c:	10 f0       	brcs	.+4      	; 0xa352 <__udivmodhi4_ep>
    a34e:	a6 1b       	sub	r26, r22
    a350:	b7 0b       	sbc	r27, r23

0000a352 <__udivmodhi4_ep>:
    a352:	88 1f       	adc	r24, r24
    a354:	99 1f       	adc	r25, r25
    a356:	5a 95       	dec	r21
    a358:	a9 f7       	brne	.-22     	; 0xa344 <__udivmodhi4_loop>
    a35a:	80 95       	com	r24
    a35c:	90 95       	com	r25
    a35e:	bc 01       	movw	r22, r24
    a360:	cd 01       	movw	r24, r26
    a362:	08 95       	ret

0000a364 <__ftoa_engine>:
    a364:	28 30       	cpi	r18, 0x08	; 8
    a366:	08 f0       	brcs	.+2      	; 0xa36a <__ftoa_engine+0x6>
    a368:	27 e0       	ldi	r18, 0x07	; 7
    a36a:	33 27       	eor	r19, r19
    a36c:	da 01       	movw	r26, r20
    a36e:	99 0f       	add	r25, r25
    a370:	31 1d       	adc	r19, r1
    a372:	87 fd       	sbrc	r24, 7
    a374:	91 60       	ori	r25, 0x01	; 1
    a376:	00 96       	adiw	r24, 0x00	; 0
    a378:	61 05       	cpc	r22, r1
    a37a:	71 05       	cpc	r23, r1
    a37c:	39 f4       	brne	.+14     	; 0xa38c <__ftoa_engine+0x28>
    a37e:	32 60       	ori	r19, 0x02	; 2
    a380:	2e 5f       	subi	r18, 0xFE	; 254
    a382:	3d 93       	st	X+, r19
    a384:	30 e3       	ldi	r19, 0x30	; 48
    a386:	2a 95       	dec	r18
    a388:	e1 f7       	brne	.-8      	; 0xa382 <__ftoa_engine+0x1e>
    a38a:	08 95       	ret
    a38c:	9f 3f       	cpi	r25, 0xFF	; 255
    a38e:	30 f0       	brcs	.+12     	; 0xa39c <__ftoa_engine+0x38>
    a390:	80 38       	cpi	r24, 0x80	; 128
    a392:	71 05       	cpc	r23, r1
    a394:	61 05       	cpc	r22, r1
    a396:	09 f0       	breq	.+2      	; 0xa39a <__ftoa_engine+0x36>
    a398:	3c 5f       	subi	r19, 0xFC	; 252
    a39a:	3c 5f       	subi	r19, 0xFC	; 252
    a39c:	3d 93       	st	X+, r19
    a39e:	91 30       	cpi	r25, 0x01	; 1
    a3a0:	08 f0       	brcs	.+2      	; 0xa3a4 <__ftoa_engine+0x40>
    a3a2:	80 68       	ori	r24, 0x80	; 128
    a3a4:	91 1d       	adc	r25, r1
    a3a6:	df 93       	push	r29
    a3a8:	cf 93       	push	r28
    a3aa:	1f 93       	push	r17
    a3ac:	0f 93       	push	r16
    a3ae:	ff 92       	push	r15
    a3b0:	ef 92       	push	r14
    a3b2:	19 2f       	mov	r17, r25
    a3b4:	98 7f       	andi	r25, 0xF8	; 248
    a3b6:	96 95       	lsr	r25
    a3b8:	e9 2f       	mov	r30, r25
    a3ba:	96 95       	lsr	r25
    a3bc:	96 95       	lsr	r25
    a3be:	e9 0f       	add	r30, r25
    a3c0:	ff 27       	eor	r31, r31
    a3c2:	e2 51       	subi	r30, 0x12	; 18
    a3c4:	ff 4f       	sbci	r31, 0xFF	; 255
    a3c6:	99 27       	eor	r25, r25
    a3c8:	33 27       	eor	r19, r19
    a3ca:	ee 24       	eor	r14, r14
    a3cc:	ff 24       	eor	r15, r15
    a3ce:	a7 01       	movw	r20, r14
    a3d0:	e7 01       	movw	r28, r14
    a3d2:	05 90       	lpm	r0, Z+
    a3d4:	08 94       	sec
    a3d6:	07 94       	ror	r0
    a3d8:	28 f4       	brcc	.+10     	; 0xa3e4 <__ftoa_engine+0x80>
    a3da:	36 0f       	add	r19, r22
    a3dc:	e7 1e       	adc	r14, r23
    a3de:	f8 1e       	adc	r15, r24
    a3e0:	49 1f       	adc	r20, r25
    a3e2:	51 1d       	adc	r21, r1
    a3e4:	66 0f       	add	r22, r22
    a3e6:	77 1f       	adc	r23, r23
    a3e8:	88 1f       	adc	r24, r24
    a3ea:	99 1f       	adc	r25, r25
    a3ec:	06 94       	lsr	r0
    a3ee:	a1 f7       	brne	.-24     	; 0xa3d8 <__ftoa_engine+0x74>
    a3f0:	05 90       	lpm	r0, Z+
    a3f2:	07 94       	ror	r0
    a3f4:	28 f4       	brcc	.+10     	; 0xa400 <__ftoa_engine+0x9c>
    a3f6:	e7 0e       	add	r14, r23
    a3f8:	f8 1e       	adc	r15, r24
    a3fa:	49 1f       	adc	r20, r25
    a3fc:	56 1f       	adc	r21, r22
    a3fe:	c1 1d       	adc	r28, r1
    a400:	77 0f       	add	r23, r23
    a402:	88 1f       	adc	r24, r24
    a404:	99 1f       	adc	r25, r25
    a406:	66 1f       	adc	r22, r22
    a408:	06 94       	lsr	r0
    a40a:	a1 f7       	brne	.-24     	; 0xa3f4 <__ftoa_engine+0x90>
    a40c:	05 90       	lpm	r0, Z+
    a40e:	07 94       	ror	r0
    a410:	28 f4       	brcc	.+10     	; 0xa41c <__ftoa_engine+0xb8>
    a412:	f8 0e       	add	r15, r24
    a414:	49 1f       	adc	r20, r25
    a416:	56 1f       	adc	r21, r22
    a418:	c7 1f       	adc	r28, r23
    a41a:	d1 1d       	adc	r29, r1
    a41c:	88 0f       	add	r24, r24
    a41e:	99 1f       	adc	r25, r25
    a420:	66 1f       	adc	r22, r22
    a422:	77 1f       	adc	r23, r23
    a424:	06 94       	lsr	r0
    a426:	a1 f7       	brne	.-24     	; 0xa410 <__ftoa_engine+0xac>
    a428:	05 90       	lpm	r0, Z+
    a42a:	07 94       	ror	r0
    a42c:	20 f4       	brcc	.+8      	; 0xa436 <__ftoa_engine+0xd2>
    a42e:	49 0f       	add	r20, r25
    a430:	56 1f       	adc	r21, r22
    a432:	c7 1f       	adc	r28, r23
    a434:	d8 1f       	adc	r29, r24
    a436:	99 0f       	add	r25, r25
    a438:	66 1f       	adc	r22, r22
    a43a:	77 1f       	adc	r23, r23
    a43c:	88 1f       	adc	r24, r24
    a43e:	06 94       	lsr	r0
    a440:	a9 f7       	brne	.-22     	; 0xa42c <__ftoa_engine+0xc8>
    a442:	84 91       	lpm	r24, Z
    a444:	10 95       	com	r17
    a446:	17 70       	andi	r17, 0x07	; 7
    a448:	41 f0       	breq	.+16     	; 0xa45a <__ftoa_engine+0xf6>
    a44a:	d6 95       	lsr	r29
    a44c:	c7 95       	ror	r28
    a44e:	57 95       	ror	r21
    a450:	47 95       	ror	r20
    a452:	f7 94       	ror	r15
    a454:	e7 94       	ror	r14
    a456:	1a 95       	dec	r17
    a458:	c1 f7       	brne	.-16     	; 0xa44a <__ftoa_engine+0xe6>
    a45a:	e4 e9       	ldi	r30, 0x94	; 148
    a45c:	f0 e0       	ldi	r31, 0x00	; 0
    a45e:	68 94       	set
    a460:	15 90       	lpm	r1, Z+
    a462:	15 91       	lpm	r17, Z+
    a464:	35 91       	lpm	r19, Z+
    a466:	65 91       	lpm	r22, Z+
    a468:	95 91       	lpm	r25, Z+
    a46a:	05 90       	lpm	r0, Z+
    a46c:	7f e2       	ldi	r23, 0x2F	; 47
    a46e:	73 95       	inc	r23
    a470:	e1 18       	sub	r14, r1
    a472:	f1 0a       	sbc	r15, r17
    a474:	43 0b       	sbc	r20, r19
    a476:	56 0b       	sbc	r21, r22
    a478:	c9 0b       	sbc	r28, r25
    a47a:	d0 09       	sbc	r29, r0
    a47c:	c0 f7       	brcc	.-16     	; 0xa46e <__ftoa_engine+0x10a>
    a47e:	e1 0c       	add	r14, r1
    a480:	f1 1e       	adc	r15, r17
    a482:	43 1f       	adc	r20, r19
    a484:	56 1f       	adc	r21, r22
    a486:	c9 1f       	adc	r28, r25
    a488:	d0 1d       	adc	r29, r0
    a48a:	7e f4       	brtc	.+30     	; 0xa4aa <__ftoa_engine+0x146>
    a48c:	70 33       	cpi	r23, 0x30	; 48
    a48e:	11 f4       	brne	.+4      	; 0xa494 <__ftoa_engine+0x130>
    a490:	8a 95       	dec	r24
    a492:	e6 cf       	rjmp	.-52     	; 0xa460 <__ftoa_engine+0xfc>
    a494:	e8 94       	clt
    a496:	01 50       	subi	r16, 0x01	; 1
    a498:	30 f0       	brcs	.+12     	; 0xa4a6 <__ftoa_engine+0x142>
    a49a:	08 0f       	add	r16, r24
    a49c:	0a f4       	brpl	.+2      	; 0xa4a0 <__ftoa_engine+0x13c>
    a49e:	00 27       	eor	r16, r16
    a4a0:	02 17       	cp	r16, r18
    a4a2:	08 f4       	brcc	.+2      	; 0xa4a6 <__ftoa_engine+0x142>
    a4a4:	20 2f       	mov	r18, r16
    a4a6:	23 95       	inc	r18
    a4a8:	02 2f       	mov	r16, r18
    a4aa:	7a 33       	cpi	r23, 0x3A	; 58
    a4ac:	28 f0       	brcs	.+10     	; 0xa4b8 <__ftoa_engine+0x154>
    a4ae:	79 e3       	ldi	r23, 0x39	; 57
    a4b0:	7d 93       	st	X+, r23
    a4b2:	2a 95       	dec	r18
    a4b4:	e9 f7       	brne	.-6      	; 0xa4b0 <__ftoa_engine+0x14c>
    a4b6:	10 c0       	rjmp	.+32     	; 0xa4d8 <__ftoa_engine+0x174>
    a4b8:	7d 93       	st	X+, r23
    a4ba:	2a 95       	dec	r18
    a4bc:	89 f6       	brne	.-94     	; 0xa460 <__ftoa_engine+0xfc>
    a4be:	06 94       	lsr	r0
    a4c0:	97 95       	ror	r25
    a4c2:	67 95       	ror	r22
    a4c4:	37 95       	ror	r19
    a4c6:	17 95       	ror	r17
    a4c8:	17 94       	ror	r1
    a4ca:	e1 18       	sub	r14, r1
    a4cc:	f1 0a       	sbc	r15, r17
    a4ce:	43 0b       	sbc	r20, r19
    a4d0:	56 0b       	sbc	r21, r22
    a4d2:	c9 0b       	sbc	r28, r25
    a4d4:	d0 09       	sbc	r29, r0
    a4d6:	98 f0       	brcs	.+38     	; 0xa4fe <__ftoa_engine+0x19a>
    a4d8:	23 95       	inc	r18
    a4da:	7e 91       	ld	r23, -X
    a4dc:	73 95       	inc	r23
    a4de:	7a 33       	cpi	r23, 0x3A	; 58
    a4e0:	08 f0       	brcs	.+2      	; 0xa4e4 <__ftoa_engine+0x180>
    a4e2:	70 e3       	ldi	r23, 0x30	; 48
    a4e4:	7c 93       	st	X, r23
    a4e6:	20 13       	cpse	r18, r16
    a4e8:	b8 f7       	brcc	.-18     	; 0xa4d8 <__ftoa_engine+0x174>
    a4ea:	7e 91       	ld	r23, -X
    a4ec:	70 61       	ori	r23, 0x10	; 16
    a4ee:	7d 93       	st	X+, r23
    a4f0:	30 f0       	brcs	.+12     	; 0xa4fe <__ftoa_engine+0x19a>
    a4f2:	83 95       	inc	r24
    a4f4:	71 e3       	ldi	r23, 0x31	; 49
    a4f6:	7d 93       	st	X+, r23
    a4f8:	70 e3       	ldi	r23, 0x30	; 48
    a4fa:	2a 95       	dec	r18
    a4fc:	e1 f7       	brne	.-8      	; 0xa4f6 <__ftoa_engine+0x192>
    a4fe:	11 24       	eor	r1, r1
    a500:	ef 90       	pop	r14
    a502:	ff 90       	pop	r15
    a504:	0f 91       	pop	r16
    a506:	1f 91       	pop	r17
    a508:	cf 91       	pop	r28
    a50a:	df 91       	pop	r29
    a50c:	99 27       	eor	r25, r25
    a50e:	87 fd       	sbrc	r24, 7
    a510:	90 95       	com	r25
    a512:	08 95       	ret

0000a514 <__strlen_P>:
    a514:	fc 01       	movw	r30, r24
    a516:	05 90       	lpm	r0, Z+
    a518:	00 20       	and	r0, r0
    a51a:	e9 f7       	brne	.-6      	; 0xa516 <__strlen_P+0x2>
    a51c:	80 95       	com	r24
    a51e:	90 95       	com	r25
    a520:	8e 0f       	add	r24, r30
    a522:	9f 1f       	adc	r25, r31
    a524:	08 95       	ret

0000a526 <strnlen_P>:
    a526:	fc 01       	movw	r30, r24
    a528:	05 90       	lpm	r0, Z+
    a52a:	61 50       	subi	r22, 0x01	; 1
    a52c:	70 40       	sbci	r23, 0x00	; 0
    a52e:	01 10       	cpse	r0, r1
    a530:	d8 f7       	brcc	.-10     	; 0xa528 <strnlen_P+0x2>
    a532:	80 95       	com	r24
    a534:	90 95       	com	r25
    a536:	8e 0f       	add	r24, r30
    a538:	9f 1f       	adc	r25, r31
    a53a:	08 95       	ret

0000a53c <strnlen>:
    a53c:	fc 01       	movw	r30, r24
    a53e:	61 50       	subi	r22, 0x01	; 1
    a540:	70 40       	sbci	r23, 0x00	; 0
    a542:	01 90       	ld	r0, Z+
    a544:	01 10       	cpse	r0, r1
    a546:	d8 f7       	brcc	.-10     	; 0xa53e <strnlen+0x2>
    a548:	80 95       	com	r24
    a54a:	90 95       	com	r25
    a54c:	8e 0f       	add	r24, r30
    a54e:	9f 1f       	adc	r25, r31
    a550:	08 95       	ret

0000a552 <fputc>:
    a552:	0f 93       	push	r16
    a554:	1f 93       	push	r17
    a556:	cf 93       	push	r28
    a558:	df 93       	push	r29
    a55a:	fb 01       	movw	r30, r22
    a55c:	23 81       	ldd	r18, Z+3	; 0x03
    a55e:	21 fd       	sbrc	r18, 1
    a560:	03 c0       	rjmp	.+6      	; 0xa568 <fputc+0x16>
    a562:	8f ef       	ldi	r24, 0xFF	; 255
    a564:	9f ef       	ldi	r25, 0xFF	; 255
    a566:	2c c0       	rjmp	.+88     	; 0xa5c0 <fputc+0x6e>
    a568:	22 ff       	sbrs	r18, 2
    a56a:	16 c0       	rjmp	.+44     	; 0xa598 <fputc+0x46>
    a56c:	46 81       	ldd	r20, Z+6	; 0x06
    a56e:	57 81       	ldd	r21, Z+7	; 0x07
    a570:	24 81       	ldd	r18, Z+4	; 0x04
    a572:	35 81       	ldd	r19, Z+5	; 0x05
    a574:	42 17       	cp	r20, r18
    a576:	53 07       	cpc	r21, r19
    a578:	44 f4       	brge	.+16     	; 0xa58a <fputc+0x38>
    a57a:	a0 81       	ld	r26, Z
    a57c:	b1 81       	ldd	r27, Z+1	; 0x01
    a57e:	9d 01       	movw	r18, r26
    a580:	2f 5f       	subi	r18, 0xFF	; 255
    a582:	3f 4f       	sbci	r19, 0xFF	; 255
    a584:	31 83       	std	Z+1, r19	; 0x01
    a586:	20 83       	st	Z, r18
    a588:	8c 93       	st	X, r24
    a58a:	26 81       	ldd	r18, Z+6	; 0x06
    a58c:	37 81       	ldd	r19, Z+7	; 0x07
    a58e:	2f 5f       	subi	r18, 0xFF	; 255
    a590:	3f 4f       	sbci	r19, 0xFF	; 255
    a592:	37 83       	std	Z+7, r19	; 0x07
    a594:	26 83       	std	Z+6, r18	; 0x06
    a596:	14 c0       	rjmp	.+40     	; 0xa5c0 <fputc+0x6e>
    a598:	8b 01       	movw	r16, r22
    a59a:	ec 01       	movw	r28, r24
    a59c:	fb 01       	movw	r30, r22
    a59e:	00 84       	ldd	r0, Z+8	; 0x08
    a5a0:	f1 85       	ldd	r31, Z+9	; 0x09
    a5a2:	e0 2d       	mov	r30, r0
    a5a4:	09 95       	icall
    a5a6:	89 2b       	or	r24, r25
    a5a8:	e1 f6       	brne	.-72     	; 0xa562 <fputc+0x10>
    a5aa:	d8 01       	movw	r26, r16
    a5ac:	16 96       	adiw	r26, 0x06	; 6
    a5ae:	8d 91       	ld	r24, X+
    a5b0:	9c 91       	ld	r25, X
    a5b2:	17 97       	sbiw	r26, 0x07	; 7
    a5b4:	01 96       	adiw	r24, 0x01	; 1
    a5b6:	17 96       	adiw	r26, 0x07	; 7
    a5b8:	9c 93       	st	X, r25
    a5ba:	8e 93       	st	-X, r24
    a5bc:	16 97       	sbiw	r26, 0x06	; 6
    a5be:	ce 01       	movw	r24, r28
    a5c0:	df 91       	pop	r29
    a5c2:	cf 91       	pop	r28
    a5c4:	1f 91       	pop	r17
    a5c6:	0f 91       	pop	r16
    a5c8:	08 95       	ret

0000a5ca <sprintf>:
    a5ca:	0f 93       	push	r16
    a5cc:	1f 93       	push	r17
    a5ce:	cf 93       	push	r28
    a5d0:	df 93       	push	r29
    a5d2:	cd b7       	in	r28, 0x3d	; 61
    a5d4:	de b7       	in	r29, 0x3e	; 62
    a5d6:	2e 97       	sbiw	r28, 0x0e	; 14
    a5d8:	0f b6       	in	r0, 0x3f	; 63
    a5da:	f8 94       	cli
    a5dc:	de bf       	out	0x3e, r29	; 62
    a5de:	0f be       	out	0x3f, r0	; 63
    a5e0:	cd bf       	out	0x3d, r28	; 61
    a5e2:	0d 89       	ldd	r16, Y+21	; 0x15
    a5e4:	1e 89       	ldd	r17, Y+22	; 0x16
    a5e6:	86 e0       	ldi	r24, 0x06	; 6
    a5e8:	8c 83       	std	Y+4, r24	; 0x04
    a5ea:	1a 83       	std	Y+2, r17	; 0x02
    a5ec:	09 83       	std	Y+1, r16	; 0x01
    a5ee:	8f ef       	ldi	r24, 0xFF	; 255
    a5f0:	9f e7       	ldi	r25, 0x7F	; 127
    a5f2:	9e 83       	std	Y+6, r25	; 0x06
    a5f4:	8d 83       	std	Y+5, r24	; 0x05
    a5f6:	ae 01       	movw	r20, r28
    a5f8:	47 5e       	subi	r20, 0xE7	; 231
    a5fa:	5f 4f       	sbci	r21, 0xFF	; 255
    a5fc:	6f 89       	ldd	r22, Y+23	; 0x17
    a5fe:	78 8d       	ldd	r23, Y+24	; 0x18
    a600:	ce 01       	movw	r24, r28
    a602:	01 96       	adiw	r24, 0x01	; 1
    a604:	0e 94 68 4b 	call	0x96d0	; 0x96d0 <vfprintf>
    a608:	ef 81       	ldd	r30, Y+7	; 0x07
    a60a:	f8 85       	ldd	r31, Y+8	; 0x08
    a60c:	e0 0f       	add	r30, r16
    a60e:	f1 1f       	adc	r31, r17
    a610:	10 82       	st	Z, r1
    a612:	2e 96       	adiw	r28, 0x0e	; 14
    a614:	0f b6       	in	r0, 0x3f	; 63
    a616:	f8 94       	cli
    a618:	de bf       	out	0x3e, r29	; 62
    a61a:	0f be       	out	0x3f, r0	; 63
    a61c:	cd bf       	out	0x3d, r28	; 61
    a61e:	df 91       	pop	r29
    a620:	cf 91       	pop	r28
    a622:	1f 91       	pop	r17
    a624:	0f 91       	pop	r16
    a626:	08 95       	ret

0000a628 <__ultoa_invert>:
    a628:	fa 01       	movw	r30, r20
    a62a:	aa 27       	eor	r26, r26
    a62c:	28 30       	cpi	r18, 0x08	; 8
    a62e:	51 f1       	breq	.+84     	; 0xa684 <__ultoa_invert+0x5c>
    a630:	20 31       	cpi	r18, 0x10	; 16
    a632:	81 f1       	breq	.+96     	; 0xa694 <__ultoa_invert+0x6c>
    a634:	e8 94       	clt
    a636:	6f 93       	push	r22
    a638:	6e 7f       	andi	r22, 0xFE	; 254
    a63a:	6e 5f       	subi	r22, 0xFE	; 254
    a63c:	7f 4f       	sbci	r23, 0xFF	; 255
    a63e:	8f 4f       	sbci	r24, 0xFF	; 255
    a640:	9f 4f       	sbci	r25, 0xFF	; 255
    a642:	af 4f       	sbci	r26, 0xFF	; 255
    a644:	b1 e0       	ldi	r27, 0x01	; 1
    a646:	3e d0       	rcall	.+124    	; 0xa6c4 <__ultoa_invert+0x9c>
    a648:	b4 e0       	ldi	r27, 0x04	; 4
    a64a:	3c d0       	rcall	.+120    	; 0xa6c4 <__ultoa_invert+0x9c>
    a64c:	67 0f       	add	r22, r23
    a64e:	78 1f       	adc	r23, r24
    a650:	89 1f       	adc	r24, r25
    a652:	9a 1f       	adc	r25, r26
    a654:	a1 1d       	adc	r26, r1
    a656:	68 0f       	add	r22, r24
    a658:	79 1f       	adc	r23, r25
    a65a:	8a 1f       	adc	r24, r26
    a65c:	91 1d       	adc	r25, r1
    a65e:	a1 1d       	adc	r26, r1
    a660:	6a 0f       	add	r22, r26
    a662:	71 1d       	adc	r23, r1
    a664:	81 1d       	adc	r24, r1
    a666:	91 1d       	adc	r25, r1
    a668:	a1 1d       	adc	r26, r1
    a66a:	20 d0       	rcall	.+64     	; 0xa6ac <__ultoa_invert+0x84>
    a66c:	09 f4       	brne	.+2      	; 0xa670 <__ultoa_invert+0x48>
    a66e:	68 94       	set
    a670:	3f 91       	pop	r19
    a672:	2a e0       	ldi	r18, 0x0A	; 10
    a674:	26 9f       	mul	r18, r22
    a676:	11 24       	eor	r1, r1
    a678:	30 19       	sub	r19, r0
    a67a:	30 5d       	subi	r19, 0xD0	; 208
    a67c:	31 93       	st	Z+, r19
    a67e:	de f6       	brtc	.-74     	; 0xa636 <__ultoa_invert+0xe>
    a680:	cf 01       	movw	r24, r30
    a682:	08 95       	ret
    a684:	46 2f       	mov	r20, r22
    a686:	47 70       	andi	r20, 0x07	; 7
    a688:	40 5d       	subi	r20, 0xD0	; 208
    a68a:	41 93       	st	Z+, r20
    a68c:	b3 e0       	ldi	r27, 0x03	; 3
    a68e:	0f d0       	rcall	.+30     	; 0xa6ae <__ultoa_invert+0x86>
    a690:	c9 f7       	brne	.-14     	; 0xa684 <__ultoa_invert+0x5c>
    a692:	f6 cf       	rjmp	.-20     	; 0xa680 <__ultoa_invert+0x58>
    a694:	46 2f       	mov	r20, r22
    a696:	4f 70       	andi	r20, 0x0F	; 15
    a698:	40 5d       	subi	r20, 0xD0	; 208
    a69a:	4a 33       	cpi	r20, 0x3A	; 58
    a69c:	18 f0       	brcs	.+6      	; 0xa6a4 <__ultoa_invert+0x7c>
    a69e:	49 5d       	subi	r20, 0xD9	; 217
    a6a0:	31 fd       	sbrc	r19, 1
    a6a2:	40 52       	subi	r20, 0x20	; 32
    a6a4:	41 93       	st	Z+, r20
    a6a6:	02 d0       	rcall	.+4      	; 0xa6ac <__ultoa_invert+0x84>
    a6a8:	a9 f7       	brne	.-22     	; 0xa694 <__ultoa_invert+0x6c>
    a6aa:	ea cf       	rjmp	.-44     	; 0xa680 <__ultoa_invert+0x58>
    a6ac:	b4 e0       	ldi	r27, 0x04	; 4
    a6ae:	a6 95       	lsr	r26
    a6b0:	97 95       	ror	r25
    a6b2:	87 95       	ror	r24
    a6b4:	77 95       	ror	r23
    a6b6:	67 95       	ror	r22
    a6b8:	ba 95       	dec	r27
    a6ba:	c9 f7       	brne	.-14     	; 0xa6ae <__ultoa_invert+0x86>
    a6bc:	00 97       	sbiw	r24, 0x00	; 0
    a6be:	61 05       	cpc	r22, r1
    a6c0:	71 05       	cpc	r23, r1
    a6c2:	08 95       	ret
    a6c4:	9b 01       	movw	r18, r22
    a6c6:	ac 01       	movw	r20, r24
    a6c8:	0a 2e       	mov	r0, r26
    a6ca:	06 94       	lsr	r0
    a6cc:	57 95       	ror	r21
    a6ce:	47 95       	ror	r20
    a6d0:	37 95       	ror	r19
    a6d2:	27 95       	ror	r18
    a6d4:	ba 95       	dec	r27
    a6d6:	c9 f7       	brne	.-14     	; 0xa6ca <__ultoa_invert+0xa2>
    a6d8:	62 0f       	add	r22, r18
    a6da:	73 1f       	adc	r23, r19
    a6dc:	84 1f       	adc	r24, r20
    a6de:	95 1f       	adc	r25, r21
    a6e0:	a0 1d       	adc	r26, r0
    a6e2:	08 95       	ret

0000a6e4 <_exit>:
    a6e4:	f8 94       	cli

0000a6e6 <__stop_program>:
    a6e6:	ff cf       	rjmp	.-2      	; 0xa6e6 <__stop_program>
